 canvas

 Timestamp is 5bed8eea (Thu Nov 15 15:21:14 2018)

 Preferred load address is 0000000180000000

 Start         Length     Name                   Class
 0001:00000000 000006b0H .text                   CODE
 0001:000006b0 00001bf0H .text$di                CODE
 0001:000022a0 0003be70H .text$mn                CODE
 0001:0003e110 000001e0H .text$mn$00             CODE
 0001:0003e2f0 00001340H .text$x                 CODE
 0001:0003f630 00000268H .text$yd                CODE
 0002:00000000 000009a0H .idata$5                DATA
 0002:000009a0 00000010H .00cfg                  DATA
 0002:000009b0 00000008H .CRT$XCA                DATA
 0002:000009b8 00000018H .CRT$XCC                DATA
 0002:000009d0 00000010H .CRT$XCL                DATA
 0002:000009e0 00000060H .CRT$XCU                DATA
 0002:00000a40 00000008H .CRT$XCZ                DATA
 0002:00000a48 00000008H .CRT$XIA                DATA
 0002:00000a50 00000028H .CRT$XIC                DATA
 0002:00000a78 00000008H .CRT$XIZ                DATA
 0002:00000a80 00000008H .CRT$XPA                DATA
 0002:00000a88 00000010H .CRT$XPX                DATA
 0002:00000a98 00000008H .CRT$XPXA               DATA
 0002:00000aa0 00000008H .CRT$XPZ                DATA
 0002:00000aa8 00000008H .CRT$XTA                DATA
 0002:00000ab0 00000010H .CRT$XTZ                DATA
 0002:00000ab8 00000000H .gfids$y                DATA
 0002:00000ac0 00013860H .rdata                  DATA
 0002:00014320 000003fcH .rdata$r                DATA
 0002:0001471c 0000042cH .rdata$zzzdbg           DATA
 0002:00014b48 00000008H .rtc$IAA                DATA
 0002:00014b50 00000008H .rtc$IZZ                DATA
 0002:00014b58 00000008H .rtc$TAA                DATA
 0002:00014b60 00000010H .rtc$TZZ                DATA
 0002:00014b70 00004950H .xdata                  DATA
 0002:000194c0 0000031cH .xdata$x                DATA
 0002:000197dc 00000020H .didat$2                DATA
 0002:000197fc 00000024H .didat$3                DATA
 0002:00019820 00000340H .didat$4                DATA
 0002:00019b60 00001ba0H .didat$6                DATA
 0002:0001b700 00000340H .didat$7                DATA
 0002:0001ba40 00000250H .edata                  DATA
 0002:0001bc90 000000f0H .idata$2                DATA
 0002:0001bd80 00000018H .idata$3                DATA
 0002:0001bd98 000009a0H .idata$4                DATA
 0002:0001c738 00001a08H .idata$6                DATA
 0002:0001e140 000003fcH .idata$7                DATA
 0003:00000000 00000ba0H .data                   DATA
 0003:00000ba0 00000260H .data$r                 DATA
 0003:00000e00 00000340H .didat$5                DATA
 0003:00001140 0000189cH .bss                    DATA
 0004:00000000 00002db4H .pdata                  DATA
 0005:00000000 00000060H .rsrc$01                DATA
 0005:00000060 00000180H .rsrc$02                DATA

  Address         Publics by Value              Rva+Base               Lib:Object

 0000:00000000       __guard_fids_count         0000000000000000     <absolute>
 0000:00000000       __hybrid_code_map          0000000000000000     <absolute>
 0000:00000000       __guard_longjmp_count      0000000000000000     <absolute>
 0000:00000000       __guard_iat_count          0000000000000000     <absolute>
 0000:00000000       __guard_longjmp_table      0000000000000000     <absolute>
 0000:00000000       __volatile_metadata        0000000000000000     <absolute>
 0000:00000000       __guard_iat_table          0000000000000000     <absolute>
 0000:00000000       __hybrid_code_map_count    0000000000000000     <absolute>
 0000:00000000       __enclave_config           0000000000000000     <absolute>
 0000:00000000       ___safe_se_handler_count   0000000000000000     <absolute>
 0000:00000000       ___safe_se_handler_table   0000000000000000     <absolute>
 0000:00000000       __guard_fids_table         0000000000000000     <absolute>
 0000:00000000       __hybrid_auxiliary_iat     0000000000000000     <absolute>
 0000:00000000       __dynamic_value_reloc_table 0000000000000000     <absolute>
 0000:00000100       __guard_flags              0000000000000100     <absolute>
 0000:00000000       __ImageBase                0000000180000000     <linker-defined>
 0001:00000000       cairo_surface_destroy      0000000180001000     libcairo-2:dszbs00305.o
 0001:00000008       cairo_status_to_string     0000000180001008     libcairo-2:dszbs00296.o
 0001:00000010       cairo_surface_status       0000000180001010     libcairo-2:dszbs00338.o
 0001:00000018       cairo_image_surface_get_height 0000000180001018     libcairo-2:dszbs00105.o
 0001:00000020       cairo_image_surface_create 0000000180001020     libcairo-2:dszbs00099.o
 0001:00000028       cairo_image_surface_get_width 0000000180001028     libcairo-2:dszbs00107.o
 0001:00000030       cairo_image_surface_get_stride 0000000180001030     libcairo-2:dszbs00106.o
 0001:00000038       cairo_surface_finish       0000000180001038     libcairo-2:dszbs00306.o
 0001:00000040       cairo_image_surface_get_data 0000000180001040     libcairo-2:dszbs00103.o
 0001:00000048       cairo_pdf_surface_set_size 0000000180001048     libcairo-2:dszbs00180.o
 0001:00000050       cairo_pdf_surface_create_for_stream 0000000180001050     libcairo-2:dszbs00176.o
 0001:00000058       cairo_svg_surface_create_for_stream 0000000180001058     libcairo-2:dszbs00345.o
 0001:00000060       cairo_image_surface_get_format 0000000180001060     libcairo-2:dszbs00104.o
 0001:00000068       cairo_destroy              0000000180001068     libcairo-2:dszbs00014.o
 0001:00000070       cairo_surface_flush        0000000180001070     libcairo-2:dszbs00307.o
 0001:00000078       cairo_set_line_width       0000000180001078     libcairo-2:dszbs00280.o
 0001:00000080       cairo_create               0000000180001080     libcairo-2:dszbs00011.o
 0001:00000088       cairo_pattern_add_color_stop_rgba 0000000180001088     libcairo-2:dszbs00146.o
 0001:00000090       cairo_pattern_create_radial 0000000180001090     libcairo-2:dszbs00150.o
 0001:00000098       cairo_pattern_create_linear 0000000180001098     libcairo-2:dszbs00148.o
 0001:000000a0       cairo_pattern_destroy      00000001800010a0     libcairo-2:dszbs00154.o
 0001:000000a8       cairo_pattern_set_user_data 00000001800010a8     libcairo-2:dszbs00171.o
 0001:000000b0       cairo_pattern_get_user_data 00000001800010b0     libcairo-2:dszbs00166.o
 0001:000000b8       cairo_pattern_create_for_surface 00000001800010b8     libcairo-2:dszbs00147.o
 0001:000000c0       cairo_path_destroy         00000001800010c0     libcairo-2:dszbs00143.o
 0001:000000c8       cairo_in_fill              00000001800010c8     libcairo-2:dszbs00109.o
 0001:000000d0       cairo_set_operator         00000001800010d0     libcairo-2:dszbs00283.o
 0001:000000d8       cairo_pattern_get_linear_points 00000001800010d8     libcairo-2:dszbs00159.o
 0001:000000e0       cairo_surface_mark_dirty_rectangle 00000001800010e0     libcairo-2:dszbs00321.o
 0001:000000e8       cairo_save                 00000001800010e8     libcairo-2:dszbs00243.o
 0001:000000f0       cairo_get_matrix           00000001800010f0     libcairo-2:dszbs00084.o
 0001:000000f8       cairo_arc_negative         00000001800010f8     libcairo-2:dszbs00002.o
 0001:00000100       cairo_stroke_preserve      0000000180001100     libcairo-2:dszbs00299.o
 0001:00000108       cairo_rectangle            0000000180001108     libcairo-2:dszbs00211.o
 0001:00000110       cairo_set_line_join        0000000180001110     libcairo-2:dszbs00279.o
 0001:00000118       cairo_pattern_get_filter   0000000180001118     libcairo-2:dszbs00158.o
 0001:00000120       cairo_set_source_surface   0000000180001120     libcairo-2:dszbs00288.o
 0001:00000128       cairo_status               0000000180001128     libcairo-2:dszbs00295.o
 0001:00000130       cairo_fill                 0000000180001130     libcairo-2:dszbs00035.o
 0001:00000138       cairo_set_line_cap         0000000180001138     libcairo-2:dszbs00278.o
 0001:00000140       cairo_get_source           0000000180001140     libcairo-2:dszbs00089.o
 0001:00000148       cairo_mask_surface         0000000180001148     libcairo-2:dszbs00113.o
 0001:00000150       cairo_pattern_set_filter   0000000180001150     libcairo-2:dszbs00169.o
 0001:00000158       cairo_fill_extents         0000000180001158     libcairo-2:dszbs00036.o
 0001:00000160       cairo_show_page            0000000180001160     libcairo-2:dszbs00292.o
 0001:00000168       cairo_restore              0000000180001168     libcairo-2:dszbs00241.o
 0001:00000170       cairo_line_to              0000000180001170     libcairo-2:dszbs00111.o
 0001:00000178       cairo_set_fill_rule        0000000180001178     libcairo-2:dszbs00273.o
 0001:00000180       cairo_paint                0000000180001180     libcairo-2:dszbs00141.o
 0001:00000188       cairo_push_group           0000000180001188     libcairo-2:dszbs00196.o
 0001:00000190       cairo_stroke               0000000180001190     libcairo-2:dszbs00297.o
 0001:00000198       cairo_move_to              0000000180001198     libcairo-2:dszbs00138.o
 0001:000001a0       cairo_get_line_cap         00000001800011a0     libcairo-2:dszbs00081.o
 0001:000001a8       cairo_pattern_set_extend   00000001800011a8     libcairo-2:dszbs00168.o
 0001:000001b0       cairo_get_operator         00000001800011b0     libcairo-2:dszbs00086.o
 0001:000001b8       cairo_clip                 00000001800011b8     libcairo-2:dszbs00003.o
 0001:000001c0       cairo_get_antialias        00000001800011c0     libcairo-2:dszbs00072.o
 0001:000001c8       cairo_set_source_rgba      00000001800011c8     libcairo-2:dszbs00287.o
 0001:000001d0       cairo_copy_path_flat       00000001800011d0     libcairo-2:dszbs00010.o
 0001:000001d8       cairo_set_source           00000001800011d8     libcairo-2:dszbs00285.o
 0001:000001e0       cairo_scale                00000001800011e0     libcairo-2:dszbs00244.o
 0001:000001e8       cairo_user_to_device_distance 00000001800011e8     libcairo-2:dszbs00376.o
 0001:000001f0       cairo_pattern_get_color_stop_count 00000001800011f0     libcairo-2:dszbs00155.o
 0001:000001f8       cairo_set_matrix           00000001800011f8     libcairo-2:dszbs00281.o
 0001:00000200       cairo_surface_mark_dirty   0000000180001200     libcairo-2:dszbs00320.o
 0001:00000208       cairo_fill_preserve        0000000180001208     libcairo-2:dszbs00037.o
 0001:00000210       cairo_pattern_get_surface  0000000180001210     libcairo-2:dszbs00164.o
 0001:00000218       cairo_rotate               0000000180001218     libcairo-2:dszbs00242.o
 0001:00000220       cairo_stroke_extents       0000000180001220     libcairo-2:dszbs00298.o
 0001:00000228       cairo_matrix_init          0000000180001228     libcairo-2:dszbs00114.o
 0001:00000230       cairo_pop_group_to_source  0000000180001230     libcairo-2:dszbs00184.o
 0001:00000238       cairo_get_dash             0000000180001238     libcairo-2:dszbs00074.o
 0001:00000240       cairo_get_miter_limit      0000000180001240     libcairo-2:dszbs00085.o
 0001:00000248       cairo_pattern_get_color_stop_rgba 0000000180001248     libcairo-2:dszbs00156.o
 0001:00000250       cairo_append_path          0000000180001250     libcairo-2:dszbs00000.o
 0001:00000258       cairo_new_path             0000000180001258     libcairo-2:dszbs00139.o
 0001:00000260       cairo_identity_matrix      0000000180001260     libcairo-2:dszbs00098.o
 0001:00000268       cairo_get_line_join        0000000180001268     libcairo-2:dszbs00082.o
 0001:00000270       cairo_in_stroke            0000000180001270     libcairo-2:dszbs00110.o
 0001:00000278       cairo_paint_with_alpha     0000000180001278     libcairo-2:dszbs00142.o
 0001:00000280       cairo_set_antialias        0000000180001280     libcairo-2:dszbs00271.o
 0001:00000288       cairo_get_dash_count       0000000180001288     libcairo-2:dszbs00075.o
 0001:00000290       cairo_set_dash             0000000180001290     libcairo-2:dszbs00272.o
 0001:00000298       cairo_transform            0000000180001298     libcairo-2:dszbs00364.o
 0001:000002a0       cairo_close_path           00000001800012a0     libcairo-2:dszbs00006.o
 0001:000002a8       cairo_arc                  00000001800012a8     libcairo-2:dszbs00001.o
 0001:000002b0       cairo_get_line_width       00000001800012b0     libcairo-2:dszbs00083.o
 0001:000002b8       cairo_pattern_get_type     00000001800012b8     libcairo-2:dszbs00165.o
 0001:000002c0       cairo_clip_preserve        00000001800012c0     libcairo-2:dszbs00005.o
 0001:000002c8       cairo_set_miter_limit      00000001800012c8     libcairo-2:dszbs00282.o
 0001:000002d0       cairo_get_current_point    00000001800012d0     libcairo-2:dszbs00073.o
 0001:000002d8       cairo_translate            00000001800012d8     libcairo-2:dszbs00365.o
 0001:000002e0       cairo_pattern_get_radial_circles 00000001800012e0     libcairo-2:dszbs00161.o
 0001:000002e8       cairo_curve_to             00000001800012e8     libcairo-2:dszbs00012.o
 0001:000002f0       cairo_format_stride_for_width 00000001800012f0     libcairo-2:dszbs00063.o
 0001:000002f8       cairo_image_surface_create_from_png 00000001800012f8     libcairo-2:dszbs00101.o
 0001:00000300       cairo_image_surface_create_from_png_stream 0000000180001300     libcairo-2:dszbs00102.o
 0001:00000308       cairo_image_surface_create_for_data 0000000180001308     libcairo-2:dszbs00100.o
 0001:00000310       cairo_surface_set_mime_data 0000000180001310     libcairo-2:dszbs00335.o
 0001:00000318       cairo_version_string       0000000180001318     libcairo-2:dszbs00378.o
 0001:00000320       png_destroy_write_struct   0000000180001320     libpng16-16:dqus00019.o
 0001:00000328       png_set_bKGD               0000000180001328     libpng16-16:dqus00155.o
 0001:00000330       png_set_write_user_transform_fn 0000000180001330     libpng16-16:dqus00247.o
 0001:00000338       png_set_tRNS               0000000180001338     libpng16-16:dqus00233.o
 0001:00000340       png_set_pHYs               0000000180001340     libpng16-16:dqus00204.o
 0001:00000348       png_set_longjmp_fn         0000000180001348     libpng16-16:dqus00198.o
 0001:00000350       png_malloc                 0000000180001350     libpng16-16:dqus00129.o
 0001:00000358       png_get_io_ptr             0000000180001358     libpng16-16:dqus00058.o
 0001:00000360       png_write_info             0000000180001360     libpng16-16:dqus00260.o
 0001:00000368       png_set_packswap           0000000180001368     libpng16-16:dqus00206.o
 0001:00000370       png_write_image            0000000180001370     libpng16-16:dqus00259.o
 0001:00000378       png_get_error_ptr          0000000180001378     libpng16-16:dqus00044.o
 0001:00000380       png_set_packing            0000000180001380     libpng16-16:dqus00205.o
 0001:00000388       png_set_PLTE               0000000180001388     libpng16-16:dqus00150.o
 0001:00000390       png_set_filter             0000000180001390     libpng16-16:dqus00181.o
 0001:00000398       png_data_freer             0000000180001398     libpng16-16:dqus00016.o
 0001:000003a0       png_set_compression_level  00000001800013a0     libpng16-16:dqus00168.o
 0001:000003a8       png_set_IHDR               00000001800013a8     libpng16-16:dqus00149.o
 0001:000003b0       png_set_write_fn           00000001800013b0     libpng16-16:dqus00245.o
 0001:000003b8       png_create_info_struct     00000001800013b8     libpng16-16:dqus00011.o
 0001:000003c0       png_set_filler             00000001800013c0     libpng16-16:dqus00180.o
 0001:000003c8       png_write_end              00000001800013c8     libpng16-16:dqus00255.o
 0001:000003d0       png_error                  00000001800013d0     libpng16-16:dqus00020.o
 0001:000003d8       png_create_write_struct_2  00000001800013d8     libpng16-16:dqus00015.o
 0001:000003e0       jpeg_simple_progression    00000001800013e0     libjpeg-8:dmags00091.o
 0001:000003e8       jpeg_mem_dest              00000001800013e8     libjpeg-8:dmags00072.o
 0001:000003f0       jpeg_set_quality           00000001800013f0     libjpeg-8:dmags00090.o
 0001:000003f8       jpeg_CreateCompress        00000001800013f8     libjpeg-8:dmags00029.o
 0001:00000400       jpeg_std_error             0000000180001400     libjpeg-8:dmags00096.o
 0001:00000408       jpeg_destroy_compress      0000000180001408     libjpeg-8:dmags00046.o
 0001:00000410       jpeg_set_defaults          0000000180001410     libjpeg-8:dmags00087.o
 0001:00000418       jpeg_finish_compress       0000000180001418     libjpeg-8:dmags00052.o
 0001:00000420       jpeg_write_scanlines       0000000180001420     libjpeg-8:dmags00106.o
 0001:00000428       jpeg_start_compress        0000000180001428     libjpeg-8:dmags00093.o
 0001:00000430       jpeg_CreateDecompress      0000000180001430     libjpeg-8:dmags00030.o
 0001:00000438       jpeg_destroy_decompress    0000000180001438     libjpeg-8:dmags00047.o
 0001:00000440       jpeg_read_header           0000000180001440     libjpeg-8:dmags00080.o
 0001:00000448       jpeg_start_decompress      0000000180001448     libjpeg-8:dmags00094.o
 0001:00000450       jpeg_stdio_src             0000000180001450     libjpeg-8:dmags00098.o
 0001:00000458       jpeg_finish_decompress     0000000180001458     libjpeg-8:dmags00053.o
 0001:00000460       jpeg_abort_decompress      0000000180001460     libjpeg-8:dmags00033.o
 0001:00000468       jpeg_mem_src               0000000180001468     libjpeg-8:dmags00074.o
 0001:00000470       jpeg_read_scanlines        0000000180001470     libjpeg-8:dmags00083.o
 0001:00000480       pango_font_description_better_match 0000000180001480     libpango-1.0-0:dwles00107.o
 0001:00000488       pango_font_description_set_style 0000000180001488     libpango-1.0-0:dwles00134.o
 0001:00000490       pango_font_description_set_weight 0000000180001490     libpango-1.0-0:dwles00138.o
 0001:00000498       pango_font_description_equal 0000000180001498     libpango-1.0-0:dwles00110.o
 0001:000004a0       pango_font_description_new 00000001800014a0     libpango-1.0-0:dwles00127.o
 0001:000004a8       pango_font_description_free 00000001800014a8     libpango-1.0-0:dwles00111.o
 0001:000004b0       pango_font_description_get_family 00000001800014b0     libpango-1.0-0:dwles00113.o
 0001:000004b8       pango_font_description_set_family 00000001800014b8     libpango-1.0-0:dwles00129.o
 0001:000004c0       pango_font_description_set_family_static 00000001800014c0     libpango-1.0-0:dwles00130.o
 0001:000004c8       pango_font_description_copy 00000001800014c8     libpango-1.0-0:dwles00108.o
 0001:000004d0       pango_layout_get_font_description 00000001800014d0     libpango-1.0-0:dwles00249.o
 0001:000004d8       pango_context_get_metrics  00000001800014d8     libpango-1.0-0:dwles00071.o
 0001:000004e0       pango_layout_set_font_description 00000001800014e0     libpango-1.0-0:dwles00312.o
 0001:000004e8       pango_layout_get_context   00000001800014e8     libpango-1.0-0:dwles00245.o
 0001:000004f0       pango_layout_get_extents   00000001800014f0     libpango-1.0-0:dwles00248.o
 0001:000004f8       pango_layout_line_get_extents 00000001800014f8     libpango-1.0-0:dwles00298.o
 0001:00000500       pango_font_description_from_string 0000000180001500     libpango-1.0-0:dwles00112.o
 0001:00000508       pango_layout_get_pixel_extents 0000000180001508     libpango-1.0-0:dwles00261.o
 0001:00000510       pango_font_description_set_absolute_size 0000000180001510     libpango-1.0-0:dwles00128.o
 0001:00000518       pango_context_get_language 0000000180001518     libpango-1.0-0:dwles00069.o
 0001:00000520       pango_font_metrics_unref   0000000180001520     libpango-1.0-0:dwles00178.o
 0001:00000528       pango_layout_get_baseline  0000000180001528     libpango-1.0-0:dwles00243.o
 0001:00000530       pango_layout_set_text      0000000180001530     libpango-1.0-0:dwles00321.o
 0001:00000538       pango_layout_get_line      0000000180001538     libpango-1.0-0:dwles00254.o
 0001:00000540       pango_font_metrics_get_ascent 0000000180001540     libpango-1.0-0:dwles00169.o
 0001:00000548       pango_font_description_set_stretch 0000000180001548     libpango-1.0-0:dwles00133.o
 0001:00000550       pango_cairo_show_layout    0000000180001550     libpangocairo-1.0-0:dohds00029.o
 0001:00000558       pango_cairo_update_layout  0000000180001558     libpangocairo-1.0-0:dohds00032.o
 0001:00000560       pango_cairo_layout_path    0000000180001560     libpangocairo-1.0-0:dohds00024.o
 0001:00000568       pango_cairo_create_layout  0000000180001568     libpangocairo-1.0-0:dohds00007.o
 0001:00000570       pango_cairo_font_map_set_default 0000000180001570     libpangocairo-1.0-0:dohds00020.o
 0001:00000580       g_object_unref             0000000180001580     libgobject-2.0-0:dgdes00160.o
 0001:00000590       g_string_free              0000000180001590     libglib-2.0-0:dwtds01255.o
 0001:00000598       g_string_new               0000000180001598     libglib-2.0-0:dwtds01262.o
 0001:000005a0       g_hash_table_destroy       00000001800015a0     libglib-2.0-0:dwtds00441.o
 0001:000005a8       g_string_append            00000001800015a8     libglib-2.0-0:dwtds01236.o
 0001:000005b0       g_str_hash                 00000001800015b0     libglib-2.0-0:dwtds01215.o
 0001:000005b8       g_ascii_strcasecmp         00000001800015b8     libglib-2.0-0:dwtds00025.o
 0001:000005c0       g_strsplit                 00000001800015c0     libglib-2.0-0:dwtds01288.o
 0001:000005c8       g_free                     00000001800015c8     libglib-2.0-0:dwtds00408.o
 0001:000005d0       g_hash_table_replace       00000001800015d0     libglib-2.0-0:dwtds00463.o
 0001:000005d8       g_strfreev                 00000001800015d8     libglib-2.0-0:dwtds01235.o
 0001:000005e0       g_str_equal                00000001800015e0     libglib-2.0-0:dwtds01212.o
 0001:000005e8       g_hash_table_lookup        00000001800015e8     libglib-2.0-0:dwtds00456.o
 0001:000005f0       g_strdup                   00000001800015f0     libglib-2.0-0:dwtds01229.o
 0001:000005f8       g_hash_table_new           00000001800015f8     libglib-2.0-0:dwtds00458.o
 0001:00000600       g_list_foreach             0000000180001600     libglib-2.0-0:dwtds00624.o
 0001:00000608       g_list_first               0000000180001608     libglib-2.0-0:dwtds00623.o
 0001:00000610       g_iconv_open               0000000180001610     libglib-2.0-0:dwtds00506.o
 0001:00000618       g_iconv                    0000000180001618     libglib-2.0-0:dwtds00504.o
 0001:00000620       g_list_insert_sorted       0000000180001620     libglib-2.0-0:dwtds00631.o
 0001:00000628       g_list_free                0000000180001628     libglib-2.0-0:dwtds00625.o
 0001:00000630       DGifOpen                   0000000180001630     libgif-7:dkjbs00012.o
 0001:00000638       DGifSlurp                  0000000180001638     libgif-7:dkjbs00016.o
 0001:00000640       DGifCloseFile              0000000180001640     libgif-7:dkjbs00000.o
 0001:00000650       FT_Get_Sfnt_Table          0000000180001650     libfreetype-6:dwrbs00083.o
 0001:00000658       FT_New_Face                0000000180001658     libfreetype-6:dwrbs00121.o
 0001:00000660       FT_Done_FreeType           0000000180001660     libfreetype-6:dwrbs00034.o
 0001:00000668       FT_Done_Face               0000000180001668     libfreetype-6:dwrbs00033.o
 0001:00000670       FT_Get_Sfnt_Name_Count     0000000180001670     libfreetype-6:dwrbs00082.o
 0001:00000678       FT_Init_FreeType           0000000180001678     libfreetype-6:dwrbs00103.o
 0001:00000680       FT_Get_Sfnt_Name           0000000180001680     libfreetype-6:dwrbs00081.o
 0001:00000690       rsvg_handle_render_cairo   0000000180001690     librsvg-2-2:duces00084.o
 0001:00000698       rsvg_handle_new_from_data  0000000180001698     librsvg-2-2:duces00078.o
 0001:000006a0       rsvg_handle_get_dimensions 00000001800016a0     librsvg-2-2:duces00067.o
 0001:000022a0       ??1ObjectWrap@Nan@@UEAA@XZ 00000001800032a0 f i Backend.obj
 0001:00002320       ?Wrap@ObjectWrap@Nan@@IEAAXV?$Local@VObject@v8@@@v8@@@Z 0000000180003320 f i Backend.obj
 0001:00002400       ?Ref@ObjectWrap@Nan@@MEAAXXZ 0000000180003400 f i Backend.obj
 0001:00002440       ?Unref@ObjectWrap@Nan@@MEAAXXZ 0000000180003440 f i Backend.obj
 0001:000024f0       ?WeakCallback@ObjectWrap@Nan@@CAXAEBV?$WeakCallbackInfo@VObjectWrap@Nan@@@v8@@@Z 00000001800034f0 f i Backend.obj
 0001:00002580       ??_EObjectWrap@Nan@@UEAAPEAXI@Z 0000000180003580 f i * CIL library *:* CIL module *
 0001:00002580       ??_GObjectWrap@Nan@@UEAAPEAXI@Z 0000000180003580 f i Backend.obj
 0001:000025c0       ?getFormat@Backend@@UEAA?AW4_cairo_format@@XZ 00000001800035c0 f i Backend.obj
 0001:000025d0       ??0Backend@@IEAA@V?$basic_string@DU?$char_traits@D@std@@V?$allocator@D@2@@std@@HH@Z 00000001800035d0 f   Backend.obj
 0001:000026b0       ??_EBackend@@UEAAPEAXI@Z   00000001800036b0 f i * CIL library *:* CIL module *
 0001:000026b0       ??_GBackend@@UEAAPEAXI@Z   00000001800036b0 f i Backend.obj
 0001:000026f0       ??1Backend@@UEAA@XZ        00000001800036f0 f   Backend.obj
 0001:00002780       ?init@Backend@@KAXAEBV?$FunctionCallbackInfo@VValue@v8@@@Nan@@@Z 0000000180003780 f   Backend.obj
 0001:00002900       ?recreateSurface@Backend@@UEAAPEAU_cairo_surface@@XZ 0000000180003900 f   Backend.obj
 0001:00002930       ?getSurface@Backend@@QEAAPEAU_cairo_surface@@XZ 0000000180003930 f   Backend.obj
 0001:00002960       ?getName@Backend@@QEAA?AV?$basic_string@DU?$char_traits@D@std@@V?$allocator@D@2@@std@@XZ 0000000180003960 f   Backend.obj
 0001:00002980       ?getWidth@Backend@@QEAAHXZ 0000000180003980 f   Backend.obj
 0001:00002990       ?setWidth@Backend@@UEAAXH@Z 0000000180003990 f   Backend.obj
 0001:000029a0       ?getHeight@Backend@@QEAAHXZ 00000001800039a0 f   Backend.obj
 0001:000029b0       ?setHeight@Backend@@UEAAXH@Z 00000001800039b0 f   Backend.obj
 0001:000029c0       ??1?$basic_string@DU?$char_traits@D@std@@V?$allocator@D@2@@std@@QEAA@XZ 00000001800039c0 f i Backend.obj
 0001:000029c0       ??1?$pair@$$CBV?$basic_string@DU?$char_traits@D@std@@V?$allocator@D@2@@std@@I@std@@QEAA@XZ 00000001800039c0 f i color.obj
 0001:000029c0       ??1?$pair@$$CBV?$basic_string@DU?$char_traits@D@std@@V?$allocator@D@2@@std@@W4_cairo_operator@@@std@@QEAA@XZ 00000001800039c0 f i CanvasRenderingContext2d.obj
 0001:00002a20       ??0?$basic_string@DU?$char_traits@D@std@@V?$allocator@D@2@@std@@QEAA@AEBV01@@Z 0000000180003a20 f i Backend.obj
 0001:00002b00       ?assign@?$basic_string@DU?$char_traits@D@std@@V?$allocator@D@2@@std@@QEAAAEAV12@QEBD@Z 0000000180003b00 f i Backend.obj
 0001:00002b20       ?assign@?$basic_string@DU?$char_traits@D@std@@V?$allocator@D@2@@std@@QEAAAEAV12@QEBD_K@Z 0000000180003b20 f i Backend.obj
 0001:00002c70       ?_Xlen@?$basic_string@DU?$char_traits@D@std@@V?$allocator@D@2@@std@@SAXXZ 0000000180003c70 f i Backend.obj
 0001:00002d70       ?New@?$Factory@VFunctionTemplate@v8@@@imp@Nan@@SA?AV?$Local@VFunctionTemplate@v8@@@v8@@P6AXAEBV?$FunctionCallbackInfo@VValue@v8@@@3@@ZV?$Local@VValue@v8@@@5@V?$Local@VSignature@v8@@@5@@Z 0000000180003d70 f i ImageBackend.obj
 0001:00002f40       ?AdjustExternalMemory@Nan@@YAHH@Z 0000000180003f40 f i ImageBackend.obj
 0001:00002fc0       ??1HandleScope@Nan@@QEAA@XZ 0000000180003fc0 f i ImageBackend.obj
 0001:00002fc0       ??1EscapableHandleScope@Nan@@QEAA@XZ 0000000180003fc0 f i Canvas.obj
 0001:00002fd0       ??0ImageBackend@@QEAA@HH@Z 0000000180003fd0 f   ImageBackend.obj
 0001:00003050       ??_GImageBackend@@UEAAPEAXI@Z 0000000180004050 f i ImageBackend.obj
 0001:00003050       ??_EImageBackend@@UEAAPEAXI@Z 0000000180004050 f i * CIL library *:* CIL module *
 0001:000030f0       ?createSurface@ImageBackend@@EEAAPEAU_cairo_surface@@XZ 00000001800040f0 f   ImageBackend.obj
 0001:00003190       ?recreateSurface@ImageBackend@@EEAAPEAU_cairo_surface@@XZ 0000000180004190 f   ImageBackend.obj
 0001:00003230       ?getFormat@ImageBackend@@UEAA?AW4_cairo_format@@XZ 0000000180004230 f   ImageBackend.obj
 0001:00003240       ?New@ImageBackend@@SAXAEBV?$FunctionCallbackInfo@VValue@v8@@@Nan@@@Z 0000000180004240 f   ImageBackend.obj
 0001:00003240       ?New@PdfBackend@@SAXAEBV?$FunctionCallbackInfo@VValue@v8@@@Nan@@@Z 0000000180004240 f   PdfBackend.obj
 0001:00003240       ?New@SvgBackend@@SAXAEBV?$FunctionCallbackInfo@VValue@v8@@@Nan@@@Z 0000000180004240 f   SvgBackend.obj
 0001:00003250       ?backend@Canvas@@QEAAPEAVBackend@@XZ 0000000180004250 f i PdfBackend.obj
 0001:00003260       ?surface@Canvas@@QEAAPEAU_cairo_surface@@XZ 0000000180004260 f i PdfBackend.obj
 0001:00003290       ?data@Canvas@@QEAAPEAEXZ   0000000180004290 f i PdfBackend.obj
 0001:000032c0       ?stride@Canvas@@QEAAHXZ    00000001800042c0 f i PdfBackend.obj
 0001:000032f0       ?nBytes@Canvas@@QEAAHXZ    00000001800042f0 f i PdfBackend.obj
 0001:00003330       ?getWidth@Canvas@@QEAAHXZ  0000000180004330 f i PdfBackend.obj
 0001:00003340       ?getHeight@Canvas@@QEAAHXZ 0000000180004340 f i PdfBackend.obj
 0001:00003350       ??0PdfBackend@@QEAA@HH@Z   0000000180004350 f   PdfBackend.obj
 0001:00003420       ??_GPdfBackend@@UEAAPEAXI@Z 0000000180004420 f i PdfBackend.obj
 0001:00003420       ??_EPdfBackend@@UEAAPEAXI@Z 0000000180004420 f i * CIL library *:* CIL module *
 0001:000034d0       ?createSurface@PdfBackend@@EEAAPEAU_cairo_surface@@XZ 00000001800044d0 f   PdfBackend.obj
 0001:00003540       ?recreateSurface@PdfBackend@@EEAAPEAU_cairo_surface@@XZ 0000000180004540 f   PdfBackend.obj
 0001:00003570       ??0SvgBackend@@QEAA@HH@Z   0000000180004570 f   SvgBackend.obj
 0001:00003640       ??_GSvgBackend@@UEAAPEAXI@Z 0000000180004640 f i SvgBackend.obj
 0001:00003640       ??_ESvgBackend@@UEAAPEAXI@Z 0000000180004640 f i * CIL library *:* CIL module *
 0001:000036f0       ?createSurface@SvgBackend@@EEAAPEAU_cairo_surface@@XZ 00000001800046f0 f   SvgBackend.obj
 0001:00003760       ?recreateSurface@SvgBackend@@EEAAPEAU_cairo_surface@@XZ 0000000180004760 f   SvgBackend.obj
 0001:000037d0       ?Initialize@Backends@@SAXV?$Local@VObject@v8@@@v8@@@Z 00000001800047d0 f   Backends.obj
 0001:00003de0       ??1AsyncResource@Nan@@QEAA@XZ 0000000180004de0 f i Canvas.obj
 0001:00003e20       ?ThrowError@Nan@@YAXPEBD@Z 0000000180004e20 f i Canvas.obj
 0001:00003ec0       ?ThrowTypeError@Nan@@YAXPEBD@Z 0000000180004ec0 f i Canvas.obj
 0001:00003f60       ??0Utf8String@Nan@@QEAA@V?$Local@VValue@v8@@@v8@@@Z 0000000180004f60 f i Canvas.obj
 0001:000040a0       ??1Utf8String@Nan@@QEAA@XZ 00000001800050a0 f i Canvas.obj
 0001:000040c0       ?SetPrototypeMethod@Nan@@YAXV?$Local@VFunctionTemplate@v8@@@v8@@PEBDP6AXAEBV?$FunctionCallbackInfo@VValue@v8@@@1@@Z@Z 00000001800050c0 f i Canvas.obj
 0001:000041b0       ?SetProtoAccessor@@YAXV?$Local@VObjectTemplate@v8@@@v8@@V?$Local@VString@v8@@@2@P6AX1AEBV?$PropertyCallbackInfo@VValue@v8@@@Nan@@@ZP6AX1V?$Local@VValue@v8@@@2@AEBV?$PropertyCallbackInfo@X@5@@ZV?$Local@VFunctionTemplate@v8@@@2@@Z 00000001800051b0 f i Canvas.obj
 0001:00004380       ??1JpegClosure@@QEAA@XZ    0000000180005380 f i Canvas.obj
 0001:00004390       _guard_check_icall_nop     0000000180005390 f   LIBCMT:guard_support.obj
 0001:00004390       ?init_closure_destination@@YAXPEAUjpeg_compress_struct@@@Z 0000000180005390 f   Canvas.obj
 0001:00004390       ?stream_pdf_free@@YAXPEADPEAX@Z 0000000180005390 f   Canvas.obj
 0001:00004540       ?setjmp_wrapper@@YA_NPEAUpng_struct_def@@@Z 0000000180005540 f   Canvas.obj
 0001:00004a40       ?empty_closure_output_buffer@@YAEPEAUjpeg_compress_struct@@@Z 0000000180005a40 f   Canvas.obj
 0001:00004c70       ?term_closure_destination@@YAXPEAUjpeg_compress_struct@@@Z 0000000180005c70 f   Canvas.obj
 0001:00004f00       ?encode_jpeg@@YAXUjpeg_compress_struct@@PEAU_cairo_surface@@H_NHH@Z 0000000180005f00 f   Canvas.obj
 0001:000050f0       ?write_to_jpeg_buffer@@YAXPEAU_cairo_surface@@PEAUJpegClosure@@PEAPEAEPEAI@Z 00000001800060f0 f   Canvas.obj
 0001:00005240       ?Initialize@Canvas@@SAXV?$Local@VObject@v8@@@v8@@@Z 0000000180006240 f   Canvas.obj
 0001:00005c20       ?New@Canvas@@SAXAEBV?$FunctionCallbackInfo@VValue@v8@@@Nan@@@Z 0000000180006c20 f   Canvas.obj
 0001:00006290       ?GetType@Canvas@@SAXV?$Local@VString@v8@@@v8@@AEBV?$PropertyCallbackInfo@VValue@v8@@@Nan@@@Z 0000000180007290 f   Canvas.obj
 0001:00006320       ?GetStride@Canvas@@SAXV?$Local@VString@v8@@@v8@@AEBV?$PropertyCallbackInfo@VValue@v8@@@Nan@@@Z 0000000180007320 f   Canvas.obj
 0001:000063b0       ?GetWidth@Canvas@@SAXV?$Local@VString@v8@@@v8@@AEBV?$PropertyCallbackInfo@VValue@v8@@@Nan@@@Z 00000001800073b0 f   Canvas.obj
 0001:00006430       ?SetWidth@Canvas@@SAXV?$Local@VString@v8@@@v8@@V?$Local@VValue@v8@@@3@AEBV?$PropertyCallbackInfo@X@Nan@@@Z 0000000180007430 f   Canvas.obj
 0001:00006500       ?GetHeight@Canvas@@SAXV?$Local@VString@v8@@@v8@@AEBV?$PropertyCallbackInfo@VValue@v8@@@Nan@@@Z 0000000180007500 f   Canvas.obj
 0001:00006580       ?SetHeight@Canvas@@SAXV?$Local@VString@v8@@@v8@@V?$Local@VValue@v8@@@3@AEBV?$PropertyCallbackInfo@X@Nan@@@Z 0000000180007580 f   Canvas.obj
 0001:00006650       ?ToPngBufferAsync@Canvas@@SAXPEAUuv_work_s@@@Z 0000000180007650 f   Canvas.obj
 0001:000066e0       ?ToJpegBufferAsync@Canvas@@SAXPEAUuv_work_s@@@Z 00000001800076e0 f   Canvas.obj
 0001:00006730       ?ToBufferAsyncAfter@Canvas@@SAXPEAUuv_work_s@@@Z 0000000180007730 f   Canvas.obj
 0001:000071a0       ?ToBuffer@Canvas@@SAXAEBV?$FunctionCallbackInfo@VValue@v8@@@Nan@@@Z 00000001800081a0 f   Canvas.obj
 0001:00008000       ??1TryCatch@Nan@@QEAA@XZ   0000000180009000 f i Canvas.obj
 0001:00008240       ?StreamPNGSync@Canvas@@SAXAEBV?$FunctionCallbackInfo@VValue@v8@@@Nan@@@Z 0000000180009240 f   Canvas.obj
 0001:000088a0       ?StreamPDFSync@Canvas@@SAXAEBV?$FunctionCallbackInfo@VValue@v8@@@Nan@@@Z 00000001800098a0 f   Canvas.obj
 0001:00008c10       ?StreamJPEGSync@Canvas@@SAXAEBV?$FunctionCallbackInfo@VValue@v8@@@Nan@@@Z 0000000180009c10 f   Canvas.obj
 0001:00008f20       ?str_value@@YAPEADV?$Local@VValue@v8@@@v8@@PEBD_N@Z 0000000180009f20 f   Canvas.obj
 0001:00008fe0       ?RegisterFont@Canvas@@SAXAEBV?$FunctionCallbackInfo@VValue@v8@@@Nan@@@Z 0000000180009fe0 f   Canvas.obj
 0001:00009450       ??_GCanvas@@EEAAPEAXI@Z    000000018000a450 f i Canvas.obj
 0001:00009450       ??_ECanvas@@EEAAPEAXI@Z    000000018000a450 f i * CIL library *:* CIL module *
 0001:000094b0       ?GetStyleFromCSSString@Canvas@@SA?AW4PangoStyle@@PEBD@Z 000000018000a4b0 f   Canvas.obj
 0001:00009540       ?GetWeightFromCSSString@Canvas@@SA?AW4PangoWeight@@PEBD@Z 000000018000a540 f   Canvas.obj
 0001:00009750       ?ResolveFontDescription@Canvas@@SAPEAU_PangoFontDescription@@PEBU2@@Z 000000018000a750 f   Canvas.obj
 0001:00009960       ?resurface@Canvas@@QEAAXV?$Local@VObject@v8@@@v8@@@Z 000000018000a960 f   Canvas.obj
 0001:00009af0       ??0?$TypedArrayContents@E@Nan@@QEAA@V?$Local@VValue@v8@@@v8@@@Z 000000018000aaf0 f i Canvas.obj
 0001:00009bb0       ??$New@VString@v8@@V?$basic_string@DU?$char_traits@D@std@@V?$allocator@D@2@@std@@@Nan@@YA?AV?$MaybeLocal@VString@v8@@@v8@@V?$basic_string@DU?$char_traits@D@std@@V?$allocator@D@2@@std@@@Z 000000018000abb0 f i Canvas.obj
 0001:00009cb0       ??$Unwrap@VImage@@@ObjectWrap@Nan@@SAPEAVImage@@V?$Local@VObject@v8@@@v8@@@Z 000000018000acb0 f i CanvasPattern.obj
 0001:00009cb0       ??$Unwrap@VPattern@@@ObjectWrap@Nan@@SAPEAVPattern@@V?$Local@VObject@v8@@@v8@@@Z 000000018000acb0 f i CanvasRenderingContext2d.obj
 0001:00009cb0       ??$Unwrap@VContext2d@@@ObjectWrap@Nan@@SAPEAVContext2d@@V?$Local@VObject@v8@@@v8@@@Z 000000018000acb0 f i Canvas.obj
 0001:00009cb0       ??$Unwrap@VImageData@@@ObjectWrap@Nan@@SAPEAVImageData@@V?$Local@VObject@v8@@@v8@@@Z 000000018000acb0 f i CanvasRenderingContext2d.obj
 0001:00009cb0       ??$Unwrap@VCanvas@@@ObjectWrap@Nan@@SAPEAVCanvas@@V?$Local@VObject@v8@@@v8@@@Z 000000018000acb0 f i Canvas.obj
 0001:00009cb0       ??$Unwrap@VGradient@@@ObjectWrap@Nan@@SAPEAVGradient@@V?$Local@VObject@v8@@@v8@@@Z 000000018000acb0 f i CanvasGradient.obj
 0001:00009d40       ??$_Emplace_reallocate@AEBVFontFace@@@?$vector@VFontFace@@V?$allocator@VFontFace@@@std@@@std@@QEAAPEAVFontFace@@QEAV2@AEBV2@@Z 000000018000ad40 f i Canvas.obj
 0001:00009f40       ?_Xlength@?$vector@NV?$allocator@N@std@@@std@@CAXXZ 000000018000af40 f i CanvasRenderingContext2d.obj
 0001:00009f40       ?_Xlength@?$vector@VFontFace@@V?$allocator@VFontFace@@@std@@@std@@CAXXZ 000000018000af40 f i Canvas.obj
 0001:00009f60       ?Initialize@Gradient@@SAXV?$Local@VObject@v8@@@v8@@@Z 000000018000af60 f   CanvasGradient.obj
 0001:0000a1b0       ?New@Gradient@@SAXAEBV?$FunctionCallbackInfo@VValue@v8@@@Nan@@@Z 000000018000b1b0 f   CanvasGradient.obj
 0001:0000a7c0       ?AddColorStop@Gradient@@SAXAEBV?$FunctionCallbackInfo@VValue@v8@@@Nan@@@Z 000000018000b7c0 f   CanvasGradient.obj
 0001:0000aa20       ??_GGradient@@EEAAPEAXI@Z  000000018000ba20 f i CanvasGradient.obj
 0001:0000aa20       ??_EGradient@@EEAAPEAXI@Z  000000018000ba20 f i * CIL library *:* CIL module *
 0001:0000aa70       ?Initialize@Pattern@@SAXV?$Local@VObject@v8@@@v8@@@Z 000000018000ba70 f   CanvasPattern.obj
 0001:0000ac60       ?New@Pattern@@SAXAEBV?$FunctionCallbackInfo@VValue@v8@@@Nan@@@Z 000000018000bc60 f   CanvasPattern.obj
 0001:0000afd0       ??_EPattern@@EEAAPEAXI@Z   000000018000bfd0 f i * CIL library *:* CIL module *
 0001:0000afd0       ??_GPattern@@EEAAPEAXI@Z   000000018000bfd0 f i CanvasPattern.obj
 0001:0000b170       ?Initialize@Context2d@@SAXV?$Local@VObject@v8@@@v8@@@Z 000000018000c170 f   CanvasRenderingContext2d.obj
 0001:0000bde0       ??_GContext2d@@EEAAPEAXI@Z 000000018000cde0 f i CanvasRenderingContext2d.obj
 0001:0000bde0       ??_EContext2d@@EEAAPEAXI@Z 000000018000cde0 f i * CIL library *:* CIL module *
 0001:0000be80       ?create_transparent_gradient@@YAPEAU_cairo_pattern@@PEAU1@M@Z 000000018000ce80 f   CanvasRenderingContext2d.obj
 0001:0000c010       ?create_transparent_pattern@@YAPEAU_cairo_pattern@@PEAU1@M@Z 000000018000d010 f   CanvasRenderingContext2d.obj
 0001:0000c0e0       ?setFillRule@Context2d@@QEAAXV?$Local@VValue@v8@@@v8@@@Z 000000018000d0e0 f i CanvasRenderingContext2d.obj
 0001:0000c1b0       ?fill@Context2d@@QEAAX_N@Z 000000018000d1b0 f   CanvasRenderingContext2d.obj
 0001:0000c410       ?stroke@Context2d@@QEAAX_N@Z 000000018000d410 f   CanvasRenderingContext2d.obj
 0001:0000c670       ?shadow@Context2d@@QEAAXP6AXPEAU_cairo@@@Z@Z 000000018000d670 f   CanvasRenderingContext2d.obj
 0001:0000ca30       ?hasShadow@Context2d@@QEAA_NXZ 000000018000da30 f i CanvasRenderingContext2d.obj
 0001:0000ca80       ?blur@Context2d@@QEAAXPEAU_cairo_surface@@H@Z 000000018000da80 f   CanvasRenderingContext2d.obj
 0001:0000cff0       ?New@Context2d@@SAXAEBV?$FunctionCallbackInfo@VValue@v8@@@Nan@@@Z 000000018000dff0 f   CanvasRenderingContext2d.obj
 0001:0000d6f0       ?GetFormat@Context2d@@SAXV?$Local@VString@v8@@@v8@@AEBV?$PropertyCallbackInfo@VValue@v8@@@Nan@@@Z 000000018000e6f0 f   CanvasRenderingContext2d.obj
 0001:0000d950       ?AddPage@Context2d@@SAXAEBV?$FunctionCallbackInfo@VValue@v8@@@Nan@@@Z 000000018000e950 f   CanvasRenderingContext2d.obj
 0001:0000da40       ?PutImageData@Context2d@@SAXAEBV?$FunctionCallbackInfo@VValue@v8@@@Nan@@@Z 000000018000ea40 f   CanvasRenderingContext2d.obj
 0001:0000e5f0       ?GetImageData@Context2d@@SAXAEBV?$FunctionCallbackInfo@VValue@v8@@@Nan@@@Z 000000018000f5f0 f   CanvasRenderingContext2d.obj
 0001:0000f0c0       ?DrawImage@Context2d@@SAXAEBV?$FunctionCallbackInfo@VValue@v8@@@Nan@@@Z 00000001800100c0 f   CanvasRenderingContext2d.obj
 0001:0000f990       ?GetGlobalAlpha@Context2d@@SAXV?$Local@VString@v8@@@v8@@AEBV?$PropertyCallbackInfo@VValue@v8@@@Nan@@@Z 0000000180010990 f   CanvasRenderingContext2d.obj
 0001:0000fa10       ?SetGlobalAlpha@Context2d@@SAXV?$Local@VString@v8@@@v8@@V?$Local@VValue@v8@@@3@AEBV?$PropertyCallbackInfo@X@Nan@@@Z 0000000180010a10 f   CanvasRenderingContext2d.obj
 0001:0000fae0       ?GetGlobalCompositeOperation@Context2d@@SAXV?$Local@VString@v8@@@v8@@AEBV?$PropertyCallbackInfo@VValue@v8@@@Nan@@@Z 0000000180010ae0 f   CanvasRenderingContext2d.obj
 0001:0000fd30       ?SetPatternQuality@Context2d@@SAXV?$Local@VString@v8@@@v8@@V?$Local@VValue@v8@@@3@AEBV?$PropertyCallbackInfo@X@Nan@@@Z 0000000180010d30 f   CanvasRenderingContext2d.obj
 0001:0000ff00       ?GetPatternQuality@Context2d@@SAXV?$Local@VString@v8@@@v8@@AEBV?$PropertyCallbackInfo@VValue@v8@@@Nan@@@Z 0000000180010f00 f   CanvasRenderingContext2d.obj
 0001:0000ffd0       ?SetImageSmoothingEnabled@Context2d@@SAXV?$Local@VString@v8@@@v8@@V?$Local@VValue@v8@@@3@AEBV?$PropertyCallbackInfo@X@Nan@@@Z 0000000180010fd0 f   CanvasRenderingContext2d.obj
 0001:00010070       ?GetImageSmoothingEnabled@Context2d@@SAXV?$Local@VString@v8@@@v8@@AEBV?$PropertyCallbackInfo@VValue@v8@@@Nan@@@Z 0000000180011070 f   CanvasRenderingContext2d.obj
 0001:000100e0       ?SetGlobalCompositeOperation@Context2d@@SAXV?$Local@VString@v8@@@v8@@V?$Local@VValue@v8@@@3@AEBV?$PropertyCallbackInfo@X@Nan@@@Z 00000001800110e0 f   CanvasRenderingContext2d.obj
 0001:00010aa0       ??1?$map@V?$basic_string@DU?$char_traits@D@std@@V?$allocator@D@2@@std@@W4_cairo_operator@@U?$less@V?$basic_string@DU?$char_traits@D@std@@V?$allocator@D@2@@std@@@2@V?$allocator@U?$pair@$$CBV?$basic_string@DU?$char_traits@D@std@@V?$allocator@D@2@@std@@W4_cairo_operator@@@std@@@2@@std@@QEAA@XZ 0000000180011aa0 f i CanvasRenderingContext2d.obj
 0001:00010aa0       ??1?$_Tree@V?$_Tmap_traits@V?$basic_string@DU?$char_traits@D@std@@V?$allocator@D@2@@std@@W4_cairo_operator@@U?$less@V?$basic_string@DU?$char_traits@D@std@@V?$allocator@D@2@@std@@@2@V?$allocator@U?$pair@$$CBV?$basic_string@DU?$char_traits@D@std@@V?$allocator@D@2@@std@@W4_cairo_operator@@@std@@@2@$0A@@std@@@std@@QEAA@XZ 0000000180011aa0 f i CanvasRenderingContext2d.obj
 0001:00010ad0       ?GetShadowOffsetX@Context2d@@SAXV?$Local@VString@v8@@@v8@@AEBV?$PropertyCallbackInfo@VValue@v8@@@Nan@@@Z 0000000180011ad0 f   CanvasRenderingContext2d.obj
 0001:00010b50       ?SetShadowOffsetX@Context2d@@SAXV?$Local@VString@v8@@@v8@@V?$Local@VValue@v8@@@3@AEBV?$PropertyCallbackInfo@X@Nan@@@Z 0000000180011b50 f   CanvasRenderingContext2d.obj
 0001:00010c00       ?GetShadowOffsetY@Context2d@@SAXV?$Local@VString@v8@@@v8@@AEBV?$PropertyCallbackInfo@VValue@v8@@@Nan@@@Z 0000000180011c00 f   CanvasRenderingContext2d.obj
 0001:00010c80       ?SetShadowOffsetY@Context2d@@SAXV?$Local@VString@v8@@@v8@@V?$Local@VValue@v8@@@3@AEBV?$PropertyCallbackInfo@X@Nan@@@Z 0000000180011c80 f   CanvasRenderingContext2d.obj
 0001:00010d30       ?GetShadowBlur@Context2d@@SAXV?$Local@VString@v8@@@v8@@AEBV?$PropertyCallbackInfo@VValue@v8@@@Nan@@@Z 0000000180011d30 f   CanvasRenderingContext2d.obj
 0001:00010db0       ?SetShadowBlur@Context2d@@SAXV?$Local@VString@v8@@@v8@@V?$Local@VValue@v8@@@3@AEBV?$PropertyCallbackInfo@X@Nan@@@Z 0000000180011db0 f   CanvasRenderingContext2d.obj
 0001:00010e60       ?GetAntiAlias@Context2d@@SAXV?$Local@VString@v8@@@v8@@AEBV?$PropertyCallbackInfo@VValue@v8@@@Nan@@@Z 0000000180011e60 f   CanvasRenderingContext2d.obj
 0001:00010f30       ?SetAntiAlias@Context2d@@SAXV?$Local@VString@v8@@@v8@@V?$Local@VValue@v8@@@3@AEBV?$PropertyCallbackInfo@X@Nan@@@Z 0000000180011f30 f   CanvasRenderingContext2d.obj
 0001:000110e0       ?GetTextDrawingMode@Context2d@@SAXV?$Local@VString@v8@@@v8@@AEBV?$PropertyCallbackInfo@VValue@v8@@@Nan@@@Z 00000001800120e0 f   CanvasRenderingContext2d.obj
 0001:000111a0       ?SetTextDrawingMode@Context2d@@SAXV?$Local@VString@v8@@@v8@@V?$Local@VValue@v8@@@3@AEBV?$PropertyCallbackInfo@X@Nan@@@Z 00000001800121a0 f   CanvasRenderingContext2d.obj
 0001:00011310       ?GetQuality@Context2d@@SAXV?$Local@VString@v8@@@v8@@AEBV?$PropertyCallbackInfo@VValue@v8@@@Nan@@@Z 0000000180012310 f   CanvasRenderingContext2d.obj
 0001:000113f0       ?SetQuality@Context2d@@SAXV?$Local@VString@v8@@@v8@@V?$Local@VValue@v8@@@3@AEBV?$PropertyCallbackInfo@X@Nan@@@Z 00000001800123f0 f   CanvasRenderingContext2d.obj
 0001:00011580       ?GetMiterLimit@Context2d@@SAXV?$Local@VString@v8@@@v8@@AEBV?$PropertyCallbackInfo@VValue@v8@@@Nan@@@Z 0000000180012580 f   CanvasRenderingContext2d.obj
 0001:00011600       ?SetMiterLimit@Context2d@@SAXV?$Local@VString@v8@@@v8@@V?$Local@VValue@v8@@@3@AEBV?$PropertyCallbackInfo@X@Nan@@@Z 0000000180012600 f   CanvasRenderingContext2d.obj
 0001:000116c0       ?GetLineWidth@Context2d@@SAXV?$Local@VString@v8@@@v8@@AEBV?$PropertyCallbackInfo@VValue@v8@@@Nan@@@Z 00000001800126c0 f   CanvasRenderingContext2d.obj
 0001:00011740       ?SetLineWidth@Context2d@@SAXV?$Local@VString@v8@@@v8@@V?$Local@VValue@v8@@@3@AEBV?$PropertyCallbackInfo@X@Nan@@@Z 0000000180012740 f   CanvasRenderingContext2d.obj
 0001:00011800       ?GetLineJoin@Context2d@@SAXV?$Local@VString@v8@@@v8@@AEBV?$PropertyCallbackInfo@VValue@v8@@@Nan@@@Z 0000000180012800 f   CanvasRenderingContext2d.obj
 0001:000118c0       ?SetLineJoin@Context2d@@SAXV?$Local@VString@v8@@@v8@@V?$Local@VValue@v8@@@3@AEBV?$PropertyCallbackInfo@X@Nan@@@Z 00000001800128c0 f   CanvasRenderingContext2d.obj
 0001:00011a10       ?GetLineCap@Context2d@@SAXV?$Local@VString@v8@@@v8@@AEBV?$PropertyCallbackInfo@VValue@v8@@@Nan@@@Z 0000000180012a10 f   CanvasRenderingContext2d.obj
 0001:00011ad0       ?SetLineCap@Context2d@@SAXV?$Local@VString@v8@@@v8@@V?$Local@VValue@v8@@@3@AEBV?$PropertyCallbackInfo@X@Nan@@@Z 0000000180012ad0 f   CanvasRenderingContext2d.obj
 0001:00011c20       ?IsPointInPath@Context2d@@SAXAEBV?$FunctionCallbackInfo@VValue@v8@@@Nan@@@Z 0000000180012c20 f   CanvasRenderingContext2d.obj
 0001:00011e70       ?SetFillPattern@Context2d@@SAXAEBV?$FunctionCallbackInfo@VValue@v8@@@Nan@@@Z 0000000180012e70 f   CanvasRenderingContext2d.obj
 0001:00012020       ?SetStrokePattern@Context2d@@SAXAEBV?$FunctionCallbackInfo@VValue@v8@@@Nan@@@Z 0000000180013020 f   CanvasRenderingContext2d.obj
 0001:000121d0       ?SetShadowColor@Context2d@@SAXV?$Local@VString@v8@@@v8@@V?$Local@VValue@v8@@@3@AEBV?$PropertyCallbackInfo@X@Nan@@@Z 00000001800131d0 f   CanvasRenderingContext2d.obj
 0001:00012350       ?GetShadowColor@Context2d@@SAXV?$Local@VString@v8@@@v8@@AEBV?$PropertyCallbackInfo@VValue@v8@@@Nan@@@Z 0000000180013350 f   CanvasRenderingContext2d.obj
 0001:00012520       ?SetFillColor@Context2d@@SAXAEBV?$FunctionCallbackInfo@VValue@v8@@@Nan@@@Z 0000000180013520 f   CanvasRenderingContext2d.obj
 0001:000126a0       ?GetFillColor@Context2d@@SAXV?$Local@VString@v8@@@v8@@AEBV?$PropertyCallbackInfo@VValue@v8@@@Nan@@@Z 00000001800136a0 f   CanvasRenderingContext2d.obj
 0001:00012870       ?SetStrokeColor@Context2d@@SAXAEBV?$FunctionCallbackInfo@VValue@v8@@@Nan@@@Z 0000000180013870 f   CanvasRenderingContext2d.obj
 0001:000129f0       ?GetStrokeColor@Context2d@@SAXV?$Local@VString@v8@@@v8@@AEBV?$PropertyCallbackInfo@VValue@v8@@@Nan@@@Z 00000001800139f0 f   CanvasRenderingContext2d.obj
 0001:00012bc0       ?BezierCurveTo@Context2d@@SAXAEBV?$FunctionCallbackInfo@VValue@v8@@@Nan@@@Z 0000000180013bc0 f   CanvasRenderingContext2d.obj
 0001:00012c50       ?QuadraticCurveTo@Context2d@@SAXAEBV?$FunctionCallbackInfo@VValue@v8@@@Nan@@@Z 0000000180013c50 f   CanvasRenderingContext2d.obj
 0001:00012db0       ?Save@Context2d@@SAXAEBV?$FunctionCallbackInfo@VValue@v8@@@Nan@@@Z 0000000180013db0 f   CanvasRenderingContext2d.obj
 0001:00012ed0       ?Restore@Context2d@@SAXAEBV?$FunctionCallbackInfo@VValue@v8@@@Nan@@@Z 0000000180013ed0 f   CanvasRenderingContext2d.obj
 0001:00012f70       ?BeginPath@Context2d@@SAXAEBV?$FunctionCallbackInfo@VValue@v8@@@Nan@@@Z 0000000180013f70 f   CanvasRenderingContext2d.obj
 0001:00012fa0       ?ClosePath@Context2d@@SAXAEBV?$FunctionCallbackInfo@VValue@v8@@@Nan@@@Z 0000000180013fa0 f   CanvasRenderingContext2d.obj
 0001:00012fd0       ?Rotate@Context2d@@SAXAEBV?$FunctionCallbackInfo@VValue@v8@@@Nan@@@Z 0000000180013fd0 f   CanvasRenderingContext2d.obj
 0001:00013020       ?Transform@Context2d@@SAXAEBV?$FunctionCallbackInfo@VValue@v8@@@Nan@@@Z 0000000180014020 f   CanvasRenderingContext2d.obj
 0001:000130d0       ?ResetTransform@Context2d@@SAXAEBV?$FunctionCallbackInfo@VValue@v8@@@Nan@@@Z 00000001800140d0 f   CanvasRenderingContext2d.obj
 0001:00013100       ?GetMatrix@Context2d@@SAXAEBV?$FunctionCallbackInfo@VValue@v8@@@Nan@@@Z 0000000180014100 f   CanvasRenderingContext2d.obj
 0001:00013270       ?Translate@Context2d@@SAXAEBV?$FunctionCallbackInfo@VValue@v8@@@Nan@@@Z 0000000180014270 f   CanvasRenderingContext2d.obj
 0001:000132d0       ?Scale@Context2d@@SAXAEBV?$FunctionCallbackInfo@VValue@v8@@@Nan@@@Z 00000001800142d0 f   CanvasRenderingContext2d.obj
 0001:00013330       ?Clip@Context2d@@SAXAEBV?$FunctionCallbackInfo@VValue@v8@@@Nan@@@Z 0000000180014330 f   CanvasRenderingContext2d.obj
 0001:00013390       ?Fill@Context2d@@SAXAEBV?$FunctionCallbackInfo@VValue@v8@@@Nan@@@Z 0000000180014390 f   CanvasRenderingContext2d.obj
 0001:000133f0       ?Stroke@Context2d@@SAXAEBV?$FunctionCallbackInfo@VValue@v8@@@Nan@@@Z 00000001800143f0 f   CanvasRenderingContext2d.obj
 0001:00013420       ?paintText@@YAXAEBV?$FunctionCallbackInfo@VValue@v8@@@Nan@@_N@Z 0000000180014420 f   CanvasRenderingContext2d.obj
 0001:000136e0       ?FillText@Context2d@@SAXAEBV?$FunctionCallbackInfo@VValue@v8@@@Nan@@@Z 00000001800146e0 f   CanvasRenderingContext2d.obj
 0001:000136f0       ?StrokeText@Context2d@@SAXAEBV?$FunctionCallbackInfo@VValue@v8@@@Nan@@@Z 00000001800146f0 f   CanvasRenderingContext2d.obj
 0001:00013700       ?getBaselineAdjustment@@YANPEAU_PangoLayout@@F@Z 0000000180014700 f i CanvasRenderingContext2d.obj
 0001:000137b0       ?setTextPath@Context2d@@QEAAXNN@Z 00000001800147b0 f   CanvasRenderingContext2d.obj
 0001:000138c0       ?LineTo@Context2d@@SAXAEBV?$FunctionCallbackInfo@VValue@v8@@@Nan@@@Z 00000001800148c0 f   CanvasRenderingContext2d.obj
 0001:00013920       ?MoveTo@Context2d@@SAXAEBV?$FunctionCallbackInfo@VValue@v8@@@Nan@@@Z 0000000180014920 f   CanvasRenderingContext2d.obj
 0001:00013980       ?SetFont@Context2d@@SAXAEBV?$FunctionCallbackInfo@VValue@v8@@@Nan@@@Z 0000000180014980 f   CanvasRenderingContext2d.obj
 0001:00013d70       ?MeasureText@Context2d@@SAXAEBV?$FunctionCallbackInfo@VValue@v8@@@Nan@@@Z 0000000180014d70 f   CanvasRenderingContext2d.obj
 0001:00014420       ?SetTextBaseline@Context2d@@SAXAEBV?$FunctionCallbackInfo@VValue@v8@@@Nan@@@Z 0000000180015420 f   CanvasRenderingContext2d.obj
 0001:00014500       ?SetTextAlignment@Context2d@@SAXAEBV?$FunctionCallbackInfo@VValue@v8@@@Nan@@@Z 0000000180015500 f   CanvasRenderingContext2d.obj
 0001:000145e0       ?SetLineDash@Context2d@@SAXAEBV?$FunctionCallbackInfo@VValue@v8@@@Nan@@@Z 00000001800155e0 f   CanvasRenderingContext2d.obj
 0001:000148c0       ?GetLineDash@Context2d@@SAXAEBV?$FunctionCallbackInfo@VValue@v8@@@Nan@@@Z 00000001800158c0 f   CanvasRenderingContext2d.obj
 0001:00014af0       ?SetLineDashOffset@Context2d@@SAXV?$Local@VString@v8@@@v8@@V?$Local@VValue@v8@@@3@AEBV?$PropertyCallbackInfo@X@Nan@@@Z 0000000180015af0 f   CanvasRenderingContext2d.obj
 0001:00014cc0       ?GetLineDashOffset@Context2d@@SAXV?$Local@VString@v8@@@v8@@AEBV?$PropertyCallbackInfo@VValue@v8@@@Nan@@@Z 0000000180015cc0 f   CanvasRenderingContext2d.obj
 0001:00014d50       ?FillRect@Context2d@@SAXAEBV?$FunctionCallbackInfo@VValue@v8@@@Nan@@@Z 0000000180015d50 f   CanvasRenderingContext2d.obj
 0001:00014e70       ?StrokeRect@Context2d@@SAXAEBV?$FunctionCallbackInfo@VValue@v8@@@Nan@@@Z 0000000180015e70 f   CanvasRenderingContext2d.obj
 0001:00014f80       ?ClearRect@Context2d@@SAXAEBV?$FunctionCallbackInfo@VValue@v8@@@Nan@@@Z 0000000180015f80 f   CanvasRenderingContext2d.obj
 0001:000150c0       ?Rect@Context2d@@SAXAEBV?$FunctionCallbackInfo@VValue@v8@@@Nan@@@Z 00000001800160c0 f   CanvasRenderingContext2d.obj
 0001:000151d0       ?Arc@Context2d@@SAXAEBV?$FunctionCallbackInfo@VValue@v8@@@Nan@@@Z 00000001800161d0 f   CanvasRenderingContext2d.obj
 0001:000158e0       ?ArcTo@Context2d@@SAXAEBV?$FunctionCallbackInfo@VValue@v8@@@Nan@@@Z 00000001800168e0 f   CanvasRenderingContext2d.obj
 0001:00015e20       ?Ellipse@Context2d@@SAXAEBV?$FunctionCallbackInfo@VValue@v8@@@Nan@@@Z 0000000180016e20 f   CanvasRenderingContext2d.obj
 0001:00016060       ??1?$vector@NV?$allocator@N@std@@@std@@QEAA@XZ 0000000180017060 f i CanvasRenderingContext2d.obj
 0001:000160c0       ?erase@?$_Tree@V?$_Tmap_traits@V?$basic_string@DU?$char_traits@D@std@@V?$allocator@D@2@@std@@W4_cairo_operator@@U?$less@V?$basic_string@DU?$char_traits@D@std@@V?$allocator@D@2@@std@@@2@V?$allocator@U?$pair@$$CBV?$basic_string@DU?$char_traits@D@std@@V?$allocator@D@2@@std@@W4_cairo_operator@@@std@@@2@$0A@@std@@@std@@QEAA?AV?$_Tree_iterator@V?$_Tree_val@U?$_Tree_simple_types@U?$pair@$$CBV?$basic_string@DU?$char_traits@D@std@@V?$allocator@D@2@@std@@W4_cairo_operator@@@std@@@std@@@std@@@2@V?$_Tree_const_iterator@V?$_Tree_val@U?$_Tree_simple_types@U?$pair@$$CBV?$basic_string@DU?$char_traits@D@std@@V?$allocator@D@2@@std@@W4_cairo_operator@@@std@@@std@@@std@@@2@0@Z 00000001800170c0 f i CanvasRenderingContext2d.obj
 0001:00016270       ?_Extract@?$_Tree_val@U?$_Tree_simple_types@U?$pair@$$CBV?$basic_string@DU?$char_traits@D@std@@V?$allocator@D@2@@std@@W4_cairo_operator@@@std@@@std@@@std@@QEAAPEAU?$_Tree_node@U?$pair@$$CBV?$basic_string@DU?$char_traits@D@std@@V?$allocator@D@2@@std@@W4_cairo_operator@@@std@@PEAX@2@V?$_Tree_const_iterator@V?$_Tree_val@U?$_Tree_simple_types@U?$pair@$$CBV?$basic_string@DU?$char_traits@D@std@@V?$allocator@D@2@@std@@W4_cairo_operator@@@std@@@std@@@std@@@2@@Z 0000000180017270 f i CanvasRenderingContext2d.obj
 0001:00016270       ?_Extract@?$_Tree_val@U?$_Tree_simple_types@U?$pair@$$CBV?$basic_string@DU?$char_traits@D@std@@V?$allocator@D@2@@std@@I@std@@@std@@@std@@QEAAPEAU?$_Tree_node@U?$pair@$$CBV?$basic_string@DU?$char_traits@D@std@@V?$allocator@D@2@@std@@I@std@@PEAX@2@V?$_Tree_const_iterator@V?$_Tree_val@U?$_Tree_simple_types@U?$pair@$$CBV?$basic_string@DU?$char_traits@D@std@@V?$allocator@D@2@@std@@I@std@@@std@@@std@@@2@@Z 0000000180017270 f i color.obj
 0001:00016700       ?_Erase@?$_Tree@V?$_Tmap_traits@V?$basic_string@DU?$char_traits@D@std@@V?$allocator@D@2@@std@@W4_cairo_operator@@U?$less@V?$basic_string@DU?$char_traits@D@std@@V?$allocator@D@2@@std@@@2@V?$allocator@U?$pair@$$CBV?$basic_string@DU?$char_traits@D@std@@V?$allocator@D@2@@std@@W4_cairo_operator@@@std@@@2@$0A@@std@@@std@@IEAAXPEAU?$_Tree_node@U?$pair@$$CBV?$basic_string@DU?$char_traits@D@std@@V?$allocator@D@2@@std@@W4_cairo_operator@@@std@@PEAX@2@@Z 0000000180017700 f i CanvasRenderingContext2d.obj
 0001:000167c0       ??$_Insert_hint@AEAU?$pair@$$CBV?$basic_string@DU?$char_traits@D@std@@V?$allocator@D@2@@std@@W4_cairo_operator@@@std@@PEAU?$_Tree_node@U?$pair@$$CBV?$basic_string@DU?$char_traits@D@std@@V?$allocator@D@2@@std@@W4_cairo_operator@@@std@@PEAX@2@@?$_Tree@V?$_Tmap_traits@V?$basic_string@DU?$char_traits@D@std@@V?$allocator@D@2@@std@@W4_cairo_operator@@U?$less@V?$basic_string@DU?$char_traits@D@std@@V?$allocator@D@2@@std@@@2@V?$allocator@U?$pair@$$CBV?$basic_string@DU?$char_traits@D@std@@V?$allocator@D@2@@std@@W4_cairo_operator@@@std@@@2@$0A@@std@@@std@@IEAA?AV?$_Tree_iterator@V?$_Tree_val@U?$_Tree_simple_types@U?$pair@$$CBV?$basic_string@DU?$char_traits@D@std@@V?$allocator@D@2@@std@@W4_cairo_operator@@@std@@@std@@@std@@@1@V?$_Tree_const_iterator@V?$_Tree_val@U?$_Tree_simple_types@U?$pair@$$CBV?$basic_string@DU?$char_traits@D@std@@V?$allocator@D@2@@std@@W4_cairo_operator@@@std@@@std@@@std@@@1@AEAU?$pair@$$CBV?$basic_string@DU?$char_traits@D@std@@V?$allocator@D@2@@std@@W4_cairo_operator@@@1@PEAU?$_Tree_node@U?$pair@$$CBV?$basic_string@DU?$char_traits@D@std@@V?$allocator@D@2@@std@@W4_cairo_operator@@@std@@PEAX@1@@Z 00000001800177c0 f i CanvasRenderingContext2d.obj
 0001:00016b50       ?_Destroy_if_node@?$_Tree@V?$_Tmap_traits@V?$basic_string@DU?$char_traits@D@std@@V?$allocator@D@2@@std@@W4_cairo_operator@@U?$less@V?$basic_string@DU?$char_traits@D@std@@V?$allocator@D@2@@std@@@2@V?$allocator@U?$pair@$$CBV?$basic_string@DU?$char_traits@D@std@@V?$allocator@D@2@@std@@W4_cairo_operator@@@std@@@2@$0A@@std@@@std@@IEAAXPEAU?$_Tree_node@U?$pair@$$CBV?$basic_string@DU?$char_traits@D@std@@V?$allocator@D@2@@std@@W4_cairo_operator@@@std@@PEAX@2@@Z 0000000180017b50 f i CanvasRenderingContext2d.obj
 0001:00016b50       ?_Destroy_if_node@?$_Tree@V?$_Tmap_traits@V?$basic_string@DU?$char_traits@D@std@@V?$allocator@D@2@@std@@IU?$less@V?$basic_string@DU?$char_traits@D@std@@V?$allocator@D@2@@std@@@2@V?$allocator@U?$pair@$$CBV?$basic_string@DU?$char_traits@D@std@@V?$allocator@D@2@@std@@I@std@@@2@$0A@@std@@@std@@IEAAXPEAU?$_Tree_node@U?$pair@$$CBV?$basic_string@DU?$char_traits@D@std@@V?$allocator@D@2@@std@@I@std@@PEAX@2@@Z 0000000180017b50 f i color.obj
 0001:00016bc0       ??$_Insert_at@AEAU?$pair@$$CBV?$basic_string@DU?$char_traits@D@std@@V?$allocator@D@2@@std@@W4_cairo_operator@@@std@@PEAU?$_Tree_node@U?$pair@$$CBV?$basic_string@DU?$char_traits@D@std@@V?$allocator@D@2@@std@@W4_cairo_operator@@@std@@PEAX@2@@?$_Tree@V?$_Tmap_traits@V?$basic_string@DU?$char_traits@D@std@@V?$allocator@D@2@@std@@W4_cairo_operator@@U?$less@V?$basic_string@DU?$char_traits@D@std@@V?$allocator@D@2@@std@@@2@V?$allocator@U?$pair@$$CBV?$basic_string@DU?$char_traits@D@std@@V?$allocator@D@2@@std@@W4_cairo_operator@@@std@@@2@$0A@@std@@@std@@IEAA?AV?$_Tree_iterator@V?$_Tree_val@U?$_Tree_simple_types@U?$pair@$$CBV?$basic_string@DU?$char_traits@D@std@@V?$allocator@D@2@@std@@W4_cairo_operator@@@std@@@std@@@std@@@1@_NPEAU?$_Tree_node@U?$pair@$$CBV?$basic_string@DU?$char_traits@D@std@@V?$allocator@D@2@@std@@W4_cairo_operator@@@std@@PEAX@1@AEAU?$pair@$$CBV?$basic_string@DU?$char_traits@D@std@@V?$allocator@D@2@@std@@W4_cairo_operator@@@1@1@Z 0000000180017bc0 f i CanvasRenderingContext2d.obj
 0001:00016e70       ??$_Insert_nohint@AEAU?$pair@$$CBV?$basic_string@DU?$char_traits@D@std@@V?$allocator@D@2@@std@@W4_cairo_operator@@@std@@PEAU?$_Tree_node@U?$pair@$$CBV?$basic_string@DU?$char_traits@D@std@@V?$allocator@D@2@@std@@W4_cairo_operator@@@std@@PEAX@2@@?$_Tree@V?$_Tmap_traits@V?$basic_string@DU?$char_traits@D@std@@V?$allocator@D@2@@std@@W4_cairo_operator@@U?$less@V?$basic_string@DU?$char_traits@D@std@@V?$allocator@D@2@@std@@@2@V?$allocator@U?$pair@$$CBV?$basic_string@DU?$char_traits@D@std@@V?$allocator@D@2@@std@@W4_cairo_operator@@@std@@@2@$0A@@std@@@std@@IEAA?AU?$pair@V?$_Tree_iterator@V?$_Tree_val@U?$_Tree_simple_types@U?$pair@$$CBV?$basic_string@DU?$char_traits@D@std@@V?$allocator@D@2@@std@@W4_cairo_operator@@@std@@@std@@@std@@@std@@_N@1@_NAEAU?$pair@$$CBV?$basic_string@DU?$char_traits@D@std@@V?$allocator@D@2@@std@@W4_cairo_operator@@@1@PEAU?$_Tree_node@U?$pair@$$CBV?$basic_string@DU?$char_traits@D@std@@V?$allocator@D@2@@std@@W4_cairo_operator@@@std@@PEAX@1@@Z 0000000180017e70 f i CanvasRenderingContext2d.obj
 0001:000170c0       ??0PdfSvgClosure@@QEAA@PEAVCanvas@@@Z 00000001800180c0 f   closure.obj
 0001:00017120       ??0PngClosure@@QEAA@PEAVCanvas@@@Z 0000000180018120 f   closure.obj
 0001:000171a0       ??1PngClosure@@QEAA@XZ     00000001800181a0 f   closure.obj
 0001:000171e0       __local_stdio_printf_options 00000001800181e0 f i color.obj
 0001:000171f0       snprintf                   00000001800181f0 f i color.obj
 0001:00018010       ?rgba_from_string@@YAHPEBDPEAF@Z 0000000180019010 f   color.obj
 0001:00018270       ??1?$_Tree@V?$_Tmap_traits@V?$basic_string@DU?$char_traits@D@std@@V?$allocator@D@2@@std@@IU?$less@V?$basic_string@DU?$char_traits@D@std@@V?$allocator@D@2@@std@@@2@V?$allocator@U?$pair@$$CBV?$basic_string@DU?$char_traits@D@std@@V?$allocator@D@2@@std@@I@std@@@2@$0A@@std@@@std@@QEAA@XZ 0000000180019270 f i color.obj
 0001:000182b0       ??0?$map@V?$basic_string@DU?$char_traits@D@std@@V?$allocator@D@2@@std@@IU?$less@V?$basic_string@DU?$char_traits@D@std@@V?$allocator@D@2@@std@@@2@V?$allocator@U?$pair@$$CBV?$basic_string@DU?$char_traits@D@std@@V?$allocator@D@2@@std@@I@std@@@2@@std@@QEAA@V?$initializer_list@U?$pair@$$CBV?$basic_string@DU?$char_traits@D@std@@V?$allocator@D@2@@std@@I@std@@@1@@Z 00000001800192b0 f i color.obj
 0001:000183c0       ?erase@?$_Tree@V?$_Tmap_traits@V?$basic_string@DU?$char_traits@D@std@@V?$allocator@D@2@@std@@IU?$less@V?$basic_string@DU?$char_traits@D@std@@V?$allocator@D@2@@std@@@2@V?$allocator@U?$pair@$$CBV?$basic_string@DU?$char_traits@D@std@@V?$allocator@D@2@@std@@I@std@@@2@$0A@@std@@@std@@QEAA?AV?$_Tree_iterator@V?$_Tree_val@U?$_Tree_simple_types@U?$pair@$$CBV?$basic_string@DU?$char_traits@D@std@@V?$allocator@D@2@@std@@I@std@@@std@@@std@@@2@V?$_Tree_const_iterator@V?$_Tree_val@U?$_Tree_simple_types@U?$pair@$$CBV?$basic_string@DU?$char_traits@D@std@@V?$allocator@D@2@@std@@I@std@@@std@@@std@@@2@0@Z 00000001800193c0 f i color.obj
 0001:00018580       ?_Erase@?$_Tree@V?$_Tmap_traits@V?$basic_string@DU?$char_traits@D@std@@V?$allocator@D@2@@std@@IU?$less@V?$basic_string@DU?$char_traits@D@std@@V?$allocator@D@2@@std@@@2@V?$allocator@U?$pair@$$CBV?$basic_string@DU?$char_traits@D@std@@V?$allocator@D@2@@std@@I@std@@@2@$0A@@std@@@std@@IEAAXPEAU?$_Tree_node@U?$pair@$$CBV?$basic_string@DU?$char_traits@D@std@@V?$allocator@D@2@@std@@I@std@@PEAX@2@@Z 0000000180019580 f i color.obj
 0001:00018800       ??$?0AEAY0M@$$CBDH$0A@@?$pair@$$CBV?$basic_string@DU?$char_traits@D@std@@V?$allocator@D@2@@std@@I@std@@QEAA@AEAY0M@$$CBD$$QEAH@Z 0000000180019800 f i color.obj
 0001:00018800       ??$?0AEAY0P@$$CBDH$0A@@?$pair@$$CBV?$basic_string@DU?$char_traits@D@std@@V?$allocator@D@2@@std@@I@std@@QEAA@AEAY0P@$$CBD$$QEAH@Z 0000000180019800 f i color.obj
 0001:00018800       ??$?0AEAY0BA@$$CBDH$0A@@?$pair@$$CBV?$basic_string@DU?$char_traits@D@std@@V?$allocator@D@2@@std@@I@std@@QEAA@AEAY0BA@$$CBD$$QEAH@Z 0000000180019800 f i color.obj
 0001:00018800       ??$?0AEAY09$$CBDH$0A@@?$pair@$$CBV?$basic_string@DU?$char_traits@D@std@@V?$allocator@D@2@@std@@I@std@@QEAA@AEAY09$$CBD$$QEAH@Z 0000000180019800 f i color.obj
 0001:00018800       ??$?0AEAY0O@$$CBDH$0A@@?$pair@$$CBV?$basic_string@DU?$char_traits@D@std@@V?$allocator@D@2@@std@@I@std@@QEAA@AEAY0O@$$CBD$$QEAH@Z 0000000180019800 f i color.obj
 0001:00018800       ??$?0AEAY0M@$$CBDI$0A@@?$pair@$$CBV?$basic_string@DU?$char_traits@D@std@@V?$allocator@D@2@@std@@I@std@@QEAA@AEAY0M@$$CBD$$QEAI@Z 0000000180019800 f i color.obj
 0001:00018800       ??$?0AEAY0O@$$CBDI$0A@@?$pair@$$CBV?$basic_string@DU?$char_traits@D@std@@V?$allocator@D@2@@std@@I@std@@QEAA@AEAY0O@$$CBD$$QEAI@Z 0000000180019800 f i color.obj
 0001:00018800       ??$?0AEAY08$$CBDI$0A@@?$pair@$$CBV?$basic_string@DU?$char_traits@D@std@@V?$allocator@D@2@@std@@I@std@@QEAA@AEAY08$$CBD$$QEAI@Z 0000000180019800 f i color.obj
 0001:00018800       ??$?0AEAY04$$CBDI$0A@@?$pair@$$CBV?$basic_string@DU?$char_traits@D@std@@V?$allocator@D@2@@std@@I@std@@QEAA@AEAY04$$CBD$$QEAI@Z 0000000180019800 f i color.obj
 0001:00018800       ??$?0AEAY09$$CBDI$0A@@?$pair@$$CBV?$basic_string@DU?$char_traits@D@std@@V?$allocator@D@2@@std@@I@std@@QEAA@AEAY09$$CBD$$QEAI@Z 0000000180019800 f i color.obj
 0001:00018800       ??$?0AEAY0L@$$CBDI$0A@@?$pair@$$CBV?$basic_string@DU?$char_traits@D@std@@V?$allocator@D@2@@std@@I@std@@QEAA@AEAY0L@$$CBD$$QEAI@Z 0000000180019800 f i color.obj
 0001:00018800       ??$?0AEAY0N@$$CBDI$0A@@?$pair@$$CBV?$basic_string@DU?$char_traits@D@std@@V?$allocator@D@2@@std@@I@std@@QEAA@AEAY0N@$$CBD$$QEAI@Z 0000000180019800 f i color.obj
 0001:00018800       ??$?0AEAY04$$CBDH$0A@@?$pair@$$CBV?$basic_string@DU?$char_traits@D@std@@V?$allocator@D@2@@std@@I@std@@QEAA@AEAY04$$CBD$$QEAH@Z 0000000180019800 f i color.obj
 0001:00018800       ??$?0AEAY03$$CBDI$0A@@?$pair@$$CBV?$basic_string@DU?$char_traits@D@std@@V?$allocator@D@2@@std@@I@std@@QEAA@AEAY03$$CBD$$QEAI@Z 0000000180019800 f i color.obj
 0001:00018800       ??$?0AEAY07$$CBDI$0A@@?$pair@$$CBV?$basic_string@DU?$char_traits@D@std@@V?$allocator@D@2@@std@@I@std@@QEAA@AEAY07$$CBD$$QEAI@Z 0000000180019800 f i color.obj
 0001:00018800       ??$?0AEAY08$$CBDH$0A@@?$pair@$$CBV?$basic_string@DU?$char_traits@D@std@@V?$allocator@D@2@@std@@I@std@@QEAA@AEAY08$$CBD$$QEAH@Z 0000000180019800 f i color.obj
 0001:00018800       ??$?0AEAY05$$CBDI$0A@@?$pair@$$CBV?$basic_string@DU?$char_traits@D@std@@V?$allocator@D@2@@std@@I@std@@QEAA@AEAY05$$CBD$$QEAI@Z 0000000180019800 f i color.obj
 0001:00018800       ??$?0AEAY06$$CBDI$0A@@?$pair@$$CBV?$basic_string@DU?$char_traits@D@std@@V?$allocator@D@2@@std@@I@std@@QEAA@AEAY06$$CBD$$QEAI@Z 0000000180019800 f i color.obj
 0001:00018800       ??$?0AEAY0L@$$CBDH$0A@@?$pair@$$CBV?$basic_string@DU?$char_traits@D@std@@V?$allocator@D@2@@std@@I@std@@QEAA@AEAY0L@$$CBD$$QEAH@Z 0000000180019800 f i color.obj
 0001:00018860       ??$?0AEAY0BB@$$CBDH$0A@@?$pair@$$CBV?$basic_string@DU?$char_traits@D@std@@V?$allocator@D@2@@std@@I@std@@QEAA@AEAY0BB@$$CBD$$QEAH@Z 0000000180019860 f i color.obj
 0001:000188c0       ??$?0AEAY0BC@$$CBDH$0A@@?$pair@$$CBV?$basic_string@DU?$char_traits@D@std@@V?$allocator@D@2@@std@@I@std@@QEAA@AEAY0BC@$$CBD$$QEAH@Z 00000001800198c0 f i color.obj
 0001:00018920       ??$?0AEAY0BA@$$CBDI$0A@@?$pair@$$CBV?$basic_string@DU?$char_traits@D@std@@V?$allocator@D@2@@std@@I@std@@QEAA@AEAY0BA@$$CBD$$QEAI@Z 0000000180019920 f i color.obj
 0001:00018980       ??$?0AEAY0N@$$CBDH$0A@@?$pair@$$CBV?$basic_string@DU?$char_traits@D@std@@V?$allocator@D@2@@std@@I@std@@QEAA@AEAY0N@$$CBD$$QEAH@Z 0000000180019980 f i color.obj
 0001:000189e0       ??$_Insert_hint@AEAU?$pair@$$CBV?$basic_string@DU?$char_traits@D@std@@V?$allocator@D@2@@std@@I@std@@PEAU?$_Tree_node@U?$pair@$$CBV?$basic_string@DU?$char_traits@D@std@@V?$allocator@D@2@@std@@I@std@@PEAX@2@@?$_Tree@V?$_Tmap_traits@V?$basic_string@DU?$char_traits@D@std@@V?$allocator@D@2@@std@@IU?$less@V?$basic_string@DU?$char_traits@D@std@@V?$allocator@D@2@@std@@@2@V?$allocator@U?$pair@$$CBV?$basic_string@DU?$char_traits@D@std@@V?$allocator@D@2@@std@@I@std@@@2@$0A@@std@@@std@@IEAA?AV?$_Tree_iterator@V?$_Tree_val@U?$_Tree_simple_types@U?$pair@$$CBV?$basic_string@DU?$char_traits@D@std@@V?$allocator@D@2@@std@@I@std@@@std@@@std@@@1@V?$_Tree_const_iterator@V?$_Tree_val@U?$_Tree_simple_types@U?$pair@$$CBV?$basic_string@DU?$char_traits@D@std@@V?$allocator@D@2@@std@@I@std@@@std@@@std@@@1@AEAU?$pair@$$CBV?$basic_string@DU?$char_traits@D@std@@V?$allocator@D@2@@std@@I@1@PEAU?$_Tree_node@U?$pair@$$CBV?$basic_string@DU?$char_traits@D@std@@V?$allocator@D@2@@std@@I@std@@PEAX@1@@Z 00000001800199e0 f i color.obj
 0001:00018d50       ??$_Insert_at@AEAU?$pair@$$CBV?$basic_string@DU?$char_traits@D@std@@V?$allocator@D@2@@std@@I@std@@PEAU?$_Tree_node@U?$pair@$$CBV?$basic_string@DU?$char_traits@D@std@@V?$allocator@D@2@@std@@I@std@@PEAX@2@@?$_Tree@V?$_Tmap_traits@V?$basic_string@DU?$char_traits@D@std@@V?$allocator@D@2@@std@@IU?$less@V?$basic_string@DU?$char_traits@D@std@@V?$allocator@D@2@@std@@@2@V?$allocator@U?$pair@$$CBV?$basic_string@DU?$char_traits@D@std@@V?$allocator@D@2@@std@@I@std@@@2@$0A@@std@@@std@@IEAA?AV?$_Tree_iterator@V?$_Tree_val@U?$_Tree_simple_types@U?$pair@$$CBV?$basic_string@DU?$char_traits@D@std@@V?$allocator@D@2@@std@@I@std@@@std@@@std@@@1@_NPEAU?$_Tree_node@U?$pair@$$CBV?$basic_string@DU?$char_traits@D@std@@V?$allocator@D@2@@std@@I@std@@PEAX@1@AEAU?$pair@$$CBV?$basic_string@DU?$char_traits@D@std@@V?$allocator@D@2@@std@@I@1@1@Z 0000000180019d50 f i color.obj
 0001:00019020       ??$_Insert_nohint@AEAU?$pair@$$CBV?$basic_string@DU?$char_traits@D@std@@V?$allocator@D@2@@std@@I@std@@PEAU?$_Tree_node@U?$pair@$$CBV?$basic_string@DU?$char_traits@D@std@@V?$allocator@D@2@@std@@I@std@@PEAX@2@@?$_Tree@V?$_Tmap_traits@V?$basic_string@DU?$char_traits@D@std@@V?$allocator@D@2@@std@@IU?$less@V?$basic_string@DU?$char_traits@D@std@@V?$allocator@D@2@@std@@@2@V?$allocator@U?$pair@$$CBV?$basic_string@DU?$char_traits@D@std@@V?$allocator@D@2@@std@@I@std@@@2@$0A@@std@@@std@@IEAA?AU?$pair@V?$_Tree_iterator@V?$_Tree_val@U?$_Tree_simple_types@U?$pair@$$CBV?$basic_string@DU?$char_traits@D@std@@V?$allocator@D@2@@std@@I@std@@@std@@@std@@@std@@_N@1@_NAEAU?$pair@$$CBV?$basic_string@DU?$char_traits@D@std@@V?$allocator@D@2@@std@@I@1@PEAU?$_Tree_node@U?$pair@$$CBV?$basic_string@DU?$char_traits@D@std@@V?$allocator@D@2@@std@@I@std@@PEAX@1@@Z 000000018001a020 f i color.obj
 0001:00019260       ?set@CanvasError@@QEAAXPEAD0H0@Z 000000018001a260 f i Image.obj
 0001:00019430       ?Initialize@Image@@SAXV?$Local@VObject@v8@@@v8@@@Z 000000018001a430 f   Image.obj
 0001:000198d0       ?New@Image@@SAXAEBV?$FunctionCallbackInfo@VValue@v8@@@Nan@@@Z 000000018001a8d0 f   Image.obj
 0001:00019ac0       ?GetComplete@Image@@SAXV?$Local@VString@v8@@@v8@@AEBV?$PropertyCallbackInfo@VValue@v8@@@Nan@@@Z 000000018001aac0 f   Image.obj
 0001:00019b30       ?GetDataMode@Image@@SAXV?$Local@VString@v8@@@v8@@AEBV?$PropertyCallbackInfo@VValue@v8@@@Nan@@@Z 000000018001ab30 f   Image.obj
 0001:00019bb0       ?SetDataMode@Image@@SAXV?$Local@VString@v8@@@v8@@V?$Local@VValue@v8@@@3@AEBV?$PropertyCallbackInfo@X@Nan@@@Z 000000018001abb0 f   Image.obj
 0001:00019c60       ?GetNaturalWidth@Image@@SAXV?$Local@VString@v8@@@v8@@AEBV?$PropertyCallbackInfo@VValue@v8@@@Nan@@@Z 000000018001ac60 f   Image.obj
 0001:00019ce0       ?GetWidth@Image@@SAXV?$Local@VString@v8@@@v8@@AEBV?$PropertyCallbackInfo@VValue@v8@@@Nan@@@Z 000000018001ace0 f   Image.obj
 0001:00019d60       ?SetWidth@Image@@SAXV?$Local@VString@v8@@@v8@@V?$Local@VValue@v8@@@3@AEBV?$PropertyCallbackInfo@X@Nan@@@Z 000000018001ad60 f   Image.obj
 0001:00019e00       ?GetNaturalHeight@Image@@SAXV?$Local@VString@v8@@@v8@@AEBV?$PropertyCallbackInfo@VValue@v8@@@Nan@@@Z 000000018001ae00 f   Image.obj
 0001:00019e80       ?GetHeight@Image@@SAXV?$Local@VString@v8@@@v8@@AEBV?$PropertyCallbackInfo@VValue@v8@@@Nan@@@Z 000000018001ae80 f   Image.obj
 0001:00019f00       ?SetHeight@Image@@SAXV?$Local@VString@v8@@@v8@@V?$Local@VValue@v8@@@3@AEBV?$PropertyCallbackInfo@X@Nan@@@Z 000000018001af00 f   Image.obj
 0001:00019fa0       ?GetSource@Image@@SAXAEBV?$FunctionCallbackInfo@VValue@v8@@@Nan@@@Z 000000018001afa0 f   Image.obj
 0001:0001a040       ?clearData@Image@@QEAAXXZ  000000018001b040 f   Image.obj
 0001:0001a0d0       ?SetSource@Image@@SAXAEBV?$FunctionCallbackInfo@VValue@v8@@@Nan@@@Z 000000018001b0d0 f   Image.obj
 0001:0001a710       ??1CanvasError@@QEAA@XZ    000000018001b710 f i Image.obj
 0001:0001a810       ?readPNG@Image@@SA?AW4_cairo_status@@PEAXPEAEI@Z 000000018001b810 f   Image.obj
 0001:0001a850       ??_EImage@@EEAAPEAXI@Z     000000018001b850 f i * CIL library *:* CIL module *
 0001:0001a850       ??_GImage@@EEAAPEAXI@Z     000000018001b850 f i Image.obj
 0001:0001a8b0       ?surface@Image@@QEAAPEAU_cairo_surface@@XZ 000000018001b8b0 f   Image.obj
 0001:0001a9b0       ?loadSurface@Image@@QEAA?AW4_cairo_status@@XZ 000000018001b9b0 f   Image.obj
 0001:0001ad20       ?read_gif_from_memory@@YAHPEAUGifFileType@@PEAEH@Z 000000018001bd20 f   Image.obj
 0001:0001ad70       ?loadGIFFromBuffer@Image@@QEAA?AW4_cairo_status@@PEAEI@Z 000000018001bd70 f   Image.obj
 0001:0001b330       ?jpegToARGB@Image@@QEAAXPEAUjpeg_decompress_struct@@PEAE1V?$function@$$A6AIPEAE@Z@std@@@Z 000000018001c330 f   Image.obj
 0001:0001b420       ??1?$function@$$A6AIPEAE@Z@std@@QEAA@XZ 000000018001c420 f i Image.obj
 0001:0001b460       ?decodeJPEGIntoSurface@Image@@QEAA?AW4_cairo_status@@PEAUjpeg_decompress_struct@@@Z 000000018001c460 f   Image.obj
 0001:0001b6c0       ?decodeJPEGBufferIntoMimeSurface@Image@@QEAA?AW4_cairo_status@@PEAEI@Z 000000018001c6c0 f   Image.obj
 0001:0001b890       ?clearMimeData@@YAXPEAX@Z  000000018001c890 f   Image.obj
 0001:0001b8c0       ?assignDataAsMime@Image@@QEAA?AW4_cairo_status@@PEAEHPEBD@Z 000000018001c8c0 f   Image.obj
 0001:0001b9c0       ?loadJPEGFromBuffer@Image@@QEAA?AW4_cairo_status@@PEAEI@Z 000000018001c9c0 f   Image.obj
 0001:0001bac0       ?loadJPEG@Image@@QEAA?AW4_cairo_status@@PEAU_iobuf@@@Z 000000018001cac0 f   Image.obj
 0001:0001bbe0       ?loadSVGFromBuffer@Image@@QEAA?AW4_cairo_status@@PEAEI@Z 000000018001cbe0 f   Image.obj
 0001:0001bca0       ?renderSVGToSurface@Image@@QEAA?AW4_cairo_status@@XZ 000000018001cca0 f   Image.obj
 0001:0001bdd0       ?isSVG@Image@@SAHPEAEI@Z   000000018001cdd0 f   Image.obj
 0001:0001be50       ??4?$basic_string@DU?$char_traits@D@std@@V?$allocator@D@2@@std@@QEAAAEAV01@$$QEAV01@@Z 000000018001ce50 f i Image.obj
 0001:0001bee0       ??$SetMethod@VObjectTemplate@v8@@VLocal@2@@Nan@@YAXV?$Local@VObjectTemplate@v8@@@v8@@PEBDP6AXAEBV?$FunctionCallbackInfo@VValue@v8@@@0@@Z@Z 000000018001cee0 f i Image.obj
 0001:0001c0d0       ?ThrowRangeError@Nan@@YAXPEBD@Z 000000018001d0d0 f i ImageData.obj
 0001:0001c170       ??_GImageData@@UEAAPEAXI@Z 000000018001d170 f i ImageData.obj
 0001:0001c170       ??_EImageData@@UEAAPEAXI@Z 000000018001d170 f i * CIL library *:* CIL module *
 0001:0001c1b0       ?Initialize@ImageData@@SAXV?$Local@VObject@v8@@@v8@@@Z 000000018001d1b0 f   ImageData.obj
 0001:0001c400       ?New@ImageData@@SAXAEBV?$FunctionCallbackInfo@VValue@v8@@@Nan@@@Z 000000018001d400 f   ImageData.obj
 0001:0001ca10       ?GetWidth@ImageData@@SAXV?$Local@VString@v8@@@v8@@AEBV?$PropertyCallbackInfo@VValue@v8@@@Nan@@@Z 000000018001da10 f   ImageData.obj
 0001:0001ca90       ?GetHeight@ImageData@@SAXV?$Local@VString@v8@@@v8@@AEBV?$PropertyCallbackInfo@VValue@v8@@@Nan@@@Z 000000018001da90 f   ImageData.obj
 0001:0001cb10       ?init@@YAXV?$Local@VObject@v8@@@v8@@@Z 000000018001db10 f   init.obj
 0001:0001ce00       ?_name_def_compare@@YAHPEBX0@Z 000000018001de00 f   register_font.obj
 0001:0001ce20       ?_free_g_list_item@@YAXPEAX0@Z 000000018001de20 f   register_font.obj
 0001:0001ce30       ?get_family_name@@YAPEADPEAUFT_FaceRec_@@@Z 000000018001de30 f   register_font.obj
 0001:0001d050       ?get_pango_font_description@@YAPEAU_PangoFontDescription@@PEAE@Z 000000018001e050 f   register_font.obj
 0001:0001d270       ?toBuffer@@YA?AW4_cairo_status@@PEAXPEBEI@Z 000000018001e270 f   toBuffer.obj
 0001:0001d33c       __imp_load_?GetCurrentContext@Isolate@v8@@QEAA?AV?$Local@VContext@v8@@@2@XZ 000000018001e33c f   node:node.exe
 0001:0001d348       __tailMerge_node_exe       000000018001e348     node:node.exe
 0001:0001d3c1       __imp_load_?GetCurrent@Isolate@v8@@SAPEAV12@XZ 000000018001e3c1 f   node:node.exe
 0001:0001d3cd       __imp_load_??1HandleScope@v8@@QEAA@XZ 000000018001e3cd f   node:node.exe
 0001:0001d3d9       __imp_load_??0HandleScope@v8@@QEAA@PEAVIsolate@1@@Z 000000018001e3d9 f   node:node.exe
 0001:0001d3e5       __imp_load_?ClearWeak@V8@v8@@CAPEAXPEAPEAVObject@internal@2@@Z 000000018001e3e5 f   node:node.exe
 0001:0001d3f1       __imp_load_?MakeWeak@V8@v8@@CAXPEAPEAVObject@internal@2@PEAXP6AXAEBV?$WeakCallbackInfo@X@2@@ZW4WeakCallbackType@2@@Z 000000018001e3f1 f   node:node.exe
 0001:0001d3fd       __imp_load_?DisposeGlobal@V8@v8@@CAXPEAPEAVObject@internal@2@@Z 000000018001e3fd f   node:node.exe
 0001:0001d409       __imp_load_?GlobalizeReference@V8@v8@@CAPEAPEAVObject@internal@2@PEAVIsolate@42@PEAPEAV342@@Z 000000018001e409 f   node:node.exe
 0001:0001d415       __imp_load_?Uint32Value@Value@v8@@QEBA?AV?$Maybe@I@2@V?$Local@VContext@v8@@@2@@Z 000000018001e415 f   node:node.exe
 0001:0001d421       __imp_load_?IsNumber@Value@v8@@QEBA_NXZ 000000018001e421 f   node:node.exe
 0001:0001d42d       __imp_load_?SetAlignedPointerInInternalField@Object@v8@@QEAAXHPEAX@Z 000000018001e42d f   node:node.exe
 0001:0001d439       __imp_load_?InternalFieldCount@Object@v8@@QEAAHXZ 000000018001e439 f   node:node.exe
 0001:0001d445       __imp_load_?Value@External@v8@@QEBAPEAXXZ 000000018001e445 f   node:node.exe
 0001:0001d451       __imp_load_?New@External@v8@@SA?AV?$Local@VExternal@v8@@@2@PEAVIsolate@2@PEAX@Z 000000018001e451 f   node:node.exe
 0001:0001d45d       __imp_load_?CheckMemoryPressure@Isolate@v8@@AEAAXXZ 000000018001e45d f   node:node.exe
 0001:0001d469       __imp_load_?ReportExternalAllocationLimitReached@Isolate@v8@@AEAAXXZ 000000018001e469 f   node:node.exe
 0001:0001d475       __imp_load_?CreateHandle@HandleScope@v8@@KAPEAPEAVObject@internal@2@PEAVIsolate@42@PEAV342@@Z 000000018001e475 f   node:node.exe
 0001:0001d481       __imp_load_?CreateHandle@HandleScope@v8@@CAPEAPEAVObject@internal@2@PEAVNeverReadOnlySpaceObject@42@PEAV342@@Z 000000018001e481 f   node:node.exe
 0001:0001d48d       __imp_load_?SetClassName@FunctionTemplate@v8@@QEAAXV?$Local@VString@v8@@@2@@Z 000000018001e48d f   node:node.exe
 0001:0001d499       __imp_load_?InstanceTemplate@FunctionTemplate@v8@@QEAA?AV?$Local@VObjectTemplate@v8@@@2@XZ 000000018001e499 f   node:node.exe
 0001:0001d4a5       __imp_load_?GetFunction@FunctionTemplate@v8@@QEAA?AV?$Local@VFunction@v8@@@2@XZ 000000018001e4a5 f   node:node.exe
 0001:0001d4b1       __imp_load_?New@FunctionTemplate@v8@@SA?AV?$Local@VFunctionTemplate@v8@@@2@PEAVIsolate@2@P6AXAEBV?$FunctionCallbackInfo@VValue@v8@@@2@@ZV?$Local@VValue@v8@@@2@V?$Local@VSignature@v8@@@2@HW4ConstructorBehavior@2@W4SideEffectType@2@@Z 000000018001e4b1 f   node:node.exe
 0001:0001d4bd       __imp_load_?ToLocalEmpty@V8@v8@@CAXXZ 000000018001e4bd f   node:node.exe
 0001:0001d4c9       __imp_load_?Escape@EscapableHandleScope@v8@@AEAAPEAPEAVObject@internal@2@PEAPEAV342@@Z 000000018001e4c9 f   node:node.exe
 0001:0001d4d5       __imp_load_??0EscapableHandleScope@v8@@QEAA@PEAVIsolate@1@@Z 000000018001e4d5 f   node:node.exe
 0001:0001d4e1       __imp_load_?NewFromUtf8@String@v8@@SA?AV?$MaybeLocal@VString@v8@@@2@PEAVIsolate@2@PEBDW4NewStringType@2@H@Z 000000018001e4e1 f   node:node.exe
 0001:0001d4ed       __imp_load_?SlowGetInternalField@Object@v8@@AEAA?AV?$Local@VValue@v8@@@2@H@Z 000000018001e4ed f   node:node.exe
 0001:0001d4f9       __imp_load_?SetInternalField@Object@v8@@QEAAXHV?$Local@VValue@v8@@@2@@Z 000000018001e4f9 f   node:node.exe
 0001:0001d505       __imp_load_?Set@Object@v8@@QEAA_NV?$Local@VValue@v8@@@2@0@Z 000000018001e505 f   node:node.exe
 0001:0001d511       __imp_load_?SetInternalFieldCount@ObjectTemplate@v8@@QEAAXH@Z 000000018001e511 f   node:node.exe
 0001:0001d51d       __imp_load_?NewInstance@ObjectTemplate@v8@@QEAA?AV?$MaybeLocal@VObject@v8@@@2@V?$Local@VContext@v8@@@2@@Z 000000018001e51d f   node:node.exe
 0001:0001d529       __imp_load_?New@ObjectTemplate@v8@@SA?AV?$Local@VObjectTemplate@v8@@@2@PEAVIsolate@2@V?$Local@VFunctionTemplate@v8@@@2@@Z 000000018001e529 f   node:node.exe
 0001:0001d535       __imp_load_??1EscapableHandleScope@v8@@QEAA@XZ 000000018001e535 f   node:node.exe
 0001:0001d541       __imp_load_?New@Object@v8@@SA?AV?$Local@VObject@v8@@@2@PEAVIsolate@2@@Z 000000018001e541 f   node:node.exe
 0001:0001d54d       __imp_load_uv_queue_work   000000018001e54d f   node:node.exe
 0001:0001d559       __imp_load_?Global@Context@v8@@QEAA?AV?$Local@VObject@v8@@@2@XZ 000000018001e559 f   node:node.exe
 0001:0001d565       __imp_load_?NewFromUnsigned@Integer@v8@@SA?AV?$Local@VInteger@v8@@@2@PEAVIsolate@2@I@Z 000000018001e565 f   node:node.exe
 0001:0001d571       __imp_load_?New@Signature@v8@@SA?AV?$Local@VSignature@v8@@@2@PEAVIsolate@2@V?$Local@VFunctionTemplate@v8@@@2@@Z 000000018001e571 f   node:node.exe
 0001:0001d57d       __imp_load_?ThrowException@Isolate@v8@@QEAA?AV?$Local@VValue@v8@@@2@V32@@Z 000000018001e57d f   node:node.exe
 0001:0001d589       __imp_load_?Length@TypedArray@v8@@QEAA_KXZ 000000018001e589 f   node:node.exe
 0001:0001d595       __imp_load_?Set@Template@v8@@QEAAXV?$Local@VName@v8@@@2@V?$Local@VData@v8@@@2@W4PropertyAttribute@2@@Z 000000018001e595 f   node:node.exe
 0001:0001d5a1       __imp_load_?ByteLength@ArrayBufferView@v8@@QEAA_KXZ 000000018001e5a1 f   node:node.exe
 0001:0001d5ad       __imp_load_?ByteOffset@ArrayBufferView@v8@@QEAA_KXZ 000000018001e5ad f   node:node.exe
 0001:0001d5b9       __imp_load_?Buffer@ArrayBufferView@v8@@QEAA?AV?$Local@VArrayBuffer@v8@@@2@XZ 000000018001e5b9 f   node:node.exe
 0001:0001d5c5       __imp_load_?Error@Exception@v8@@SA?AV?$Local@VValue@v8@@@2@V?$Local@VString@v8@@@2@@Z 000000018001e5c5 f   node:node.exe
 0001:0001d5d1       __imp_load_?TypeError@Exception@v8@@SA?AV?$Local@VValue@v8@@@2@V?$Local@VString@v8@@@2@@Z 000000018001e5d1 f   node:node.exe
 0001:0001d5dd       __imp_load_?New@AccessorSignature@v8@@SA?AV?$Local@VAccessorSignature@v8@@@2@PEAVIsolate@2@V?$Local@VFunctionTemplate@v8@@@2@@Z 000000018001e5dd f   node:node.exe
 0001:0001d5e9       __imp_load_?HasInstance@FunctionTemplate@v8@@QEAA_NV?$Local@VValue@v8@@@2@@Z 000000018001e5e9 f   node:node.exe
 0001:0001d5f5       __imp_load_?PrototypeTemplate@FunctionTemplate@v8@@QEAA?AV?$Local@VObjectTemplate@v8@@@2@XZ 000000018001e5f5 f   node:node.exe
 0001:0001d601       __imp_load_?GetContents@ArrayBuffer@v8@@QEAA?AVContents@12@XZ 000000018001e601 f   node:node.exe
 0001:0001d60d       __imp_load_?StrictEquals@Value@v8@@QEBA_NV?$Local@VValue@v8@@@2@@Z 000000018001e60d f   node:node.exe
 0001:0001d619       __imp_load_?NumberValue@Value@v8@@QEBA?AV?$Maybe@N@2@V?$Local@VContext@v8@@@2@@Z 000000018001e619 f   node:node.exe
 0001:0001d625       __imp_load_?BooleanValue@Value@v8@@QEBA?AV?$Maybe@_N@2@V?$Local@VContext@v8@@@2@@Z 000000018001e625 f   node:node.exe
 0001:0001d631       __imp_load_?ToUint32@Value@v8@@QEBA?AV?$MaybeLocal@VUint32@v8@@@2@V?$Local@VContext@v8@@@2@@Z 000000018001e631 f   node:node.exe
 0001:0001d63d       __imp_load_?ToObject@Value@v8@@QEBA?AV?$MaybeLocal@VObject@v8@@@2@V?$Local@VContext@v8@@@2@@Z 000000018001e63d f   node:node.exe
 0001:0001d649       __imp_load_?ToString@Value@v8@@QEBA?AV?$Local@VString@v8@@@2@PEAVIsolate@2@@Z 000000018001e649 f   node:node.exe
 0001:0001d655       __imp_load_?IsUint8ClampedArray@Value@v8@@QEBA_NXZ 000000018001e655 f   node:node.exe
 0001:0001d661       __imp_load_?IsArrayBufferView@Value@v8@@QEBA_NXZ 000000018001e661 f   node:node.exe
 0001:0001d66d       __imp_load_?IsUint32@Value@v8@@QEBA_NXZ 000000018001e66d f   node:node.exe
 0001:0001d679       __imp_load_?IsBoolean@Value@v8@@QEBA_NXZ 000000018001e679 f   node:node.exe
 0001:0001d685       __imp_load_?IsObject@Value@v8@@QEBA_NXZ 000000018001e685 f   node:node.exe
 0001:0001d691       __imp_load_?IsFunction@Value@v8@@QEBA_NXZ 000000018001e691 f   node:node.exe
 0001:0001d69d       __imp_load_?ReThrow@TryCatch@v8@@QEAA?AV?$Local@VValue@v8@@@2@XZ 000000018001e69d f   node:node.exe
 0001:0001d6a9       __imp_load_?HasCaught@TryCatch@v8@@QEBA_NXZ 000000018001e6a9 f   node:node.exe
 0001:0001d6b5       __imp_load_??1TryCatch@v8@@QEAA@XZ 000000018001e6b5 f   node:node.exe
 0001:0001d6c1       __imp_load_??0TryCatch@v8@@QEAA@PEAVIsolate@1@@Z 000000018001e6c1 f   node:node.exe
 0001:0001d6cd       __imp_load_?WriteUtf8@String@v8@@QEBAHPEAVIsolate@2@PEADHPEAHH@Z 000000018001e6cd f   node:node.exe
 0001:0001d6d9       __imp_load_?Length@String@v8@@QEBAHXZ 000000018001e6d9 f   node:node.exe
 0001:0001d6e5       __imp_load_?New@Number@v8@@SA?AV?$Local@VNumber@v8@@@2@PEAVIsolate@2@N@Z 000000018001e6e5 f   node:node.exe
 0001:0001d6f1       __imp_load_?SlowGetAlignedPointerFromInternalField@Object@v8@@AEAAPEAXH@Z 000000018001e6f1 f   node:node.exe
 0001:0001d6fd       __imp_load_?Get@Object@v8@@QEAA?AV?$Local@VValue@v8@@@2@V32@@Z 000000018001e6fd f   node:node.exe
 0001:0001d709       __imp_load_?Set@Object@v8@@QEAA?AV?$Maybe@_N@2@V?$Local@VContext@v8@@@2@V?$Local@VValue@v8@@@2@1@Z 000000018001e709 f   node:node.exe
 0001:0001d715       __imp_load_?Call@Function@v8@@QEAA?AV?$MaybeLocal@VValue@v8@@@2@V?$Local@VContext@v8@@@2@V?$Local@VValue@v8@@@2@HQEAV52@@Z 000000018001e715 f   node:node.exe
 0001:0001d721       __imp_load_?SetAccessor@ObjectTemplate@v8@@QEAAXV?$Local@VName@v8@@@2@P6AX0AEBV?$PropertyCallbackInfo@VValue@v8@@@2@@ZP6AX0V?$Local@VValue@v8@@@2@AEBV?$PropertyCallbackInfo@X@2@@Z3W4AccessControl@2@W4PropertyAttribute@2@V?$Local@VAccessorSignature@v8@@@2@W4SideEffectType@2@@Z 000000018001e721 f   node:node.exe
 0001:0001d72d       __imp_load_?EmitAsyncDestroy@node@@YAXPEAVIsolate@v8@@Uasync_context@1@@Z 000000018001e72d f   node:node.exe
 0001:0001d739       __imp_load_?New@Buffer@node@@YA?AV?$MaybeLocal@VObject@v8@@@v8@@PEAVIsolate@4@PEAD_KP6AX1PEAX@Z3@Z 000000018001e739 f   node:node.exe
 0001:0001d745       __imp_load_?New@Buffer@node@@YA?AV?$MaybeLocal@VObject@v8@@@v8@@PEAVIsolate@4@PEAD_K@Z 000000018001e745 f   node:node.exe
 0001:0001d751       __imp_load_?Copy@Buffer@node@@YA?AV?$MaybeLocal@VObject@v8@@@v8@@PEAVIsolate@4@PEBD_K@Z 000000018001e751 f   node:node.exe
 0001:0001d75d       __imp_load_?MakeCallback@node@@YA?AV?$MaybeLocal@VValue@v8@@@v8@@PEAVIsolate@3@V?$Local@VObject@v8@@@3@V?$Local@VFunction@v8@@@3@HPEAV?$Local@VValue@v8@@@3@Uasync_context@1@@Z 000000018001e75d f   node:node.exe
 0001:0001d769       __imp_load_?EmitAsyncInit@node@@YA?AUasync_context@1@PEAVIsolate@v8@@V?$Local@VObject@v8@@@4@V?$Local@VString@v8@@@4@N@Z 000000018001e769 f   node:node.exe
 0001:0001d775       __imp_load_uv_default_loop 000000018001e775 f   node:node.exe
 0001:0001d781       __imp_load_?New@Uint8ClampedArray@v8@@SA?AV?$Local@VUint8ClampedArray@v8@@@2@V?$Local@VArrayBuffer@v8@@@2@_K1@Z 000000018001e781 f   node:node.exe
 0001:0001d78d       __imp_load_?New@Integer@v8@@SA?AV?$Local@VInteger@v8@@@2@PEAVIsolate@2@H@Z 000000018001e78d f   node:node.exe
 0001:0001d799       __imp_load_?New@Array@v8@@SA?AV?$Local@VArray@v8@@@2@PEAVIsolate@2@H@Z 000000018001e799 f   node:node.exe
 0001:0001d7a5       __imp_load_?Length@Array@v8@@QEBAIXZ 000000018001e7a5 f   node:node.exe
 0001:0001d7b1       __imp_load_?GetFunction@FunctionTemplate@v8@@QEAA?AV?$MaybeLocal@VFunction@v8@@@2@V?$Local@VContext@v8@@@2@@Z 000000018001e7b1 f   node:node.exe
 0001:0001d7bd       __imp_load_?New@ArrayBuffer@v8@@SA?AV?$Local@VArrayBuffer@v8@@@2@PEAVIsolate@2@_K@Z 000000018001e7bd f   node:node.exe
 0001:0001d7c9       __imp_load_?Int32Value@Value@v8@@QEBA?AV?$Maybe@H@2@V?$Local@VContext@v8@@@2@@Z 000000018001e7c9 f   node:node.exe
 0001:0001d7d5       __imp_load_?ToInt32@Value@v8@@QEBA?AV?$MaybeLocal@VInt32@v8@@@2@V?$Local@VContext@v8@@@2@@Z 000000018001e7d5 f   node:node.exe
 0001:0001d7e1       __imp_load_?ToString@Value@v8@@QEBA?AV?$MaybeLocal@VString@v8@@@2@V?$Local@VContext@v8@@@2@@Z 000000018001e7e1 f   node:node.exe
 0001:0001d7ed       __imp_load_?IsInt32@Value@v8@@QEBA_NXZ 000000018001e7ed f   node:node.exe
 0001:0001d7f9       __imp_load_?IsArray@Value@v8@@QEBA_NXZ 000000018001e7f9 f   node:node.exe
 0001:0001d805       __imp_load_?New@Uint16Array@v8@@SA?AV?$Local@VUint16Array@v8@@@2@V?$Local@VArrayBuffer@v8@@@2@_K1@Z 000000018001e805 f   node:node.exe
 0001:0001d811       __imp_load_?Get@Object@v8@@QEAA?AV?$Local@VValue@v8@@@2@I@Z 000000018001e811 f   node:node.exe
 0001:0001d81d       __imp_load_?NewInstance@Function@v8@@QEBA?AV?$MaybeLocal@VObject@v8@@@2@V?$Local@VContext@v8@@@2@HQEAV?$Local@VValue@v8@@@2@@Z 000000018001e81d f   node:node.exe
 0001:0001d829       __imp_load_?Call@Function@v8@@QEAA?AV?$Local@VValue@v8@@@2@V32@HQEAV32@@Z 000000018001e829 f   node:node.exe
 0001:0001d835       __imp_load_?HasInstance@Buffer@node@@YA_NV?$Local@VValue@v8@@@v8@@@Z 000000018001e835 f   node:node.exe
 0001:0001d841       __imp_load_?Data@Buffer@node@@YAPEADV?$Local@VObject@v8@@@v8@@@Z 000000018001e841 f   node:node.exe
 0001:0001d84d       __imp_load_?Length@Buffer@node@@YA_KV?$Local@VObject@v8@@@v8@@@Z 000000018001e84d f   node:node.exe
 0001:0001d859       __imp_load_?ErrnoException@node@@YA?AV?$Local@VValue@v8@@@v8@@PEAVIsolate@3@HPEBD11@Z 000000018001e859 f   node:node.exe
 0001:0001d865       __imp_load_?RangeError@Exception@v8@@SA?AV?$Local@VValue@v8@@@2@V?$Local@VString@v8@@@2@@Z 000000018001e865 f   node:node.exe
 0001:0001d871       __imp_load_?IsUint16Array@Value@v8@@QEBA_NXZ 000000018001e871 f   node:node.exe
 0001:0001d87d       __imp_load_node_module_register 000000018001e87d f   node:node.exe
 0001:0001d88c       ??0_Init_locks@std@@QEAA@XZ 000000018001e88c f   libcpmt:xlock.obj
 0001:0001d8d8       ??1_Init_locks@std@@QEAA@XZ 000000018001e8d8 f   libcpmt:xlock.obj
 0001:0001d91c       ??0exception@std@@QEAA@AEBV01@@Z 000000018001e91c f i libcpmt:xonce.obj
 0001:0001d954       ??_Eexception@std@@UEAAPEAXI@Z 000000018001e954 f i libcpmt:xonce.obj
 0001:0001d954       ??_Gbad_array_new_length@std@@UEAAPEAXI@Z 000000018001e954 f i LIBCMT:throw_bad_alloc.obj
 0001:0001d954       ??_Ebad_alloc@std@@UEAAPEAXI@Z 000000018001e954 f i libcpmt:xthrow.obj
 0001:0001d954       ??_Elength_error@std@@UEAAPEAXI@Z 000000018001e954 f i libcpmt:xthrow.obj
 0001:0001d954       ??_Ebad_function_call@std@@UEAAPEAXI@Z 000000018001e954 f i libcpmt:xthrow.obj
 0001:0001d954       ??_Gexception@std@@UEAAPEAXI@Z 000000018001e954 f i libcpmt:xonce.obj
 0001:0001d954       ??_Gbad_function_call@std@@UEAAPEAXI@Z 000000018001e954 f i libcpmt:xthrow.obj
 0001:0001d954       ??_Ebad_exception@std@@UEAAPEAXI@Z 000000018001e954 f i libvcruntime:frame.obj
 0001:0001d954       ??_Gbad_alloc@std@@UEAAPEAXI@Z 000000018001e954 f i libcpmt:xthrow.obj
 0001:0001d954       ??_Ebad_array_new_length@std@@UEAAPEAXI@Z 000000018001e954 f i LIBCMT:throw_bad_alloc.obj
 0001:0001d954       ??_Glength_error@std@@UEAAPEAXI@Z 000000018001e954 f i libcpmt:xthrow.obj
 0001:0001d954       ??_Glogic_error@std@@UEAAPEAXI@Z 000000018001e954 f i libcpmt:xthrow.obj
 0001:0001d954       ??_Gbad_exception@std@@UEAAPEAXI@Z 000000018001e954 f i libvcruntime:frame.obj
 0001:0001d954       ??_Elogic_error@std@@UEAAPEAXI@Z 000000018001e954 f i libcpmt:xthrow.obj
 0001:0001d998       ?what@exception@std@@UEBAPEBDXZ 000000018001e998 f i libcpmt:xonce.obj
 0001:0001d9ac       ??1_Fac_tidy_reg_t@std@@QEAA@XZ 000000018001e9ac f i libcpmt:locale0.obj
 0001:0001da14       ??0bad_alloc@std@@QEAA@AEBV01@@Z 000000018001ea14 f i libcpmt:xthrow.obj
 0001:0001da54       ??0bad_alloc@std@@QEAA@XZ  000000018001ea54 f i libcpmt:xthrow.obj
 0001:0001da74       ??0bad_function_call@std@@QEAA@AEBV01@@Z 000000018001ea74 f i libcpmt:xthrow.obj
 0001:0001dab4       ??0bad_function_call@std@@QEAA@XZ 000000018001eab4 f i libcpmt:xthrow.obj
 0001:0001dacc       ??0length_error@std@@QEAA@AEBV01@@Z 000000018001eacc f i libcpmt:xthrow.obj
 0001:0001db0c       ??0length_error@std@@QEAA@PEBD@Z 000000018001eb0c f i libcpmt:xthrow.obj
 0001:0001db58       ??0logic_error@std@@QEAA@AEBV01@@Z 000000018001eb58 f i libcpmt:xthrow.obj
 0001:0001db98       ??1bad_array_new_length@std@@UEAA@XZ 000000018001eb98 f i LIBCMT:throw_bad_alloc.obj
 0001:0001db98       ??1length_error@std@@UEAA@XZ 000000018001eb98 f i libcpmt:xthrow.obj
 0001:0001db98       ??1bad_function_call@std@@UEAA@XZ 000000018001eb98 f i libcpmt:xthrow.obj
 0001:0001db98       ??1bad_alloc@std@@UEAA@XZ  000000018001eb98 f i libcpmt:xthrow.obj
 0001:0001db98       ??1bad_exception@std@@UEAA@XZ 000000018001eb98 f i libvcruntime:frame.obj
 0001:0001dbac       ?_Xbad_function_call@std@@YAXXZ 000000018001ebac f   libcpmt:xthrow.obj
 0001:0001dbcc       ?_Xlength_error@std@@YAXPEBD@Z 000000018001ebcc f   libcpmt:xthrow.obj
 0001:0001dbf0       ?what@bad_function_call@std@@UEBAPEBDXZ 000000018001ebf0 f i libcpmt:xthrow.obj
 0001:0001dbf8       _Mtxdst                    000000018001ebf8 f   libcpmt:xmtx.obj
 0001:0001dc00       _Mtxinit                   000000018001ec00 f   libcpmt:xmtx.obj
 0001:0001e0e0       __crtInitializeCriticalSectionEx 000000018001f0e0 f   libcpmt:winapisupp.obj
 0001:0001e120       __security_check_cookie    000000018001f120 f   LIBCMT:_amdsecgs_.obj
 0001:0001e144       ??_V@YAXPEAX@Z             000000018001f144 f   LIBCMT:delete_array.obj
 0001:0001e144       ??3@YAXPEAX_K@Z            000000018001f144 f   LIBCMT:delete_scalar_size.obj
 0001:0001e14c       ??2@YAPEAX_K@Z             000000018001f14c f   LIBCMT:new_scalar.obj
 0001:0001e188       __scrt_acquire_startup_lock 000000018001f188 f   LIBCMT:utility.obj
 0001:0001e1c4       __scrt_dllmain_after_initialize_c 000000018001f1c4 f   LIBCMT:utility.obj
 0001:0001e1f8       __scrt_dllmain_before_initialize_c 000000018001f1f8 f   LIBCMT:utility.obj
 0001:0001e210       __scrt_dllmain_crt_thread_attach 000000018001f210 f   LIBCMT:utility.obj
 0001:0001e238       __scrt_dllmain_crt_thread_detach 000000018001f238 f   LIBCMT:utility.obj
 0001:0001e250       __scrt_dllmain_exception_filter 000000018001f250 f   LIBCMT:utility.obj
 0001:0001e2b0       __scrt_dllmain_uninitialize_c 000000018001f2b0 f   LIBCMT:utility.obj
 0001:0001e2e0       __scrt_dllmain_uninitialize_critical 000000018001f2e0 f   LIBCMT:utility.obj
 0001:0001e2f4       __scrt_initialize_crt      000000018001f2f4 f   LIBCMT:utility.obj
 0001:0001e340       __scrt_initialize_onexit_tables 000000018001f340 f   LIBCMT:utility.obj
 0001:0001e418       __scrt_is_nonwritable_in_current_image 000000018001f418 f   LIBCMT:utility.obj
 0001:0001e4b4       __scrt_release_startup_lock 000000018001f4b4 f   LIBCMT:utility.obj
 0001:0001e4d8       __scrt_uninitialize_crt    000000018001f4d8 f   LIBCMT:utility.obj
 0001:0001e504       _onexit                    000000018001f504 f   LIBCMT:utility.obj
 0001:0001e554       atexit                     000000018001f554 f   LIBCMT:utility.obj
 0001:0001e56c       ??_Gtype_info@@UEAAPEAXI@Z 000000018001f56c f i LIBCMT:std_type_info_static.obj
 0001:0001e56c       ??_Etype_info@@UEAAPEAXI@Z 000000018001f56c f i LIBCMT:std_type_info_static.obj
 0001:0001e598       ??_M@YAXPEAX_K1P6AX0@Z@Z   000000018001f598 f   LIBCMT:ehvecdtr.obj
 0001:0001e604       ?__ArrayUnwind@@YAXPEAX_K1P6AX0@Z@Z 000000018001f604 f   LIBCMT:ehvecdtr.obj
 0001:0001e668       ??_U@YAPEAX_K@Z            000000018001f668 f   LIBCMT:new_array.obj
 0001:0001e9a0       _DllMainCRTStartup         000000018001f9a0 f   LIBCMT:dll_dllmain.obj
 0001:0001e9e0       __GSHandlerCheck           000000018001f9e0 f   LIBCMT:_gshandler_.obj
 0001:0001ea00       __GSHandlerCheckCommon     000000018001fa00 f   LIBCMT:_gshandler_.obj
 0001:0001ea5c       __GSHandlerCheck_EH        000000018001fa5c f   LIBCMT:gshandlereh.obj
 0001:0001eaf0       _alloca_probe              000000018001faf0 f   LIBCMT:_chkstk_.obj
 0001:0001eaf0       __chkstk                   000000018001faf0 f   LIBCMT:_chkstk_.obj
 0001:0001eb44       __raise_securityfailure    000000018001fb44 f   LIBCMT:gs_report.obj
 0001:0001eb78       __report_gsfailure         000000018001fb78 f   LIBCMT:gs_report.obj
 0001:0001ec4c       __report_rangecheckfailure 000000018001fc4c f   LIBCMT:gs_report.obj
 0001:0001ec60       __report_securityfailure   000000018001fc60 f   LIBCMT:gs_report.obj
 0001:0001ede0       ??3@YAXPEAX@Z              000000018001fde0 f   LIBCMT:delete_scalar.obj
 0001:0001ede8       ??0bad_array_new_length@std@@QEAA@AEBV01@@Z 000000018001fde8 f i LIBCMT:throw_bad_alloc.obj
 0001:0001ee28       ??0bad_array_new_length@std@@QEAA@XZ 000000018001fe28 f i LIBCMT:throw_bad_alloc.obj
 0001:0001ee48       ?__scrt_throw_std_bad_alloc@@YAXXZ 000000018001fe48 f   LIBCMT:throw_bad_alloc.obj
 0001:0001ee68       ?__scrt_throw_std_bad_array_new_length@@YAXXZ 000000018001fe68 f   LIBCMT:throw_bad_alloc.obj
 0001:0001ee88       __isa_available_init       000000018001fe88 f   LIBCMT:_cpu_disp_.obj
 0001:0001f044       DllMain                    0000000180020044 f   LIBCMT:dll_dllmain_stub.obj
 0001:0001f044       _get_startup_argv_mode     0000000180020044 f   LIBCMT:argv_mode.obj
 0001:0001f04c       __scrt_is_ucrt_dll_in_use  000000018002004c f   LIBCMT:ucrt_detection.obj
 0001:0001f058       __crt_debugger_hook        0000000180020058 f   LIBCMT:utility_desktop.obj
 0001:0001f060       __scrt_fastfail            0000000180020060 f   LIBCMT:utility_desktop.obj
 0001:0001f1ac       __security_init_cookie     00000001800201ac f   LIBCMT:gs_support.obj
 0001:0001f258       ?__scrt_initialize_type_info@@YAXXZ 0000000180020258 f   LIBCMT:tncleanup.obj
 0001:0001f268       ?__scrt_uninitialize_type_info@@YAXXZ 0000000180020268 f   LIBCMT:tncleanup.obj
 0001:0001f274       __local_stdio_scanf_options 0000000180020274 f i LIBCMT:default_local_stdio_options.obj
 0001:0001f27c       __scrt_initialize_default_local_stdio_options 000000018002027c f   LIBCMT:default_local_stdio_options.obj
 0001:0001f298       __scrt_get_dyn_tls_init_callback 0000000180020298 f   LIBCMT:dyn_tls_init.obj
 0001:0001f2a0       _RTC_Initialize            00000001800202a0 f   LIBCMT:_initsect_.obj
 0001:0001f2dc       _RTC_Terminate             00000001800202dc f   LIBCMT:_initsect_.obj
 0001:0001f320       ??$_CallSETranslator@V__FrameHandler3@@@@YAHPEAUEHExceptionRecord@@PEA_KPEAU_CONTEXT@@PEAU_xDISPATCHER_CONTEXT@@PEBU_s_FuncInfo@@K1@Z 0000000180020320 f i libvcruntime:risctrnsctrl.obj
 0001:0001f374       ?CatchTryBlock@__FrameHandler3@@SAPEBU_s_TryBlockMapEntry@@PEBU_s_FuncInfo@@H@Z 0000000180020374 f   libvcruntime:risctrnsctrl.obj
 0001:0001f3cc       ?ExecutionInCatch@__FrameHandler3@@SA_NPEAU_xDISPATCHER_CONTEXT@@PEBU_s_FuncInfo@@@Z 00000001800203cc f   libvcruntime:risctrnsctrl.obj
 0001:0001f3f8       ?FrameUnwindToEmptyState@__FrameHandler3@@SAXPEA_KPEAU_xDISPATCHER_CONTEXT@@PEBU_s_FuncInfo@@@Z 00000001800203f8 f   libvcruntime:risctrnsctrl.obj
 0001:0001f45c       ?GetEstablisherFrame@__FrameHandler3@@SAPEA_KPEA_KPEAU_xDISPATCHER_CONTEXT@@PEBU_s_FuncInfo@@0@Z 000000018002045c f   libvcruntime:risctrnsctrl.obj
 0001:0001f528       ?GetRangeOfTrysToCheck@__FrameHandler3@@SA?AU?$pair@Viterator@TryBlockMap@__FrameHandler3@@V123@@std@@AEAVTryBlockMap@1@HH@Z 0000000180020528 f   libvcruntime:risctrnsctrl.obj
 0001:0001f684       ?UnwindNestedFrames@__FrameHandler3@@SAXPEA_KPEAUEHExceptionRecord@@PEAU_CONTEXT@@0PEAXPEBU_s_FuncInfo@@HHPEBU_s_HandlerType@@PEAU_xDISPATCHER_CONTEXT@@E@Z 0000000180020684 f   libvcruntime:risctrnsctrl.obj
 0001:0001f7a8       _CreateFrameInfo           00000001800207a8 f   libvcruntime:risctrnsctrl.obj
 0001:0001f7e4       _FindAndUnlinkFrame        00000001800207e4 f   libvcruntime:risctrnsctrl.obj
 0001:0001f838       _GetImageBase              0000000180020838 f   libvcruntime:risctrnsctrl.obj
 0001:0001f84c       _GetThrowImageBase         000000018002084c f   libvcruntime:risctrnsctrl.obj
 0001:0001f860       _SetImageBase              0000000180020860 f   libvcruntime:risctrnsctrl.obj
 0001:0001f878       _SetThrowImageBase         0000000180020878 f   libvcruntime:risctrnsctrl.obj
 0001:0001f890       __CxxFrameHandler3         0000000180020890 f   libvcruntime:risctrnsctrl.obj
 0001:0001f910       _purecall                  0000000180020910 f   libvcruntime:purevirt.obj
 0001:0001f940       __DestructExceptionObject  0000000180020940 f   libvcruntime:ehhelpers.obj
 0001:0001f9b4       ?_CallMemberFunction0@@YAXQEAX0@Z 00000001800209b4 f i libvcruntime:ehhelpers.obj
 0001:0001f9b8       _IsExceptionObjectToBeDestroyed 00000001800209b8 f   libvcruntime:ehhelpers.obj
 0001:0001f9e8       __AdjustPointer            00000001800209e8 f   libvcruntime:ehhelpers.obj
 0001:0001fa0c       __FrameUnwindFilter        0000000180020a0c f   libvcruntime:ehhelpers.obj
 0001:0001fa58       __std_terminate            0000000180020a58 f   libvcruntime:ehhelpers.obj
 0001:0001fa64       longjmp                    0000000180020a64 f   libvcruntime:longjmpc.obj
 0001:0001fa8c       strstr                     0000000180020a8c f   libvcruntime:strstr.obj
 0001:0001fc8c       __std_exception_copy       0000000180020c8c f   libvcruntime:std_exception.obj
 0001:0001fd1c       __std_exception_destroy    0000000180020d1c f   libvcruntime:std_exception.obj
 0001:0001fd44       _CxxThrowException         0000000180020d44 f   libvcruntime:throw.obj
 0001:0001fe20       memcpy_repmovs             0000000180020e20 f   libvcruntime:memcpy.obj
 0001:0001fe40       memcpy                     0000000180020e40 f   libvcruntime:memcpy.obj
 0001:0001fe40       memmove                    0000000180020e40 f   libvcruntime:memcpy.obj
 0001:00020290       memset_repmovs             0000000180021290 f   libvcruntime:memset.obj
 0001:000202b0       memset                     00000001800212b0 f   libvcruntime:memset.obj
 0001:00020450       memchr                     0000000180021450 f   libvcruntime:memchr.obj
 0001:000204d0       memcmp                     00000001800214d0 f   libvcruntime:memcmp.obj
 0001:00020598       __vcrt_initialize          0000000180021598 f   libvcruntime:initialization.obj
 0001:000205cc       __vcrt_thread_attach       00000001800215cc f   libvcruntime:initialization.obj
 0001:000205e0       __vcrt_thread_detach       00000001800215e0 f   libvcruntime:initialization.obj
 0001:000205f4       __vcrt_uninitialize        00000001800215f4 f   libvcruntime:initialization.obj
 0001:00020614       __vcrt_uninitialize_critical 0000000180021614 f   libvcruntime:initialization.obj
 0001:00020624       __C_specific_handler       0000000180021624 f   libvcruntime:_riscchandler_.obj
 0001:00020830       __std_type_info_compare    0000000180021830 f   libvcruntime:std_type_info.obj
 0001:00020858       __std_type_info_destroy_list 0000000180021858 f   libvcruntime:std_type_info.obj
 0001:00020884       __vcrt_freefls             0000000180021884 f   libvcruntime:per_thread_data.obj
 0001:000208a4       __vcrt_freeptd             00000001800218a4 f   libvcruntime:per_thread_data.obj
 0001:000208f4       __vcrt_getptd              00000001800218f4 f   libvcruntime:per_thread_data.obj
 0001:00020910       __vcrt_getptd_noexit       0000000180021910 f   libvcruntime:per_thread_data.obj
 0001:000209dc       __vcrt_initialize_ptd      00000001800219dc f   libvcruntime:per_thread_data.obj
 0001:00020a30       __vcrt_uninitialize_ptd    0000000180021a30 f   libvcruntime:per_thread_data.obj
 0001:00020a54       ?GetCurrentState@__FrameHandler3@@SAHPEA_KPEAU_xDISPATCHER_CONTEXT@@PEBU_s_FuncInfo@@@Z 0000000180021a54 f   libvcruntime:ehstate.obj
 0001:00020a7c       ?GetUnwindTryBlock@__FrameHandler3@@SAHPEA_KPEAU_xDISPATCHER_CONTEXT@@PEBU_s_FuncInfo@@@Z 0000000180021a7c f   libvcruntime:ehstate.obj
 0001:00020aa8       ?SetState@__FrameHandler3@@SAXPEA_KPEBU_s_FuncInfo@@H@Z 0000000180021aa8 f   libvcruntime:ehstate.obj
 0001:00020ab4       ?SetUnwindTryBlock@__FrameHandler3@@SAXPEA_KPEAU_xDISPATCHER_CONTEXT@@PEBU_s_FuncInfo@@H@Z 0000000180021ab4 f   libvcruntime:ehstate.obj
 0001:00020af0       ?StateFromControlPc@__FrameHandler3@@SAHPEBU_s_FuncInfo@@PEAU_xDISPATCHER_CONTEXT@@@Z 0000000180021af0 f   libvcruntime:ehstate.obj
 0001:00020af8       ?StateFromIp@__FrameHandler3@@SAHPEBU_s_FuncInfo@@PEAU_xDISPATCHER_CONTEXT@@_K@Z 0000000180021af8 f   libvcruntime:ehstate.obj
 0001:00021584       ??$TypeMatchHelper@$$CBU_s_HandlerType@@@@YAHPEBU_s_HandlerType@@PEBU_s_CatchableType@@PEBU_s_ThrowInfo@@@Z 0000000180022584 f i libvcruntime:frame.obj
 0001:000216c8       ??$__InternalCxxFrameHandler@V__FrameHandler3@@@@YA?AW4_EXCEPTION_DISPOSITION@@PEAUEHExceptionRecord@@PEA_KPEAU_CONTEXT@@PEAU_xDISPATCHER_CONTEXT@@PEBU_s_FuncInfo@@H1E@Z 00000001800226c8 f i libvcruntime:frame.obj
 0001:00021910       ??0bad_exception@std@@QEAA@AEBV01@@Z 0000000180022910 f i libvcruntime:frame.obj
 0001:00021950       ??0bad_exception@std@@QEAA@XZ 0000000180022950 f i libvcruntime:frame.obj
 0001:00021970       ?CxxCallCatchBlock@__FrameHandler3@@SAPEAXPEAU_EXCEPTION_RECORD@@@Z 0000000180022970 f   libvcruntime:frame.obj
 0001:00021be4       ?FrameUnwindToState@__FrameHandler3@@SAXPEA_KPEAU_xDISPATCHER_CONTEXT@@PEBU_s_FuncInfo@@H@Z 0000000180022be4 f   libvcruntime:frame.obj
 0001:00021d78       ?GetHandlerSearchState@__FrameHandler3@@SAHPEA_KPEAU_xDISPATCHER_CONTEXT@@PEBU_s_FuncInfo@@@Z 0000000180022d78 f i libvcruntime:frame.obj
 0001:00021f7c       ?_CallMemberFunction1@@YAXQEAX00@Z 0000000180022f7c f i libvcruntime:frame.obj
 0001:00021f88       ?_CallMemberFunction2@@YAXQEAX00H@Z 0000000180022f88 f i libvcruntime:frame.obj
 0001:00021f98       __vcrt_initialize_pure_virtual_call_handler 0000000180022f98 f   libvcruntime:purevirt_data.obj
 0001:00021fb0       __except_validate_context_record 0000000180022fb0 f   libvcruntime:jbcxrval.obj
 0001:00021fe8       __except_validate_jump_buffer 0000000180022fe8 f   libvcruntime:jbcxrval.obj
 0001:00022028       __vcrt_initialize_locks    0000000180023028 f   libvcruntime:locks.obj
 0001:00022070       __vcrt_uninitialize_locks  0000000180023070 f   libvcruntime:locks.obj
 0001:00022280       __vcrt_FlsAlloc            0000000180023280 f   libvcruntime:winapi_downlevel.obj
 0001:000222c8       __vcrt_FlsFree             00000001800232c8 f   libvcruntime:winapi_downlevel.obj
 0001:00022310       __vcrt_FlsGetValue         0000000180023310 f   libvcruntime:winapi_downlevel.obj
 0001:00022358       __vcrt_FlsSetValue         0000000180023358 f   libvcruntime:winapi_downlevel.obj
 0001:000223ac       __vcrt_InitializeCriticalSectionEx 00000001800233ac f   libvcruntime:winapi_downlevel.obj
 0001:00022410       __vcrt_initialize_winapi_thunks 0000000180023410 f   libvcruntime:winapi_downlevel.obj
 0001:00022440       __vcrt_uninitialize_winapi_thunks 0000000180023440 f   libvcruntime:winapi_downlevel.obj
 0001:00022490       _NLG_Notify                0000000180023490 f   libvcruntime:_notify_.obj
 0001:000224b0       __NLG_Dispatch2            00000001800234b0 f   libvcruntime:_notify_.obj
 0001:000224c0       __NLG_Return2              00000001800234c0 f   libvcruntime:_notify_.obj
 0001:000224e0       _CallSettingFrame          00000001800234e0 f   libvcruntime:handlers.obj
 0001:00022530       _CallSettingFrameEncoded   0000000180023530 f   libvcruntime:handlers.obj
 0001:00022578       abort                      0000000180023578 f   libucrt:abort.obj
 0001:000225d0       __acrt_call_reportfault    00000001800235d0 f   libucrt:invalid_parameter.obj
 0001:0002272c       __acrt_initialize_invalid_parameter_handler 000000018002372c f   libucrt:invalid_parameter.obj
 0001:00022734       _invalid_parameter         0000000180023734 f   libucrt:invalid_parameter.obj
 0001:000227e4       _invalid_parameter_noinfo  00000001800237e4 f   libucrt:invalid_parameter.obj
 0001:00022804       _invalid_parameter_noinfo_noreturn 0000000180023804 f   libucrt:invalid_parameter.obj
 0001:00022834       _invoke_watson             0000000180023834 f   libucrt:invalid_parameter.obj
 0001:0002287c       free                       000000018002387c f   libucrt:free.obj
 0001:00022fa8       ??$ftprintf@PEAU_iobuf@@PEB_WAEBQEB_WAEBQEB_WAEBI@?$__crt_char_traits@_W@@SAH$$QEAPEAU_iobuf@@$$QEAPEB_WAEBQEB_W2AEBI@Z 0000000180023fa8 f i libucrt:assert.obj
 0001:00022fd0       _wassert                   0000000180023fd0 f   libucrt:assert.obj
 0001:00023044       fwprintf                   0000000180024044 f i libucrt:assert.obj
 0001:00023088       swprintf                   0000000180024088 f i libucrt:assert.obj
 0001:000230dc       round                      00000001800240dc f   libucrt:round.obj
 0001:00023144       malloc                     0000000180024144 f   libucrt:malloc.obj
 0001:0002314c       _isnan                     000000018002414c f   libucrt:ieeemisc.obj
 0001:00023178       _finite                    0000000180024178 f   libucrt:_finite.obj
 0001:000231a4       __acrt_initialize_stdio    00000001800241a4 f   libucrt:_file.obj
 0001:000232c4       __acrt_iob_func            00000001800242c4 f   libucrt:_file.obj
 0001:000232d8       __acrt_uninitialize_stdio  00000001800242d8 f   libucrt:_file.obj
 0001:00023334       _lock_file                 0000000180024334 f   libucrt:_file.obj
 0001:00023340       _unlock_file               0000000180024340 f   libucrt:_file.obj
 0001:0002334c       ??0_LocaleUpdate@@QEAA@QEAU__crt_locale_pointers@@@Z 000000018002434c f i libucrt:tolower_toupper.obj
 0001:00023448       _tolower_l                 0000000180024448 f   libucrt:tolower_toupper.obj
 0001:00023588       tolower                    0000000180024588 f   libucrt:tolower_toupper.obj
 0001:00023994       ??$ensure_buffer_is_big_enough@D@formatting_buffer@__crt_stdio_output@@QEAA_N_K@Z 0000000180024994 f i libucrt:output.obj
 0001:00023a3c       ??$ensure_buffer_is_big_enough@_W@formatting_buffer@__crt_stdio_output@@QEAA_N_K@Z 0000000180024a3c f i libucrt:output.obj
 0001:00023ae8       ??$is_wide_character_specifier@_W@__crt_stdio_output@@YA_N_K_WW4length_modifier@0@@Z 0000000180024ae8 f i libucrt:output.obj
 0001:00023b28       ??$type_case_integer_parse_into_buffer@I@?$output_processor@DV?$string_output_adapter@D@__crt_stdio_output@@V?$standard_base@DV?$string_output_adapter@D@__crt_stdio_output@@@2@@__crt_stdio_output@@AEAAXII_N@Z 0000000180024b28 f i libucrt:output.obj
 0001:00023bb8       ??$type_case_integer_parse_into_buffer@I@?$output_processor@_WV?$stream_output_adapter@_W@__crt_stdio_output@@V?$standard_base@_WV?$stream_output_adapter@_W@__crt_stdio_output@@@2@@__crt_stdio_output@@AEAAXII_N@Z 0000000180024bb8 f i libucrt:output.obj
 0001:00023bb8       ??$type_case_integer_parse_into_buffer@I@?$output_processor@_WV?$string_output_adapter@_W@__crt_stdio_output@@V?$standard_base@_WV?$string_output_adapter@_W@__crt_stdio_output@@@2@@__crt_stdio_output@@AEAAXII_N@Z 0000000180024bb8 f i libucrt:output.obj
 0001:00023c5c       ??$type_case_integer_parse_into_buffer@_K@?$output_processor@DV?$string_output_adapter@D@__crt_stdio_output@@V?$standard_base@DV?$string_output_adapter@D@__crt_stdio_output@@@2@@__crt_stdio_output@@AEAAX_KI_N@Z 0000000180024c5c f i libucrt:output.obj
 0001:00023cf0       ??$type_case_integer_parse_into_buffer@_K@?$output_processor@_WV?$string_output_adapter@_W@__crt_stdio_output@@V?$standard_base@_WV?$string_output_adapter@_W@__crt_stdio_output@@@2@@__crt_stdio_output@@AEAAX_KI_N@Z 0000000180024cf0 f i libucrt:output.obj
 0001:00023cf0       ??$type_case_integer_parse_into_buffer@_K@?$output_processor@_WV?$stream_output_adapter@_W@__crt_stdio_output@@V?$standard_base@_WV?$stream_output_adapter@_W@__crt_stdio_output@@@2@@__crt_stdio_output@@AEAAX_KI_N@Z 0000000180024cf0 f i libucrt:output.obj
 0001:00023d94       ??$write_multiple_characters@V?$stream_output_adapter@_W@__crt_stdio_output@@D@__crt_stdio_output@@YAXAEBV?$stream_output_adapter@_W@0@DHQEAH@Z 0000000180024d94 f i libucrt:output.obj
 0001:00023e28       ??$write_multiple_characters@V?$string_output_adapter@D@__crt_stdio_output@@D@__crt_stdio_output@@YAXAEBV?$string_output_adapter@D@0@DHQEAH@Z 0000000180024e28 f i libucrt:output.obj
 0001:00023ea0       ??$write_multiple_characters@V?$string_output_adapter@_W@__crt_stdio_output@@D@__crt_stdio_output@@YAXAEBV?$string_output_adapter@_W@0@DHQEAH@Z 0000000180024ea0 f i libucrt:output.obj
 0001:00024050       ?crop_zeroes@__crt_stdio_output@@YAXPEADQEAU__crt_locale_pointers@@@Z 0000000180025050 f i libucrt:output.obj
 0001:000240bc       ?force_decimal_point@__crt_stdio_output@@YAXPEADQEAU__crt_locale_pointers@@@Z 00000001800250bc f i libucrt:output.obj
 0001:0002412c       ?parse_int_from_format_string@?$output_processor@DV?$string_output_adapter@D@__crt_stdio_output@@V?$standard_base@DV?$string_output_adapter@D@__crt_stdio_output@@@2@@__crt_stdio_output@@AEAA_NQEAH@Z 000000018002512c f i libucrt:output.obj
 0001:000241d0       ?parse_int_from_format_string@?$output_processor@_WV?$stream_output_adapter@_W@__crt_stdio_output@@V?$standard_base@_WV?$stream_output_adapter@_W@__crt_stdio_output@@@2@@__crt_stdio_output@@AEAA_NQEAH@Z 00000001800251d0 f i libucrt:output.obj
 0001:000241d0       ?parse_int_from_format_string@?$output_processor@_WV?$string_output_adapter@_W@__crt_stdio_output@@V?$standard_base@_WV?$string_output_adapter@_W@__crt_stdio_output@@@2@@__crt_stdio_output@@AEAA_NQEAH@Z 00000001800251d0 f i libucrt:output.obj
 0001:00024274       ?process@?$output_processor@DV?$string_output_adapter@D@__crt_stdio_output@@V?$standard_base@DV?$string_output_adapter@D@__crt_stdio_output@@@2@@__crt_stdio_output@@QEAAHXZ 0000000180025274 f i libucrt:output.obj
 0001:00024480       ?process@?$output_processor@_WV?$stream_output_adapter@_W@__crt_stdio_output@@V?$standard_base@_WV?$stream_output_adapter@_W@__crt_stdio_output@@@2@@__crt_stdio_output@@QEAAHXZ 0000000180025480 f i libucrt:output.obj
 0001:000246ec       ?process@?$output_processor@_WV?$string_output_adapter@_W@__crt_stdio_output@@V?$standard_base@_WV?$string_output_adapter@_W@__crt_stdio_output@@@2@@__crt_stdio_output@@QEAAHXZ 00000001800256ec f i libucrt:output.obj
 0001:00024968       ?state_case_normal@?$output_processor@DV?$string_output_adapter@D@__crt_stdio_output@@V?$standard_base@DV?$string_output_adapter@D@__crt_stdio_output@@@2@@__crt_stdio_output@@AEAA_NXZ 0000000180025968 f i libucrt:output.obj
 0001:000249dc       ?state_case_normal_tchar@?$output_processor@DV?$string_output_adapter@D@__crt_stdio_output@@V?$standard_base@DV?$string_output_adapter@D@__crt_stdio_output@@@2@@__crt_stdio_output@@AEAA_ND@Z 00000001800259dc f i libucrt:output.obj
 0001:00024a84       ?state_case_size@?$output_processor@DV?$string_output_adapter@D@__crt_stdio_output@@V?$standard_base@DV?$string_output_adapter@D@__crt_stdio_output@@@2@@__crt_stdio_output@@AEAA_NXZ 0000000180025a84 f i libucrt:output.obj
 0001:00024bf8       ?state_case_size@?$output_processor@_WV?$stream_output_adapter@_W@__crt_stdio_output@@V?$standard_base@_WV?$stream_output_adapter@_W@__crt_stdio_output@@@2@@__crt_stdio_output@@AEAA_NXZ 0000000180025bf8 f i libucrt:output.obj
 0001:00024d90       ?state_case_size@?$output_processor@_WV?$string_output_adapter@_W@__crt_stdio_output@@V?$standard_base@_WV?$string_output_adapter@_W@__crt_stdio_output@@@2@@__crt_stdio_output@@AEAA_NXZ 0000000180025d90 f i libucrt:output.obj
 0001:00024f28       ?state_case_type@?$output_processor@DV?$string_output_adapter@D@__crt_stdio_output@@V?$standard_base@DV?$string_output_adapter@D@__crt_stdio_output@@@2@@__crt_stdio_output@@AEAA_NXZ 0000000180025f28 f i libucrt:output.obj
 0001:00025190       ?state_case_type@?$output_processor@_WV?$stream_output_adapter@_W@__crt_stdio_output@@V?$standard_base@_WV?$stream_output_adapter@_W@__crt_stdio_output@@@2@@__crt_stdio_output@@AEAA_NXZ 0000000180026190 f i libucrt:output.obj
 0001:00025470       ?state_case_type@?$output_processor@_WV?$string_output_adapter@_W@__crt_stdio_output@@V?$standard_base@_WV?$string_output_adapter@_W@__crt_stdio_output@@@2@@__crt_stdio_output@@AEAA_NXZ 0000000180026470 f i libucrt:output.obj
 0001:0002573c       ?type_case_Z@?$output_processor@DV?$string_output_adapter@D@__crt_stdio_output@@V?$standard_base@DV?$string_output_adapter@D@__crt_stdio_output@@@2@@__crt_stdio_output@@AEAA_NXZ 000000018002673c f i libucrt:output.obj
 0001:000257b4       ?type_case_Z@?$output_processor@_WV?$string_output_adapter@_W@__crt_stdio_output@@V?$standard_base@_WV?$string_output_adapter@_W@__crt_stdio_output@@@2@@__crt_stdio_output@@AEAA_NXZ 00000001800267b4 f i libucrt:output.obj
 0001:000257b4       ?type_case_Z@?$output_processor@_WV?$stream_output_adapter@_W@__crt_stdio_output@@V?$standard_base@_WV?$stream_output_adapter@_W@__crt_stdio_output@@@2@@__crt_stdio_output@@AEAA_NXZ 00000001800267b4 f i libucrt:output.obj
 0001:00025830       ?type_case_a@?$output_processor@DV?$string_output_adapter@D@__crt_stdio_output@@V?$standard_base@DV?$string_output_adapter@D@__crt_stdio_output@@@2@@__crt_stdio_output@@AEAA_NXZ 0000000180026830 f i libucrt:output.obj
 0001:000259ec       ?type_case_a@?$output_processor@_WV?$string_output_adapter@_W@__crt_stdio_output@@V?$standard_base@_WV?$string_output_adapter@_W@__crt_stdio_output@@@2@@__crt_stdio_output@@AEAA_NXZ 00000001800269ec f i libucrt:output.obj
 0001:000259ec       ?type_case_a@?$output_processor@_WV?$stream_output_adapter@_W@__crt_stdio_output@@V?$standard_base@_WV?$stream_output_adapter@_W@__crt_stdio_output@@@2@@__crt_stdio_output@@AEAA_NXZ 00000001800269ec f i libucrt:output.obj
 0001:00025bcc       ?type_case_c_tchar@?$output_processor@DV?$string_output_adapter@D@__crt_stdio_output@@V?$standard_base@DV?$string_output_adapter@D@__crt_stdio_output@@@2@@__crt_stdio_output@@AEAA_ND@Z 0000000180026bcc f i libucrt:output.obj
 0001:00025c88       ?type_case_c_tchar@?$output_processor@_WV?$string_output_adapter@_W@__crt_stdio_output@@V?$standard_base@_WV?$string_output_adapter@_W@__crt_stdio_output@@@2@@__crt_stdio_output@@AEAA_N_W@Z 0000000180026c88 f i libucrt:output.obj
 0001:00025c88       ?type_case_c_tchar@?$output_processor@_WV?$stream_output_adapter@_W@__crt_stdio_output@@V?$standard_base@_WV?$stream_output_adapter@_W@__crt_stdio_output@@@2@@__crt_stdio_output@@AEAA_N_W@Z 0000000180026c88 f i libucrt:output.obj
 0001:00025d30       ?type_case_integer@?$output_processor@DV?$string_output_adapter@D@__crt_stdio_output@@V?$standard_base@DV?$string_output_adapter@D@__crt_stdio_output@@@2@@__crt_stdio_output@@AEAA_NI_N@Z 0000000180026d30 f i libucrt:output.obj
 0001:00025ef8       ?type_case_integer@?$output_processor@_WV?$string_output_adapter@_W@__crt_stdio_output@@V?$standard_base@_WV?$string_output_adapter@_W@__crt_stdio_output@@@2@@__crt_stdio_output@@AEAA_NI_N@Z 0000000180026ef8 f i libucrt:output.obj
 0001:00025ef8       ?type_case_integer@?$output_processor@_WV?$stream_output_adapter@_W@__crt_stdio_output@@V?$standard_base@_WV?$stream_output_adapter@_W@__crt_stdio_output@@@2@@__crt_stdio_output@@AEAA_NI_N@Z 0000000180026ef8 f i libucrt:output.obj
 0001:000260c4       ?type_case_n@?$output_processor@_WV?$stream_output_adapter@_W@__crt_stdio_output@@V?$standard_base@_WV?$stream_output_adapter@_W@__crt_stdio_output@@@2@@__crt_stdio_output@@AEAA_NXZ 00000001800270c4 f i libucrt:output.obj
 0001:000260c4       ?type_case_n@?$output_processor@_WV?$string_output_adapter@_W@__crt_stdio_output@@V?$standard_base@_WV?$string_output_adapter@_W@__crt_stdio_output@@@2@@__crt_stdio_output@@AEAA_NXZ 00000001800270c4 f i libucrt:output.obj
 0001:000260c4       ?type_case_n@?$output_processor@DV?$string_output_adapter@D@__crt_stdio_output@@V?$standard_base@DV?$string_output_adapter@D@__crt_stdio_output@@@2@@__crt_stdio_output@@AEAA_NXZ 00000001800270c4 f i libucrt:output.obj
 0001:000261a0       ?type_case_s@?$output_processor@DV?$string_output_adapter@D@__crt_stdio_output@@V?$standard_base@DV?$string_output_adapter@D@__crt_stdio_output@@@2@@__crt_stdio_output@@AEAA_NXZ 00000001800271a0 f i libucrt:output.obj
 0001:00026238       ?type_case_s@?$output_processor@_WV?$stream_output_adapter@_W@__crt_stdio_output@@V?$standard_base@_WV?$stream_output_adapter@_W@__crt_stdio_output@@@2@@__crt_stdio_output@@AEAA_NXZ 0000000180027238 f i libucrt:output.obj
 0001:00026238       ?type_case_s@?$output_processor@_WV?$string_output_adapter@_W@__crt_stdio_output@@V?$standard_base@_WV?$string_output_adapter@_W@__crt_stdio_output@@@2@@__crt_stdio_output@@AEAA_NXZ 0000000180027238 f i libucrt:output.obj
 0001:00026300       ?write_stored_string_tchar@?$output_processor@DV?$string_output_adapter@D@__crt_stdio_output@@V?$standard_base@DV?$string_output_adapter@D@__crt_stdio_output@@@2@@__crt_stdio_output@@AEAA_ND@Z 0000000180027300 f i libucrt:output.obj
 0001:000263d8       ?write_stored_string_tchar@?$output_processor@_WV?$stream_output_adapter@_W@__crt_stdio_output@@V?$standard_base@_WV?$stream_output_adapter@_W@__crt_stdio_output@@@2@@__crt_stdio_output@@AEAA_N_W@Z 00000001800273d8 f i libucrt:output.obj
 0001:000264e0       ?write_stored_string_tchar@?$output_processor@_WV?$string_output_adapter@_W@__crt_stdio_output@@V?$standard_base@_WV?$string_output_adapter@_W@__crt_stdio_output@@@2@@__crt_stdio_output@@AEAA_N_W@Z 00000001800274e0 f i libucrt:output.obj
 0001:000265cc       ?write_string@?$string_output_adapter@D@__crt_stdio_output@@QEBAXQEBDHQEAHAEAV__crt_deferred_errno_cache@@@Z 00000001800275cc f i libucrt:output.obj
 0001:00026670       ?write_string@?$string_output_adapter@_W@__crt_stdio_output@@QEBAXQEB_WHQEAHAEAV__crt_deferred_errno_cache@@@Z 0000000180027670 f i libucrt:output.obj
 0001:00026718       ?write_string_impl@?$output_adapter_common@_WV?$stream_output_adapter@_W@__crt_stdio_output@@@__crt_stdio_output@@IEBAXQEB_WHQEAHAEAV__crt_deferred_errno_cache@@@Z 0000000180027718 f i libucrt:output.obj
 0001:0002681c       __stdio_common_vfwprintf   000000018002781c f   libucrt:output.obj
 0001:000268a8       __stdio_common_vsprintf    00000001800278a8 f   libucrt:output.obj
 0001:000268b0       __stdio_common_vswprintf   00000001800278b0 f   libucrt:output.obj
 0001:00026da4       _ftelli64_nolock           0000000180027da4 f   libucrt:ftell.obj
 0001:00026dac       ftell                      0000000180027dac f   libucrt:ftell.obj
 0001:00026e70       fopen                      0000000180027e70 f   libucrt:fopen.obj
 0001:00026e7c       _fclose_nolock             0000000180027e7c f   libucrt:fclose.obj
 0001:00026f00       fclose                     0000000180027f00 f   libucrt:fclose.obj
 0001:0002716c       fseek                      000000018002816c f   libucrt:fseek.obj
 0001:00027174       rewind                     0000000180028174 f   libucrt:rewind.obj
 0001:00027238       __acrt_errno_from_os_error 0000000180028238 f   libucrt:errno.obj
 0001:00027280       __acrt_errno_map_os_error  0000000180028280 f   libucrt:errno.obj
 0001:000272d0       __doserrno                 00000001800282d0 f   libucrt:errno.obj
 0001:000272f0       _errno                     00000001800282f0 f   libucrt:errno.obj
 0001:00027310       _fread_nolock_s            0000000180028310 f   libucrt:fread.obj
 0001:000275a0       fread                      00000001800285a0 f   libucrt:fread.obj
 0001:000275c0       fread_s                    00000001800285c0 f   libucrt:fread.obj
 0001:00027728       ??$__acrt_mbs_to_wcs_cp@U__crt_win32_buffer_internal_dynamic_resizing@@@@YAHQEBDAEAV?$__crt_win32_buffer@_WU__crt_win32_buffer_internal_dynamic_resizing@@@@I@Z 0000000180028728 f i libucrt:stat.obj
 0001:00027c84       _fstat64i32                0000000180028c84 f   libucrt:stat.obj
 0001:00027d78       realloc                    0000000180028d78 f   libucrt:realloc.obj
 0001:00027d80       __ascii_stricmp            0000000180028d80 f   libucrt:stricmp.obj
 0001:00027dc0       _stricmp                   0000000180028dc0 f   libucrt:stricmp.obj
 0001:00027e08       _stricmp_l                 0000000180028e08 f   libucrt:stricmp.obj
 0001:00027ebc       __acrt_initialize_locks    0000000180028ebc f   libucrt:locks.obj
 0001:00027f04       __acrt_lock                0000000180028f04 f   libucrt:locks.obj
 0001:00027f20       __acrt_uninitialize_locks  0000000180028f20 f   libucrt:locks.obj
 0001:00027f58       __acrt_unlock              0000000180028f58 f   libucrt:locks.obj
 0001:00027f74       terminate                  0000000180028f74 f   libucrt:terminate.obj
 0001:00027f94       calloc                     0000000180028f94 f   libucrt:calloc.obj
 0001:00027f9c       __pctype_func              0000000180028f9c f   libucrt:ctype.obj
 0001:00027fcc       isdigit                    0000000180028fcc f i libucrt:_ctype.obj
 0001:00028060       ___lc_codepage_func        0000000180029060 f   libucrt:initctype.obj
 0001:00028090       ?divide@__crt_strtox@@YA_KAEAUbig_integer@1@AEBU21@@Z 0000000180029090 f i libucrt:strtod.obj
 0001:00028550       pow                        0000000180029550 f   libucrt:pow.obj
 0001:00029bf0       powf                       000000018002abf0 f   libucrt:powf.obj
 0001:0002aab8       __strncnt                  000000018002bab8 f   libucrt:strncnt.obj
 0001:0002aad0       ??$__acrt_wcs_to_mbs_cp@U__crt_win32_buffer_no_resizing@@@@YAHQEB_WAEAV?$__crt_win32_buffer@DU__crt_win32_buffer_no_resizing@@@@I@Z 000000018002bad0 f i libucrt:strftime.obj
 0001:0002abe4       ??$__crt_time_is_leap_year@H@@YA_NH@Z 000000018002bbe4 f i libucrt:wcsftime.obj
 0001:0002ac44       wcscpy_s                   000000018002bc44 f   libucrt:wcscpy_s.obj
 0001:0002acac       strnlen                    000000018002bcac f   libucrt:strnlen.obj
 0001:0002adfc       wcsnlen                    000000018002bdfc f   libucrt:strnlen.obj
 0001:0002afd4       __acrt_initialize_new_handler 000000018002bfd4 f   libucrt:new_handler.obj
 0001:0002afdc       _callnewh                  000000018002bfdc f   libucrt:new_handler.obj
 0001:0002b00c       _query_new_handler         000000018002c00c f   libucrt:new_handler.obj
 0001:0002b040       _seh_filter_dll            000000018002c040 f   libucrt:exception_filter.obj
 0001:0002b054       _seh_filter_exe            000000018002c054 f   libucrt:exception_filter.obj
 0001:0002b444       __acrt_initialize_thread_local_exit_callback 000000018002c444 f   libucrt:exit.obj
 0001:0002b44c       _cexit                     000000018002c44c f   libucrt:exit.obj
 0001:0002b45c       _exit                      000000018002c45c f   libucrt:exit.obj
 0001:0002b468       _is_c_termination_complete 000000018002c468 f   libucrt:exit.obj
 0001:0002b634       __acrt_allocate_buffer_for_argv 000000018002c634 f   libucrt:argv_parsing.obj
 0001:0002b694       _configure_narrow_argv     000000018002c694 f   libucrt:argv_parsing.obj
 0001:0002bae0       __dcrt_get_or_create_narrow_environment_nolock 000000018002cae0 f   libucrt:environment_initialization.obj
 0001:0002bb1c       __dcrt_uninitialize_environments_nolock 000000018002cb1c f   libucrt:environment_initialization.obj
 0001:0002bb54       _initialize_narrow_environment 000000018002cb54 f   libucrt:environment_initialization.obj
 0001:0002be9c       _crt_atexit                000000018002ce9c f   libucrt:onexit.obj
 0001:0002beac       _execute_onexit_table      000000018002ceac f   libucrt:onexit.obj
 0001:0002bee8       _initialize_onexit_table   000000018002cee8 f   libucrt:onexit.obj
 0001:0002bf10       _register_onexit_function  000000018002cf10 f   libucrt:onexit.obj
 0001:0002bf90       __acrt_uninitialize_command_line 000000018002cf90 f   libucrt:argv_data.obj
 0001:0002c088       __acrt_initialize          000000018002d088 f   libucrt:initialization.obj
 0001:0002c09c       __acrt_thread_attach       000000018002d09c f   libucrt:initialization.obj
 0001:0002c0b0       __acrt_thread_detach       000000018002d0b0 f   libucrt:initialization.obj
 0001:0002c0c0       __acrt_uninitialize        000000018002d0c0 f   libucrt:initialization.obj
 0001:0002c0f8       __acrt_uninitialize_critical 000000018002d0f8 f   libucrt:initialization.obj
 0001:0002c108       _initterm                  000000018002d108 f   libucrt:initterm.obj
 0001:0002c16c       _initterm_e                000000018002d16c f   libucrt:initterm.obj
 0001:0002c1ac       _fileno                    000000018002d1ac f   libucrt:fileno.obj
 0001:0002c1ac       fileno                     000000018002d1ac f   libucrt:fileno.obj
 0001:0002c1d4       strdup                     000000018002d1d4 f   libucrt:strdup.obj
 0001:0002c1d4       _strdup                    000000018002d1d4 f   libucrt:strdup.obj
 0001:0002c24c       strcpy_s                   000000018002d24c f   libucrt:strcpy_s.obj
 0001:0002c2ac       wcsncmp                    000000018002d2ac f   libucrt:wcsncmp.obj
 0001:0002c2d8       ??$parse_integer@KV?$c_string_character_source@D@__crt_strtox@@@__crt_strtox@@YAKQEAU__crt_locale_pointers@@V?$c_string_character_source@D@0@H_N@Z 000000018002d2d8 f i libucrt:atox.obj
 0001:0002c614       ??$parse_integer@KV?$c_string_character_source@_W@__crt_strtox@@@__crt_strtox@@YAKQEAU__crt_locale_pointers@@V?$c_string_character_source@_W@0@H_N@Z 000000018002d614 f i libucrt:atox.obj
 0001:0002ccc8       atol                       000000018002dcc8 f   libucrt:atox.obj
 0001:0002cd10       strncmp                    000000018002dd10 f   libucrt:strncmp.obj
 0001:0002cdd8       __acrt_get_sigabrt_handler 000000018002ddd8 f   libucrt:signal.obj
 0001:0002ce08       __acrt_initialize_signal_handlers 000000018002de08 f   libucrt:signal.obj
 0001:0002ce28       raise                      000000018002de28 f   libucrt:signal.obj
 0001:0002d40c       __acrt_freeptd             000000018002e40c f   libucrt:per_thread_data.obj
 0001:0002d450       __acrt_getptd              000000018002e450 f   libucrt:per_thread_data.obj
 0001:0002d524       __acrt_getptd_head         000000018002e524 f   libucrt:per_thread_data.obj
 0001:0002d5cc       __acrt_getptd_noexit       000000018002e5cc f   libucrt:per_thread_data.obj
 0001:0002d698       __acrt_initialize_ptd      000000018002e698 f   libucrt:per_thread_data.obj
 0001:0002d6d4       __acrt_uninitialize_ptd    000000018002e6d4 f   libucrt:per_thread_data.obj
 0001:0002d6f8       _free_base                 000000018002e6f8 f   libucrt:free_base.obj
 0001:0002d738       _query_app_type            000000018002e738 f   libucrt:report_runtime_error.obj
 0001:0002d880       _itow_s                    000000018002e880 f   libucrt:xtoa.obj
 0001:0002d8a0       _set_error_mode            000000018002e8a0 f   libucrt:set_error_mode.obj
 0001:0002d8e0       wcscat_s                   000000018002e8e0 f   libucrt:wcscat_s.obj
 0001:0002d960       wcsncat_s                  000000018002e960 f   libucrt:wcsncat_s.obj
 0001:0002da60       __acrt_GetModuleFileNameA  000000018002ea60 f   libucrt:getmodulefilenamea.obj
 0001:0002db80       __acrt_show_wide_message_box 000000018002eb80 f   libucrt:crtmbox.obj
 0001:0002de40       __acrt_stdio_flush_nolock  000000018002ee40 f   libucrt:fflush.obj
 0001:0002debc       _fflush_nolock             000000018002eebc f   libucrt:fflush.obj
 0001:0002df08       _flushall                  000000018002ef08 f   libucrt:fflush.obj
 0001:0002df10       fflush                     000000018002ef10 f   libucrt:fflush.obj
 0001:0002e098       setvbuf                    000000018002f098 f   libucrt:setvbuf.obj
 0001:0002e134       _d_int                     000000018002f134 f   libucrt:_test.obj
 0001:0002e24c       _malloc_base               000000018002f24c f   libucrt:malloc_base.obj
 0001:0002e3d0       _handle_error              000000018002f3d0 f   libucrt:libm_error.obj
 0001:0002e4f8       _handle_errorf             000000018002f4f8 f   libucrt:libm_error.obj
 0001:0002e62c       _handle_nan                000000018002f62c f   libucrt:libm_error.obj
 0001:0002e648       _handle_nanf               000000018002f648 f   libucrt:libm_error.obj
 0001:0002e658       _calloc_base               000000018002f658 f   libucrt:calloc_base.obj
 0001:0002e8a8       __acrt_AppPolicyGetProcessTerminationMethodInternal 000000018002f8a8 f   libucrt:winapi_thunks.obj
 0001:0002e8f8       __acrt_AppPolicyGetShowDeveloperDiagnosticInternal 000000018002f8f8 f   libucrt:winapi_thunks.obj
 0001:0002e948       __acrt_AppPolicyGetWindowingModelInternal 000000018002f948 f   libucrt:winapi_thunks.obj
 0001:0002e998       __acrt_AreFileApisANSI     000000018002f998 f   libucrt:winapi_thunks.obj
 0001:0002e9d4       __acrt_CompareStringEx     000000018002f9d4 f   libucrt:winapi_thunks.obj
 0001:0002eab0       __acrt_FlsAlloc            000000018002fab0 f   libucrt:winapi_thunks.obj
 0001:0002eaf8       __acrt_FlsFree             000000018002faf8 f   libucrt:winapi_thunks.obj
 0001:0002eb40       __acrt_FlsGetValue         000000018002fb40 f   libucrt:winapi_thunks.obj
 0001:0002eb88       __acrt_FlsSetValue         000000018002fb88 f   libucrt:winapi_thunks.obj
 0001:0002ebdc       __acrt_InitializeCriticalSectionEx 000000018002fbdc f   libucrt:winapi_thunks.obj
 0001:0002ec40       __acrt_LCMapStringEx       000000018002fc40 f   libucrt:winapi_thunks.obj
 0001:0002ed1c       __acrt_LocaleNameToLCID    000000018002fd1c f   libucrt:winapi_thunks.obj
 0001:0002ed6c       __acrt_MessageBoxW         000000018002fd6c f   libucrt:winapi_thunks.obj
 0001:0002ede0       __acrt_can_show_message_box 000000018002fde0 f   libucrt:winapi_thunks.obj
 0001:0002ee50       __acrt_get_parent_window   000000018002fe50 f   libucrt:winapi_thunks.obj
 0001:0002eec8       __acrt_initialize_winapi_thunks 000000018002fec8 f   libucrt:winapi_thunks.obj
 0001:0002eefc       __acrt_is_interactive      000000018002fefc f   libucrt:winapi_thunks.obj
 0001:0002efc4       __acrt_uninitialize_winapi_thunks 000000018002ffc4 f   libucrt:winapi_thunks.obj
 0001:0002f008       _fcloseall                 0000000180030008 f   libucrt:closeall.obj
 0001:0002f0bc       __acrt_stdio_free_buffer_nolock 00000001800300bc f   libucrt:_freebuf.obj
 0001:0002f2f8       __acrt_initialize_lowio    00000001800302f8 f   libucrt:ioinit.obj
 0001:0002f334       __acrt_uninitialize_lowio  0000000180030334 f   libucrt:ioinit.obj
 0001:0002f374       _isleadbyte_l              0000000180030374 f i libucrt:_wctype.obj
 0001:0002f3c0       _isctype_l                 00000001800303c0 f   libucrt:isctype.obj
 0001:0002f7e8       __acrt_LCMapStringA        00000001800307e8 f   libucrt:lcmapstringa.obj
 0001:0002f880       __acrt_update_locale_info  0000000180030880 f   libucrt:locale_update.obj
 0001:0002f8b4       __acrt_update_multibyte_info 00000001800308b4 f   libucrt:locale_update.obj
 0001:0002f958       __acrt_set_locale_changed  0000000180030958 f   libucrt:wsetlocale.obj
 0001:0002f964       __acrt_uninitialize_locale 0000000180030964 f   libucrt:wsetlocale.obj
 0001:0002f994       strtol                     0000000180030994 f   libucrt:strtox.obj
 0001:0002f9c0       wcstol                     00000001800309c0 f   libucrt:strtox.obj
 0001:0002f9ec       _mbtowc_l                  00000001800309ec f   libucrt:mbtowc.obj
 0001:0002fb68       mbtowc                     0000000180030b68 f   libucrt:mbtowc.obj
 0001:0002fb70       _wctomb_s_l                0000000180030b70 f   libucrt:wctomb.obj
 0001:0002fd10       wctomb_s                   0000000180030d10 f   libucrt:wctomb.obj
 0001:000306f8       __acrt_fp_format           00000001800316f8 f   libucrt:cvt.obj
 0001:00030980       _fputwc_nolock             0000000180031980 f   libucrt:fputwc.obj
 0001:00030afc       _fputc_nolock              0000000180031afc f   libucrt:fputc.obj
 0001:00030b14       _get_printf_count_output   0000000180031b14 f   libucrt:printf_count_output.obj
 0001:00030b2c       __acrt_stdio_begin_temporary_buffering_nolock 0000000180031b2c f   libucrt:_sftbuf.obj
 0001:00030bfc       __acrt_stdio_end_temporary_buffering_nolock 0000000180031bfc f   libucrt:_sftbuf.obj
 0001:00030fa4       _lseek                     0000000180031fa4 f   libucrt:lseek.obj
 0001:00030fac       _lseeki64                  0000000180031fac f   libucrt:lseek.obj
 0001:00030fb4       _lseeki64_nolock           0000000180031fb4 f   libucrt:lseek.obj
 0001:00031590       _read                      0000000180032590 f   libucrt:read.obj
 0001:000316ac       _read_nolock               00000001800326ac f   libucrt:read.obj
 0001:00031b04       ?__acrt_stdio_allocate_stream@@YA?AV__crt_stdio_stream@@XZ 0000000180032b04 f   libucrt:stream.obj
 0001:00031b5c       ?__acrt_stdio_free_stream@@YAXV__crt_stdio_stream@@@Z 0000000180032b5c f   libucrt:stream.obj
 0001:00031c64       ??$__acrt_stdio_parse_mode@D@@YA?AU__acrt_stdio_stream_mode@@QEBD@Z 0000000180032c64 f i libucrt:openfile.obj
 0001:00031f28       _openfile                  0000000180032f28 f   libucrt:openfile.obj
 0001:00032038       _close                     0000000180033038 f   libucrt:close.obj
 0001:000320dc       _close_nolock              00000001800330dc f   libucrt:close.obj
 0001:0003219c       __acrt_stdio_refill_and_read_narrow_nolock 000000018003319c f   libucrt:_filbuf.obj
 0001:00032308       _getdrive                  0000000180033308 f   libucrt:drive.obj
 0001:00032404       _wcsicmp                   0000000180033404 f   libucrt:wcsicmp.obj
 0001:0003249c       _wcsicmp_l                 000000018003349c f   libucrt:wcsicmp.obj
 0001:0003259c       __acrt_MultiByteToWideChar 000000018003359c f   libucrt:multibytetowidechar.obj
 0001:000325f8       __acrt_lowio_create_handle_array 00000001800335f8 f   libucrt:osfinfo.obj
 0001:000326a0       __acrt_lowio_destroy_handle_array 00000001800336a0 f   libucrt:osfinfo.obj
 0001:000326f0       __acrt_lowio_ensure_fh_exists 00000001800336f0 f   libucrt:osfinfo.obj
 0001:00032798       __acrt_lowio_lock_fh       0000000180033798 f   libucrt:osfinfo.obj
 0001:000327c0       __acrt_lowio_set_os_handle 00000001800337c0 f   libucrt:osfinfo.obj
 0001:00032880       __acrt_lowio_unlock_fh     0000000180033880 f   libucrt:osfinfo.obj
 0001:000328a8       _alloc_osfhnd              00000001800338a8 f   libucrt:osfinfo.obj
 0001:000329e8       _free_osfhnd               00000001800339e8 f   libucrt:osfinfo.obj
 0001:00032aa4       _get_osfhandle             0000000180033aa4 f   libucrt:osfinfo.obj
 0001:00032d48       __loctotime64_t            0000000180033d48 f   libucrt:loctotime.obj
 0001:00032d50       _realloc_base              0000000180033d50 f   libucrt:realloc_base.obj
 0001:00032dcc       __acrt_GetStringTypeA      0000000180033dcc f   libucrt:getstringtypea.obj
 0001:00032f5c       iswctype                   0000000180033f5c f   libucrt:iswctype.obj
 0001:00032fcc       _raise_exc                 0000000180033fcc f   libucrt:fpexcept.obj
 0001:00032ff4       _raise_exc_ex              0000000180033ff4 f   libucrt:fpexcept.obj
 0001:00033304       _raise_excf                0000000180034304 f   libucrt:fpexcept.obj
 0001:00033330       _set_errno_from_matherr    0000000180034330 f   libucrt:fpexcept.obj
 0001:00033360       _clrfp                     0000000180034360 f   libucrt:fpctrl.obj
 0001:00033380       _ctrlfp                    0000000180034380 f   libucrt:fpctrl.obj
 0001:000333fc       _set_statfp                00000001800343fc f   libucrt:fpctrl.obj
 0001:0003341c       _statfp                    000000018003441c f   libucrt:fpctrl.obj
 0001:00033430       __acrt_initialize_fma3     0000000180034430 f   libucrt:fma3_available.obj
 0001:000334a0       _pow_special               00000001800344a0 f   libucrt:pow_special.obj
 0001:000335c4       _powf_special              00000001800345c4 f   libucrt:pow_special.obj
 0001:00033750       __acrt_WideCharToMultiByte 0000000180034750 f   libucrt:widechartomultibyte.obj
 0001:000337e8       __acrt_initialize_timeset  00000001800347e8 f   libucrt:timeset.obj
 0001:0003382c       __daylight                 000000018003482c f   libucrt:timeset.obj
 0001:00033834       __dstbias                  0000000180034834 f   libucrt:timeset.obj
 0001:0003383c       __timezone                 000000018003483c f   libucrt:timeset.obj
 0001:00033844       __tzname                   0000000180034844 f   libucrt:timeset.obj
 0001:0003384c       _get_daylight              000000018003484c f   libucrt:timeset.obj
 0001:0003387c       _get_dstbias               000000018003487c f   libucrt:timeset.obj
 0001:000338ac       _get_timezone              00000001800348ac f   libucrt:timeset.obj
 0001:00034280       __tzset                    0000000180035280 f   libucrt:tzset.obj
 0001:000342c0       _isindst                   00000001800352c0 f   libucrt:tzset.obj
 0001:000342f0       __acrt_get_developer_information_policy 00000001800352f0 f   libucrt:win_policies.obj
 0001:00034344       __acrt_get_process_end_policy 0000000180035344 f   libucrt:win_policies.obj
 0001:00034380       __acrt_get_windowing_model_policy 0000000180035380 f   libucrt:win_policies.obj
 0001:00034400       ??$__acrt_wcs_to_mbs_cp@U__crt_win32_buffer_internal_dynamic_resizing@@@@YAHQEB_WAEAV?$__crt_win32_buffer@DU__crt_win32_buffer_internal_dynamic_resizing@@@@I@Z 0000000180035400 f i libucrt:argv_wildcards.obj
 0001:00034c30       __acrt_expand_narrow_argv_wildcards 0000000180035c30 f   libucrt:argv_wildcards.obj
 0001:00035364       __acrt_initialize_multibyte 0000000180036364 f   libucrt:mbctype.obj
 0001:000353c4       __acrt_update_thread_multibyte_data 00000001800363c4 f   libucrt:mbctype.obj
 0001:000353e0       _setmbcp_nolock            00000001800363e0 f   libucrt:mbctype.obj
 0001:00035714       _ismbblead                 0000000180036714 f   libucrt:ismbbyte.obj
 0001:00035728       __acrt_initialize_command_line 0000000180036728 f   libucrt:argv_data.obj
 0001:00035750       __dcrt_get_narrow_environment_from_os 0000000180036750 f   libucrt:get_environment_from_os.obj
 0001:00035c5c       __dcrt_set_variable_in_narrow_environment_nolock 0000000180036c5c f   libucrt:setenv.obj
 0001:00035c64       _recalloc_base             0000000180036c64 f   libucrt:recalloc.obj
 0001:00035cfc       __acrt_initialize_heap     0000000180036cfc f   libucrt:heap_handle.obj
 0001:00035d18       __acrt_uninitialize_heap   0000000180036d18 f   libucrt:heap_handle.obj
 0001:00035d24       __acrt_execute_initializers 0000000180036d24 f   libucrt:shared_initialization.obj
 0001:00035da4       __acrt_execute_uninitializers 0000000180036da4 f   libucrt:shared_initialization.obj
 0001:00035de0       __acrt_has_user_matherr    0000000180036de0 f   libucrt:matherr.obj
 0001:00035e00       __acrt_initialize_user_matherr 0000000180036e00 f   libucrt:matherr.obj
 0001:00035e08       __acrt_invoke_user_matherr 0000000180036e08 f   libucrt:matherr.obj
 0001:00035e38       __acrt_add_locale_ref      0000000180036e38 f   libucrt:locale_refcounting.obj
 0001:00035ec4       __acrt_free_locale         0000000180036ec4 f   libucrt:locale_refcounting.obj
 0001:0003603c       __acrt_locale_add_lc_time_reference 000000018003703c f   libucrt:locale_refcounting.obj
 0001:00036064       __acrt_locale_free_lc_time_if_unreferenced 0000000180037064 f   libucrt:locale_refcounting.obj
 0001:0003609c       __acrt_locale_release_lc_time_reference 000000018003709c f   libucrt:locale_refcounting.obj
 0001:000360c4       __acrt_release_locale_ref  00000001800370c4 f   libucrt:locale_refcounting.obj
 0001:0003616c       __acrt_update_thread_locale_data 000000018003716c f   libucrt:locale_refcounting.obj
 0001:000361dc       _updatetlocinfoEx_nolock   00000001800371dc f   libucrt:locale_refcounting.obj
 0001:000362d0       _commit                    00000001800372d0 f   libucrt:commit.obj
 0001:00036bd0       _write                     0000000180037bd0 f   libucrt:write.obj
 0001:00036cbc       _write_nolock              0000000180037cbc f   libucrt:write.obj
 0001:00036f98       __acrt_fenv_get_control    0000000180037f98 f   libucrt:_fenvutils.obj
 0001:0003708c       __acrt_fenv_get_status     000000018003808c f   libucrt:_fenvutils.obj
 0001:000370e0       __acrt_fenv_set_control    00000001800380e0 f   libucrt:_fenvutils.obj
 0001:00037228       __acrt_fenv_set_status     0000000180038228 f   libucrt:_fenvutils.obj
 0001:000372ac       _query_new_mode            00000001800382ac f   libucrt:new_mode.obj
 0001:0003739c       __acrt_DownlevelLocaleNameToLCID 000000018003839c f   libucrt:lcidtoname_downlevel.obj
 0001:000373d0       __acrt_locale_free_monetary 00000001800383d0 f   libucrt:initmon.obj
 0001:000374dc       __acrt_locale_free_numeric 00000001800384dc f   libucrt:initnum.obj
 0001:000375a0       __acrt_locale_free_time    00000001800385a0 f   libucrt:inittime.obj
 0001:000376a8       ?__mbrtowc_utf8@__crt_mbstring@@YA_KPEA_WPEBD_KPEAU_Mbstatet@@@Z 00000001800386a8 f   libucrt:mbrtowc.obj
 0001:000376e4       ?__mbsrtowcs_utf8@__crt_mbstring@@YA_KPEA_WPEAPEBD_KPEAU_Mbstatet@@@Z 00000001800386e4 f   libucrt:mbrtowc.obj
 0001:0003785c       ?__c32rtomb_utf8@__crt_mbstring@@YA_KPEAD_UPEAU_Mbstatet@@@Z 000000018003885c f   libucrt:c32rtomb.obj
 0001:00037914       __acrt_fp_strflt_to_string 0000000180038914 f   libucrt:_fptostr.obj
 0001:000379f8       __acrt_fltout              00000001800389f8 f   libucrt:cfout.obj
 0001:00038e70       __acrt_stdio_flush_and_write_narrow_nolock 0000000180039e70 f   libucrt:_flsbuf.obj
 0001:00038f5c       __acrt_stdio_flush_and_write_wide_nolock 0000000180039f5c f   libucrt:_flsbuf.obj
 0001:00039048       _isatty                    000000018003a048 f   libucrt:isatty.obj
 0001:000390a8       __ascii_strnicmp           000000018003a0a8 f   libucrt:strnicmp.obj
 0001:00039104       _strnicmp                  000000018003a104 f   libucrt:strnicmp.obj
 0001:00039154       _strnicmp_l                000000018003a154 f   libucrt:strnicmp.obj
 0001:00039858       _sopen_nolock              000000018003a858 f   libucrt:open.obj
 0001:00039970       _sopen_s                   000000018003a970 f   libucrt:open.obj
 0001:000399a4       _wsopen_nolock             000000018003a9a4 f   libucrt:open.obj
 0001:00039d8c       __acrt_stdio_allocate_buffer_nolock 000000018003ad8c f   libucrt:_getbuf.obj
 0001:00039df4       _towlower_l                000000018003adf4 f   libucrt:towlower.obj
 0001:00039eb8       strncpy_s                  000000018003aeb8 f   libucrt:strncpy_s.obj
 0001:00039f8c       __acrt_GetStringTypeW      000000018003af8c f   libucrt:getstringtypew.obj
 0001:00039fb0       _get_fpsr                  000000018003afb0 f   libucrt:fpsr.obj
 0001:00039fc0       _set_fpsr                  000000018003afc0 f   libucrt:fpsr.obj
 0001:00039fca       _fclrf                     000000018003afca f   libucrt:fpsr.obj
 0001:00039fde       _frnd                      000000018003afde f   libucrt:fpsr.obj
 0001:0003a184       getenv_s                   000000018003b184 f   libucrt:getenv.obj
 0001:0003a190       qsort                      000000018003b190 f   libucrt:qsort.obj
 0001:0003a5f0       strpbrk                    000000018003b5f0 f   libucrt:strpbrk.obj
 0001:0003a9d0       _mbsdec                    000000018003b9d0 f   libucrt:mbsdec.obj
 0001:0003a9d8       _mbsdec_l                  000000018003b9d8 f   libucrt:mbsdec.obj
 0001:0003aa84       _strnicoll                 000000018003ba84 f   libucrt:strnicol.obj
 0001:0003aa9c       _strnicoll_l               000000018003ba9c f   libucrt:strnicol.obj
 0001:0003ab9c       __acrt_SetEnvironmentVariableA 000000018003bb9c f   libucrt:setenvironmentvariablea.obj
 0001:0003ad34       _msize_base                000000018003bd34 f   libucrt:msize.obj
 0001:0003ad70       _putwch_nolock             000000018003bd70 f   libucrt:putwch.obj
 0001:0003adac       ?__mbrtoc32_utf8@__crt_mbstring@@YA_KPEA_UPEBD_KPEAU_Mbstatet@@@Z 000000018003bdac f   libucrt:mbrtoc32.obj
 0001:0003af88       fegetenv                   000000018003bf88 f   libucrt:fegetenv.obj
 0001:0003afa8       fesetenv                   000000018003bfa8 f   libucrt:fesetenv.obj
 0001:0003aff8       feholdexcept               000000018003bff8 f   libucrt:feholdexcept.obj
 0001:0003b048       ceil                       000000018003c048 f   libucrt:ceil.obj
 0001:0003b110       log10                      000000018003c110 f   libucrt:log10.obj
 0001:0003b6bc       _get_fmode                 000000018003c6bc f   libucrt:setmode.obj
 0001:0003b6ec       _setmode_nolock            000000018003c6ec f   libucrt:setmode.obj
 0001:0003b7cc       _chsize_nolock             000000018003c7cc f   libucrt:chsize.obj
 0001:0003b938       __acrt_LCMapStringW        000000018003c938 f   libucrt:lcmapstringw.obj
 0001:0003bd20       __acrt_CompareStringA      000000018003cd20 f   libucrt:comparestringa.obj
 0001:0003bdac       __dcrt_lowio_ensure_console_output_initialized 000000018003cdac f   libucrt:initcon.obj
 0001:0003be00       __dcrt_terminate_console_output 000000018003ce00 f   libucrt:initcon.obj
 0001:0003be1c       __dcrt_write_console       000000018003ce1c f   libucrt:initcon.obj
 0001:0003bedc       _clearfp                   000000018003cedc f   libucrt:ieee.obj
 0001:0003bf50       _log10_special             000000018003cf50 f   libucrt:log_special.obj
 0001:0003c006       IsProcessorFeaturePresent  000000018003d006 f   kernel32:KERNEL32.dll
 0001:0003c00c       RtlUnwindEx                000000018003d00c f   kernel32:KERNEL32.dll
 0001:0003c014       ?DloadAcquireSectionWriteAccess@@YAXXZ 000000018003d014 f i DelayImp:delayhlp.obj
 0001:0003c0c0       ?DloadGetSRWLockFunctionPointers@@YAEXZ 000000018003d0c0 f i DelayImp:delayhlp.obj
 0001:0003c15c       ?DloadMakePermanentImageCommit@@YAXPEAX_K@Z 000000018003d15c f i DelayImp:delayhlp.obj
 0001:0003c1f4       ?DloadObtainSection@@YAPEAXPEAK0@Z 000000018003d1f4 f i DelayImp:delayhlp.obj
 0001:0003c290       ?DloadProtectSection@@YAXKPEAK@Z 000000018003d290 f i DelayImp:delayhlp.obj
 0001:0003c320       ?DloadReleaseSectionWriteAccess@@YAXXZ 000000018003d320 f i DelayImp:delayhlp.obj
 0001:0003c3b4       __delayLoadHelper2         000000018003d3b4 f   DelayImp:delayhlp.obj
 0001:0003c680       _FindPESection             000000018003d680 f   LIBCMT:pesect.obj
 0001:0003c6d0       _IsNonwritableInCurrentImage 000000018003d6d0 f   LIBCMT:pesect.obj
 0001:0003c720       _ValidateImageBase         000000018003d720 f   LIBCMT:pesect.obj
 0001:0003c750       wcsrchr                    000000018003d750 f   libvcruntime:wcsrchr.obj
 0001:0003c804       strrchr                    000000018003d804 f   libvcruntime:strrchr.obj
 0001:0003c950       strchr                     000000018003d950 f   libvcruntime:strchr.obj
 0001:0003c9e0       acos                       000000018003d9e0 f   libucrt:acos.obj
 0001:0003cc88       acosf                      000000018003dc88 f   libucrt:acosf.obj
 0001:0003ced8       floor                      000000018003ded8 f   libucrt:floor.obj
 0001:0003cf88       fmodf                      000000018003df88 f   libucrt:fmodf.obj
 0001:0003d1cc       sqrtf                      000000018003e1cc f   libucrt:sqrtf.obj
 0001:0003d290       strcmp                     000000018003e290 f   libucrt:strcmp.obj
 0001:0003d300       tan                        000000018003e300 f   libucrt:tan.obj
 0001:0003db3c       _tan_special               000000018003eb3c f   libucrt:sincos_special.obj
 0001:0003db50       __remainder_piby2_fma3     000000018003eb50 f   libucrt:remainder_piby2_forfma3.obj
 0001:0003dd40       __remainder_piby2_fma3_bdl 000000018003ed40 f   libucrt:remainder_piby2_forfma3.obj
 0001:0003ddc0       __remainder_piby2_forAsm   000000018003edc0 f   libucrt:remainder_piby2_forasm.obj
 0001:0003dfd0       __remainder_piby2_cw_forAsm 000000018003efd0 f   libucrt:remainder_piby2_forasm.obj
 0001:0003e120       _guard_dispatch_icall_nop  000000018003f120 f   LIBCMT:_guard_dispatch_.obj
 0001:0003e140       __longjmp_internal         000000018003f140 f   libvcruntime:_longjmp_.obj
 0001:0003e240       _setjmp                    000000018003f240 f   libvcruntime:_setjmp_.obj
 0001:0003e240       __intrinsic_setjmp         000000018003f240 f   libvcruntime:_setjmp_.obj
 0001:0003e2e0       setjmp                     000000018003f2e0 f   libvcruntime:_setjmp_.obj
 0002:00000000       __imp_AddFontResourceExA   0000000180041000     gdi32:GDI32.dll
 0002:00000008       \177GDI32_NULL_THUNK_DATA  0000000180041008     gdi32:GDI32.dll
 0002:00000010       __imp_LoadLibraryExA       0000000180041010     kernel32:KERNEL32.dll
 0002:00000018       __imp_GetModuleHandleA     0000000180041018     kernel32:KERNEL32.dll
 0002:00000020       __imp_VirtualQuery         0000000180041020     kernel32:KERNEL32.dll
 0002:00000028       __imp_VirtualProtect       0000000180041028     kernel32:KERNEL32.dll
 0002:00000030       __imp_GetSystemInfo        0000000180041030     kernel32:KERNEL32.dll
 0002:00000038       __imp_SetEndOfFile         0000000180041038     kernel32:KERNEL32.dll
 0002:00000040       __imp_HeapSize             0000000180041040     kernel32:KERNEL32.dll
 0002:00000048       __imp_GetFileSizeEx        0000000180041048     kernel32:KERNEL32.dll
 0002:00000050       __imp_GetConsoleCP         0000000180041050     kernel32:KERNEL32.dll
 0002:00000058       __imp_FlushFileBuffers     0000000180041058     kernel32:KERNEL32.dll
 0002:00000060       __imp_GetProcessHeap       0000000180041060     kernel32:KERNEL32.dll
 0002:00000068       __imp_SetEnvironmentVariableW 0000000180041068     kernel32:KERNEL32.dll
 0002:00000070       __imp_FreeEnvironmentStringsW 0000000180041070     kernel32:KERNEL32.dll
 0002:00000078       __imp_GetEnvironmentStringsW 0000000180041078     kernel32:KERNEL32.dll
 0002:00000080       __imp_GetCommandLineW      0000000180041080     kernel32:KERNEL32.dll
 0002:00000088       __imp_GetCommandLineA      0000000180041088     kernel32:KERNEL32.dll
 0002:00000090       __imp_GetOEMCP             0000000180041090     kernel32:KERNEL32.dll
 0002:00000098       __imp_GetACP               0000000180041098     kernel32:KERNEL32.dll
 0002:000000a0       __imp_IsValidCodePage      00000001800410a0     kernel32:KERNEL32.dll
 0002:000000a8       __imp_FindNextFileW        00000001800410a8     kernel32:KERNEL32.dll
 0002:000000b0       __imp_FindFirstFileExW     00000001800410b0     kernel32:KERNEL32.dll
 0002:000000b8       __imp_FindClose            00000001800410b8     kernel32:KERNEL32.dll
 0002:000000c0       __imp_GetTimeZoneInformation 00000001800410c0     kernel32:KERNEL32.dll
 0002:000000c8       __imp_HeapReAlloc          00000001800410c8     kernel32:KERNEL32.dll
 0002:000000d0       __imp_SetStdHandle         00000001800410d0     kernel32:KERNEL32.dll
 0002:000000d8       __imp_GetCurrentDirectoryW 00000001800410d8     kernel32:KERNEL32.dll
 0002:000000e0       __imp_ReadConsoleW         00000001800410e0     kernel32:KERNEL32.dll
 0002:000000e8       __imp_GetConsoleMode       00000001800410e8     kernel32:KERNEL32.dll
 0002:000000f0       __imp_SetFilePointerEx     00000001800410f0     kernel32:KERNEL32.dll
 0002:000000f8       __imp_HeapAlloc            00000001800410f8     kernel32:KERNEL32.dll
 0002:00000100       __imp_OutputDebugStringW   0000000180041100     kernel32:KERNEL32.dll
 0002:00000108       __imp_WriteFile            0000000180041108     kernel32:KERNEL32.dll
 0002:00000110       __imp_HeapFree             0000000180041110     kernel32:KERNEL32.dll
 0002:00000118       __imp_ExitProcess          0000000180041118     kernel32:KERNEL32.dll
 0002:00000120       __imp_FileTimeToSystemTime 0000000180041120     kernel32:KERNEL32.dll
 0002:00000128       __imp_SystemTimeToTzSpecificLocalTime 0000000180041128     kernel32:KERNEL32.dll
 0002:00000130       __imp_PeekNamedPipe        0000000180041130     kernel32:KERNEL32.dll
 0002:00000138       __imp_CloseHandle          0000000180041138     kernel32:KERNEL32.dll
 0002:00000140       __imp_GetFileInformationByHandle 0000000180041140     kernel32:KERNEL32.dll
 0002:00000148       __imp_CreateFileW          0000000180041148     kernel32:KERNEL32.dll
 0002:00000150       __imp_ReadFile             0000000180041150     kernel32:KERNEL32.dll
 0002:00000158       __imp_WriteConsoleW        0000000180041158     kernel32:KERNEL32.dll
 0002:00000160       __imp_GetModuleHandleExW   0000000180041160     kernel32:KERNEL32.dll
 0002:00000168       __imp_GetModuleFileNameW   0000000180041168     kernel32:KERNEL32.dll
 0002:00000170       __imp_GetFileType          0000000180041170     kernel32:KERNEL32.dll
 0002:00000178       __imp_GetStdHandle         0000000180041178     kernel32:KERNEL32.dll
 0002:00000180       __imp_LoadLibraryExW       0000000180041180     kernel32:KERNEL32.dll
 0002:00000188       __imp_FreeLibrary          0000000180041188     kernel32:KERNEL32.dll
 0002:00000190       __imp_InterlockedFlushSList 0000000180041190     kernel32:KERNEL32.dll
 0002:00000198       __imp_RaiseException       0000000180041198     kernel32:KERNEL32.dll
 0002:000001a0       __imp_RtlPcToFileHeader    00000001800411a0     kernel32:KERNEL32.dll
 0002:000001a8       __imp_RtlUnwindEx          00000001800411a8     kernel32:KERNEL32.dll
 0002:000001b0       __imp_InitializeSListHead  00000001800411b0     kernel32:KERNEL32.dll
 0002:000001b8       __imp_GetCurrentThreadId   00000001800411b8     kernel32:KERNEL32.dll
 0002:000001c0       __imp_GetCurrentProcessId  00000001800411c0     kernel32:KERNEL32.dll
 0002:000001c8       __imp_QueryPerformanceCounter 00000001800411c8     kernel32:KERNEL32.dll
 0002:000001d0       __imp_GetStartupInfoW      00000001800411d0     kernel32:KERNEL32.dll
 0002:000001d8       __imp_IsDebuggerPresent    00000001800411d8     kernel32:KERNEL32.dll
 0002:000001e0       __imp_IsProcessorFeaturePresent 00000001800411e0     kernel32:KERNEL32.dll
 0002:000001e8       __imp_TerminateProcess     00000001800411e8     kernel32:KERNEL32.dll
 0002:000001f0       __imp_GetCurrentProcess    00000001800411f0     kernel32:KERNEL32.dll
 0002:000001f8       __imp_SetUnhandledExceptionFilter 00000001800411f8     kernel32:KERNEL32.dll
 0002:00000200       __imp_UnhandledExceptionFilter 0000000180041200     kernel32:KERNEL32.dll
 0002:00000208       __imp_RtlVirtualUnwind     0000000180041208     kernel32:KERNEL32.dll
 0002:00000210       __imp_RtlLookupFunctionEntry 0000000180041210     kernel32:KERNEL32.dll
 0002:00000218       __imp_RtlCaptureContext    0000000180041218     kernel32:KERNEL32.dll
 0002:00000220       __imp_GetCPInfo            0000000180041220     kernel32:KERNEL32.dll
 0002:00000228       __imp_GetStringTypeW       0000000180041228     kernel32:KERNEL32.dll
 0002:00000230       __imp_LCMapStringW         0000000180041230     kernel32:KERNEL32.dll
 0002:00000238       __imp_CompareStringW       0000000180041238     kernel32:KERNEL32.dll
 0002:00000240       __imp_MultiByteToWideChar  0000000180041240     kernel32:KERNEL32.dll
 0002:00000248       __imp_DecodePointer        0000000180041248     kernel32:KERNEL32.dll
 0002:00000250       __imp_EncodePointer        0000000180041250     kernel32:KERNEL32.dll
 0002:00000258       __imp_GetProcAddress       0000000180041258     kernel32:KERNEL32.dll
 0002:00000260       __imp_GetModuleHandleW     0000000180041260     kernel32:KERNEL32.dll
 0002:00000268       __imp_GetSystemTimeAsFileTime 0000000180041268     kernel32:KERNEL32.dll
 0002:00000270       __imp_TlsFree              0000000180041270     kernel32:KERNEL32.dll
 0002:00000278       __imp_TlsSetValue          0000000180041278     kernel32:KERNEL32.dll
 0002:00000280       __imp_TlsGetValue          0000000180041280     kernel32:KERNEL32.dll
 0002:00000288       __imp_TlsAlloc             0000000180041288     kernel32:KERNEL32.dll
 0002:00000290       __imp_InitializeCriticalSectionAndSpinCount 0000000180041290     kernel32:KERNEL32.dll
 0002:00000298       __imp_SetLastError         0000000180041298     kernel32:KERNEL32.dll
 0002:000002a0       __imp_DeleteCriticalSection 00000001800412a0     kernel32:KERNEL32.dll
 0002:000002a8       __imp_LeaveCriticalSection 00000001800412a8     kernel32:KERNEL32.dll
 0002:000002b0       __imp_EnterCriticalSection 00000001800412b0     kernel32:KERNEL32.dll
 0002:000002b8       __imp_WideCharToMultiByte  00000001800412b8     kernel32:KERNEL32.dll
 0002:000002c0       __imp_GetLastError         00000001800412c0     kernel32:KERNEL32.dll
 0002:000002c8       \177KERNEL32_NULL_THUNK_DATA 00000001800412c8     kernel32:KERNEL32.dll
 0002:000002d0       __imp_g_object_unref       00000001800412d0     libgobject-2.0-0:dgdes00160.o
 0002:000002e0       __imp_DGifCloseFile        00000001800412e0     libgif-7:dkjbs00000.o
 0002:000002e8       __imp_DGifOpen             00000001800412e8     libgif-7:dkjbs00012.o
 0002:000002f0       __imp_DGifSlurp            00000001800412f0     libgif-7:dkjbs00016.o
 0002:00000300       __imp_jpeg_CreateCompress  0000000180041300     libjpeg-8:dmags00029.o
 0002:00000308       __imp_jpeg_CreateDecompress 0000000180041308     libjpeg-8:dmags00030.o
 0002:00000310       __imp_jpeg_abort_decompress 0000000180041310     libjpeg-8:dmags00033.o
 0002:00000318       __imp_jpeg_destroy_compress 0000000180041318     libjpeg-8:dmags00046.o
 0002:00000320       __imp_jpeg_destroy_decompress 0000000180041320     libjpeg-8:dmags00047.o
 0002:00000328       __imp_jpeg_finish_compress 0000000180041328     libjpeg-8:dmags00052.o
 0002:00000330       __imp_jpeg_finish_decompress 0000000180041330     libjpeg-8:dmags00053.o
 0002:00000338       __imp_jpeg_mem_dest        0000000180041338     libjpeg-8:dmags00072.o
 0002:00000340       __imp_jpeg_mem_src         0000000180041340     libjpeg-8:dmags00074.o
 0002:00000348       __imp_jpeg_read_header     0000000180041348     libjpeg-8:dmags00080.o
 0002:00000350       __imp_jpeg_read_scanlines  0000000180041350     libjpeg-8:dmags00083.o
 0002:00000358       __imp_jpeg_set_defaults    0000000180041358     libjpeg-8:dmags00087.o
 0002:00000360       __imp_jpeg_set_quality     0000000180041360     libjpeg-8:dmags00090.o
 0002:00000368       __imp_jpeg_simple_progression 0000000180041368     libjpeg-8:dmags00091.o
 0002:00000370       __imp_jpeg_start_compress  0000000180041370     libjpeg-8:dmags00093.o
 0002:00000378       __imp_jpeg_start_decompress 0000000180041378     libjpeg-8:dmags00094.o
 0002:00000380       __imp_jpeg_std_error       0000000180041380     libjpeg-8:dmags00096.o
 0002:00000388       __imp_jpeg_stdio_src       0000000180041388     libjpeg-8:dmags00098.o
 0002:00000390       __imp_jpeg_write_scanlines 0000000180041390     libjpeg-8:dmags00106.o
 0002:000003a0       __imp_pango_cairo_create_layout 00000001800413a0     libpangocairo-1.0-0:dohds00007.o
 0002:000003a8       __imp_pango_cairo_font_map_set_default 00000001800413a8     libpangocairo-1.0-0:dohds00020.o
 0002:000003b0       __imp_pango_cairo_layout_path 00000001800413b0     libpangocairo-1.0-0:dohds00024.o
 0002:000003b8       __imp_pango_cairo_show_layout 00000001800413b8     libpangocairo-1.0-0:dohds00029.o
 0002:000003c0       __imp_pango_cairo_update_layout 00000001800413c0     libpangocairo-1.0-0:dohds00032.o
 0002:000003d0       __imp_png_create_info_struct 00000001800413d0     libpng16-16:dqus00011.o
 0002:000003d8       __imp_png_create_write_struct_2 00000001800413d8     libpng16-16:dqus00015.o
 0002:000003e0       __imp_png_data_freer       00000001800413e0     libpng16-16:dqus00016.o
 0002:000003e8       __imp_png_destroy_write_struct 00000001800413e8     libpng16-16:dqus00019.o
 0002:000003f0       __imp_png_error            00000001800413f0     libpng16-16:dqus00020.o
 0002:000003f8       __imp_png_get_error_ptr    00000001800413f8     libpng16-16:dqus00044.o
 0002:00000400       __imp_png_get_io_ptr       0000000180041400     libpng16-16:dqus00058.o
 0002:00000408       __imp_png_malloc           0000000180041408     libpng16-16:dqus00129.o
 0002:00000410       __imp_png_set_IHDR         0000000180041410     libpng16-16:dqus00149.o
 0002:00000418       __imp_png_set_PLTE         0000000180041418     libpng16-16:dqus00150.o
 0002:00000420       __imp_png_set_bKGD         0000000180041420     libpng16-16:dqus00155.o
 0002:00000428       __imp_png_set_compression_level 0000000180041428     libpng16-16:dqus00168.o
 0002:00000430       __imp_png_set_filler       0000000180041430     libpng16-16:dqus00180.o
 0002:00000438       __imp_png_set_filter       0000000180041438     libpng16-16:dqus00181.o
 0002:00000440       __imp_png_set_longjmp_fn   0000000180041440     libpng16-16:dqus00198.o
 0002:00000448       __imp_png_set_pHYs         0000000180041448     libpng16-16:dqus00204.o
 0002:00000450       __imp_png_set_packing      0000000180041450     libpng16-16:dqus00205.o
 0002:00000458       __imp_png_set_packswap     0000000180041458     libpng16-16:dqus00206.o
 0002:00000460       __imp_png_set_tRNS         0000000180041460     libpng16-16:dqus00233.o
 0002:00000468       __imp_png_set_write_fn     0000000180041468     libpng16-16:dqus00245.o
 0002:00000470       __imp_png_set_write_user_transform_fn 0000000180041470     libpng16-16:dqus00247.o
 0002:00000478       __imp_png_write_end        0000000180041478     libpng16-16:dqus00255.o
 0002:00000480       __imp_png_write_image      0000000180041480     libpng16-16:dqus00259.o
 0002:00000488       __imp_png_write_info       0000000180041488     libpng16-16:dqus00260.o
 0002:00000498       __imp_cairo_append_path    0000000180041498     libcairo-2:dszbs00000.o
 0002:000004a0       __imp_cairo_arc            00000001800414a0     libcairo-2:dszbs00001.o
 0002:000004a8       __imp_cairo_arc_negative   00000001800414a8     libcairo-2:dszbs00002.o
 0002:000004b0       __imp_cairo_clip           00000001800414b0     libcairo-2:dszbs00003.o
 0002:000004b8       __imp_cairo_clip_preserve  00000001800414b8     libcairo-2:dszbs00005.o
 0002:000004c0       __imp_cairo_close_path     00000001800414c0     libcairo-2:dszbs00006.o
 0002:000004c8       __imp_cairo_copy_path_flat 00000001800414c8     libcairo-2:dszbs00010.o
 0002:000004d0       __imp_cairo_create         00000001800414d0     libcairo-2:dszbs00011.o
 0002:000004d8       __imp_cairo_curve_to       00000001800414d8     libcairo-2:dszbs00012.o
 0002:000004e0       __imp_cairo_destroy        00000001800414e0     libcairo-2:dszbs00014.o
 0002:000004e8       __imp_cairo_fill           00000001800414e8     libcairo-2:dszbs00035.o
 0002:000004f0       __imp_cairo_fill_extents   00000001800414f0     libcairo-2:dszbs00036.o
 0002:000004f8       __imp_cairo_fill_preserve  00000001800414f8     libcairo-2:dszbs00037.o
 0002:00000500       __imp_cairo_format_stride_for_width 0000000180041500     libcairo-2:dszbs00063.o
 0002:00000508       __imp_cairo_get_antialias  0000000180041508     libcairo-2:dszbs00072.o
 0002:00000510       __imp_cairo_get_current_point 0000000180041510     libcairo-2:dszbs00073.o
 0002:00000518       __imp_cairo_get_dash       0000000180041518     libcairo-2:dszbs00074.o
 0002:00000520       __imp_cairo_get_dash_count 0000000180041520     libcairo-2:dszbs00075.o
 0002:00000528       __imp_cairo_get_line_cap   0000000180041528     libcairo-2:dszbs00081.o
 0002:00000530       __imp_cairo_get_line_join  0000000180041530     libcairo-2:dszbs00082.o
 0002:00000538       __imp_cairo_get_line_width 0000000180041538     libcairo-2:dszbs00083.o
 0002:00000540       __imp_cairo_get_matrix     0000000180041540     libcairo-2:dszbs00084.o
 0002:00000548       __imp_cairo_get_miter_limit 0000000180041548     libcairo-2:dszbs00085.o
 0002:00000550       __imp_cairo_get_operator   0000000180041550     libcairo-2:dszbs00086.o
 0002:00000558       __imp_cairo_get_source     0000000180041558     libcairo-2:dszbs00089.o
 0002:00000560       __imp_cairo_identity_matrix 0000000180041560     libcairo-2:dszbs00098.o
 0002:00000568       __imp_cairo_image_surface_create 0000000180041568     libcairo-2:dszbs00099.o
 0002:00000570       __imp_cairo_image_surface_create_for_data 0000000180041570     libcairo-2:dszbs00100.o
 0002:00000578       __imp_cairo_image_surface_create_from_png 0000000180041578     libcairo-2:dszbs00101.o
 0002:00000580       __imp_cairo_image_surface_create_from_png_stream 0000000180041580     libcairo-2:dszbs00102.o
 0002:00000588       __imp_cairo_image_surface_get_data 0000000180041588     libcairo-2:dszbs00103.o
 0002:00000590       __imp_cairo_image_surface_get_format 0000000180041590     libcairo-2:dszbs00104.o
 0002:00000598       __imp_cairo_image_surface_get_height 0000000180041598     libcairo-2:dszbs00105.o
 0002:000005a0       __imp_cairo_image_surface_get_stride 00000001800415a0     libcairo-2:dszbs00106.o
 0002:000005a8       __imp_cairo_image_surface_get_width 00000001800415a8     libcairo-2:dszbs00107.o
 0002:000005b0       __imp_cairo_in_fill        00000001800415b0     libcairo-2:dszbs00109.o
 0002:000005b8       __imp_cairo_in_stroke      00000001800415b8     libcairo-2:dszbs00110.o
 0002:000005c0       __imp_cairo_line_to        00000001800415c0     libcairo-2:dszbs00111.o
 0002:000005c8       __imp_cairo_mask_surface   00000001800415c8     libcairo-2:dszbs00113.o
 0002:000005d0       __imp_cairo_matrix_init    00000001800415d0     libcairo-2:dszbs00114.o
 0002:000005d8       __imp_cairo_move_to        00000001800415d8     libcairo-2:dszbs00138.o
 0002:000005e0       __imp_cairo_new_path       00000001800415e0     libcairo-2:dszbs00139.o
 0002:000005e8       __imp_cairo_paint          00000001800415e8     libcairo-2:dszbs00141.o
 0002:000005f0       __imp_cairo_paint_with_alpha 00000001800415f0     libcairo-2:dszbs00142.o
 0002:000005f8       __imp_cairo_path_destroy   00000001800415f8     libcairo-2:dszbs00143.o
 0002:00000600       __imp_cairo_pattern_add_color_stop_rgba 0000000180041600     libcairo-2:dszbs00146.o
 0002:00000608       __imp_cairo_pattern_create_for_surface 0000000180041608     libcairo-2:dszbs00147.o
 0002:00000610       __imp_cairo_pattern_create_linear 0000000180041610     libcairo-2:dszbs00148.o
 0002:00000618       __imp_cairo_pattern_create_radial 0000000180041618     libcairo-2:dszbs00150.o
 0002:00000620       __imp_cairo_pattern_destroy 0000000180041620     libcairo-2:dszbs00154.o
 0002:00000628       __imp_cairo_pattern_get_color_stop_count 0000000180041628     libcairo-2:dszbs00155.o
 0002:00000630       __imp_cairo_pattern_get_color_stop_rgba 0000000180041630     libcairo-2:dszbs00156.o
 0002:00000638       __imp_cairo_pattern_get_filter 0000000180041638     libcairo-2:dszbs00158.o
 0002:00000640       __imp_cairo_pattern_get_linear_points 0000000180041640     libcairo-2:dszbs00159.o
 0002:00000648       __imp_cairo_pattern_get_radial_circles 0000000180041648     libcairo-2:dszbs00161.o
 0002:00000650       __imp_cairo_pattern_get_surface 0000000180041650     libcairo-2:dszbs00164.o
 0002:00000658       __imp_cairo_pattern_get_type 0000000180041658     libcairo-2:dszbs00165.o
 0002:00000660       __imp_cairo_pattern_get_user_data 0000000180041660     libcairo-2:dszbs00166.o
 0002:00000668       __imp_cairo_pattern_set_extend 0000000180041668     libcairo-2:dszbs00168.o
 0002:00000670       __imp_cairo_pattern_set_filter 0000000180041670     libcairo-2:dszbs00169.o
 0002:00000678       __imp_cairo_pattern_set_user_data 0000000180041678     libcairo-2:dszbs00171.o
 0002:00000680       __imp_cairo_pdf_surface_create_for_stream 0000000180041680     libcairo-2:dszbs00176.o
 0002:00000688       __imp_cairo_pdf_surface_set_size 0000000180041688     libcairo-2:dszbs00180.o
 0002:00000690       __imp_cairo_pop_group_to_source 0000000180041690     libcairo-2:dszbs00184.o
 0002:00000698       __imp_cairo_push_group     0000000180041698     libcairo-2:dszbs00196.o
 0002:000006a0       __imp_cairo_rectangle      00000001800416a0     libcairo-2:dszbs00211.o
 0002:000006a8       __imp_cairo_restore        00000001800416a8     libcairo-2:dszbs00241.o
 0002:000006b0       __imp_cairo_rotate         00000001800416b0     libcairo-2:dszbs00242.o
 0002:000006b8       __imp_cairo_save           00000001800416b8     libcairo-2:dszbs00243.o
 0002:000006c0       __imp_cairo_scale          00000001800416c0     libcairo-2:dszbs00244.o
 0002:000006c8       __imp_cairo_set_antialias  00000001800416c8     libcairo-2:dszbs00271.o
 0002:000006d0       __imp_cairo_set_dash       00000001800416d0     libcairo-2:dszbs00272.o
 0002:000006d8       __imp_cairo_set_fill_rule  00000001800416d8     libcairo-2:dszbs00273.o
 0002:000006e0       __imp_cairo_set_line_cap   00000001800416e0     libcairo-2:dszbs00278.o
 0002:000006e8       __imp_cairo_set_line_join  00000001800416e8     libcairo-2:dszbs00279.o
 0002:000006f0       __imp_cairo_set_line_width 00000001800416f0     libcairo-2:dszbs00280.o
 0002:000006f8       __imp_cairo_set_matrix     00000001800416f8     libcairo-2:dszbs00281.o
 0002:00000700       __imp_cairo_set_miter_limit 0000000180041700     libcairo-2:dszbs00282.o
 0002:00000708       __imp_cairo_set_operator   0000000180041708     libcairo-2:dszbs00283.o
 0002:00000710       __imp_cairo_set_source     0000000180041710     libcairo-2:dszbs00285.o
 0002:00000718       __imp_cairo_set_source_rgba 0000000180041718     libcairo-2:dszbs00287.o
 0002:00000720       __imp_cairo_set_source_surface 0000000180041720     libcairo-2:dszbs00288.o
 0002:00000728       __imp_cairo_show_page      0000000180041728     libcairo-2:dszbs00292.o
 0002:00000730       __imp_cairo_status         0000000180041730     libcairo-2:dszbs00295.o
 0002:00000738       __imp_cairo_status_to_string 0000000180041738     libcairo-2:dszbs00296.o
 0002:00000740       __imp_cairo_stroke         0000000180041740     libcairo-2:dszbs00297.o
 0002:00000748       __imp_cairo_stroke_extents 0000000180041748     libcairo-2:dszbs00298.o
 0002:00000750       __imp_cairo_stroke_preserve 0000000180041750     libcairo-2:dszbs00299.o
 0002:00000758       __imp_cairo_surface_destroy 0000000180041758     libcairo-2:dszbs00305.o
 0002:00000760       __imp_cairo_surface_finish 0000000180041760     libcairo-2:dszbs00306.o
 0002:00000768       __imp_cairo_surface_flush  0000000180041768     libcairo-2:dszbs00307.o
 0002:00000770       __imp_cairo_surface_mark_dirty 0000000180041770     libcairo-2:dszbs00320.o
 0002:00000778       __imp_cairo_surface_mark_dirty_rectangle 0000000180041778     libcairo-2:dszbs00321.o
 0002:00000780       __imp_cairo_surface_set_mime_data 0000000180041780     libcairo-2:dszbs00335.o
 0002:00000788       __imp_cairo_surface_status 0000000180041788     libcairo-2:dszbs00338.o
 0002:00000790       __imp_cairo_svg_surface_create_for_stream 0000000180041790     libcairo-2:dszbs00345.o
 0002:00000798       __imp_cairo_transform      0000000180041798     libcairo-2:dszbs00364.o
 0002:000007a0       __imp_cairo_translate      00000001800417a0     libcairo-2:dszbs00365.o
 0002:000007a8       __imp_cairo_user_to_device_distance 00000001800417a8     libcairo-2:dszbs00376.o
 0002:000007b0       __imp_cairo_version_string 00000001800417b0     libcairo-2:dszbs00378.o
 0002:000007c0       __imp_rsvg_handle_get_dimensions 00000001800417c0     librsvg-2-2:duces00067.o
 0002:000007c8       __imp_rsvg_handle_new_from_data 00000001800417c8     librsvg-2-2:duces00078.o
 0002:000007d0       __imp_rsvg_handle_render_cairo 00000001800417d0     librsvg-2-2:duces00084.o
 0002:000007e0       __imp_pango_context_get_language 00000001800417e0     libpango-1.0-0:dwles00069.o
 0002:000007e8       __imp_pango_context_get_metrics 00000001800417e8     libpango-1.0-0:dwles00071.o
 0002:000007f0       __imp_pango_font_description_better_match 00000001800417f0     libpango-1.0-0:dwles00107.o
 0002:000007f8       __imp_pango_font_description_copy 00000001800417f8     libpango-1.0-0:dwles00108.o
 0002:00000800       __imp_pango_font_description_equal 0000000180041800     libpango-1.0-0:dwles00110.o
 0002:00000808       __imp_pango_font_description_free 0000000180041808     libpango-1.0-0:dwles00111.o
 0002:00000810       __imp_pango_font_description_from_string 0000000180041810     libpango-1.0-0:dwles00112.o
 0002:00000818       __imp_pango_font_description_get_family 0000000180041818     libpango-1.0-0:dwles00113.o
 0002:00000820       __imp_pango_font_description_new 0000000180041820     libpango-1.0-0:dwles00127.o
 0002:00000828       __imp_pango_font_description_set_absolute_size 0000000180041828     libpango-1.0-0:dwles00128.o
 0002:00000830       __imp_pango_font_description_set_family 0000000180041830     libpango-1.0-0:dwles00129.o
 0002:00000838       __imp_pango_font_description_set_family_static 0000000180041838     libpango-1.0-0:dwles00130.o
 0002:00000840       __imp_pango_font_description_set_stretch 0000000180041840     libpango-1.0-0:dwles00133.o
 0002:00000848       __imp_pango_font_description_set_style 0000000180041848     libpango-1.0-0:dwles00134.o
 0002:00000850       __imp_pango_font_description_set_weight 0000000180041850     libpango-1.0-0:dwles00138.o
 0002:00000858       __imp_pango_font_metrics_get_ascent 0000000180041858     libpango-1.0-0:dwles00169.o
 0002:00000860       __imp_pango_font_metrics_unref 0000000180041860     libpango-1.0-0:dwles00178.o
 0002:00000868       __imp_pango_layout_get_baseline 0000000180041868     libpango-1.0-0:dwles00243.o
 0002:00000870       __imp_pango_layout_get_context 0000000180041870     libpango-1.0-0:dwles00245.o
 0002:00000878       __imp_pango_layout_get_extents 0000000180041878     libpango-1.0-0:dwles00248.o
 0002:00000880       __imp_pango_layout_get_font_description 0000000180041880     libpango-1.0-0:dwles00249.o
 0002:00000888       __imp_pango_layout_get_line 0000000180041888     libpango-1.0-0:dwles00254.o
 0002:00000890       __imp_pango_layout_get_pixel_extents 0000000180041890     libpango-1.0-0:dwles00261.o
 0002:00000898       __imp_pango_layout_line_get_extents 0000000180041898     libpango-1.0-0:dwles00298.o
 0002:000008a0       __imp_pango_layout_set_font_description 00000001800418a0     libpango-1.0-0:dwles00312.o
 0002:000008a8       __imp_pango_layout_set_text 00000001800418a8     libpango-1.0-0:dwles00321.o
 0002:000008b8       __imp_FT_Done_Face         00000001800418b8     libfreetype-6:dwrbs00033.o
 0002:000008c0       __imp_FT_Done_FreeType     00000001800418c0     libfreetype-6:dwrbs00034.o
 0002:000008c8       __imp_FT_Get_Sfnt_Name     00000001800418c8     libfreetype-6:dwrbs00081.o
 0002:000008d0       __imp_FT_Get_Sfnt_Name_Count 00000001800418d0     libfreetype-6:dwrbs00082.o
 0002:000008d8       __imp_FT_Get_Sfnt_Table    00000001800418d8     libfreetype-6:dwrbs00083.o
 0002:000008e0       __imp_FT_Init_FreeType     00000001800418e0     libfreetype-6:dwrbs00103.o
 0002:000008e8       __imp_FT_New_Face          00000001800418e8     libfreetype-6:dwrbs00121.o
 0002:000008f8       __imp_g_ascii_strcasecmp   00000001800418f8     libglib-2.0-0:dwtds00025.o
 0002:00000900       __imp_g_free               0000000180041900     libglib-2.0-0:dwtds00408.o
 0002:00000908       __imp_g_hash_table_destroy 0000000180041908     libglib-2.0-0:dwtds00441.o
 0002:00000910       __imp_g_hash_table_lookup  0000000180041910     libglib-2.0-0:dwtds00456.o
 0002:00000918       __imp_g_hash_table_new     0000000180041918     libglib-2.0-0:dwtds00458.o
 0002:00000920       __imp_g_hash_table_replace 0000000180041920     libglib-2.0-0:dwtds00463.o
 0002:00000928       __imp_g_iconv              0000000180041928     libglib-2.0-0:dwtds00504.o
 0002:00000930       __imp_g_iconv_open         0000000180041930     libglib-2.0-0:dwtds00506.o
 0002:00000938       __imp_g_list_first         0000000180041938     libglib-2.0-0:dwtds00623.o
 0002:00000940       __imp_g_list_foreach       0000000180041940     libglib-2.0-0:dwtds00624.o
 0002:00000948       __imp_g_list_free          0000000180041948     libglib-2.0-0:dwtds00625.o
 0002:00000950       __imp_g_list_insert_sorted 0000000180041950     libglib-2.0-0:dwtds00631.o
 0002:00000958       __imp_g_str_equal          0000000180041958     libglib-2.0-0:dwtds01212.o
 0002:00000960       __imp_g_str_hash           0000000180041960     libglib-2.0-0:dwtds01215.o
 0002:00000968       __imp_g_strdup             0000000180041968     libglib-2.0-0:dwtds01229.o
 0002:00000970       __imp_g_strfreev           0000000180041970     libglib-2.0-0:dwtds01235.o
 0002:00000978       __imp_g_string_append      0000000180041978     libglib-2.0-0:dwtds01236.o
 0002:00000980       __imp_g_string_free        0000000180041980     libglib-2.0-0:dwtds01255.o
 0002:00000988       __imp_g_string_new         0000000180041988     libglib-2.0-0:dwtds01262.o
 0002:00000990       __imp_g_strsplit           0000000180041990     libglib-2.0-0:dwtds01288.o
 0002:000009a0       __guard_check_icall_fptr   00000001800419a0     LIBCMT:guard_support.obj
 0002:000009a8       __guard_dispatch_icall_fptr 00000001800419a8     LIBCMT:guard_support.obj
 0002:000009b0       __xc_a                     00000001800419b0     LIBCMT:initializers.obj
 0002:000009e0       _register_canvas_          00000001800419e0     init.obj
 0002:00000a40       __xc_z                     0000000180041a40     LIBCMT:initializers.obj
 0002:00000a48       __xi_a                     0000000180041a48     LIBCMT:initializers.obj
 0002:00000a58       __acrt_stdio_initializer   0000000180041a58     libucrt:stdio_initializer.obj
 0002:00000a60       __acrt_tran_fma3_initializer 0000000180041a60     libucrt:fma3_initializer.obj
 0002:00000a68       __acrt_timeset_initializer 0000000180041a68     libucrt:timeset_initializer.obj
 0002:00000a70       __acrt_multibyte_initializer 0000000180041a70     libucrt:multibyte_initializer.obj
 0002:00000a78       __xi_z                     0000000180041a78     LIBCMT:initializers.obj
 0002:00000a80       __xp_a                     0000000180041a80     LIBCMT:initializers.obj
 0002:00000a88       __acrt_locale_terminator   0000000180041a88     libucrt:locale_initializer.obj
 0002:00000a90       __dcrt_console_output_terminator 0000000180041a90     libucrt:console_output_initializer.obj
 0002:00000a98       __acrt_stdio_terminator    0000000180041a98     libucrt:stdio_initializer.obj
 0002:00000aa0       __xp_z                     0000000180041aa0     LIBCMT:initializers.obj
 0002:00000aa8       __xt_a                     0000000180041aa8     LIBCMT:initializers.obj
 0002:00000ab0       __xt_z                     0000000180041ab0     LIBCMT:initializers.obj
 0002:00000ac0       __sz_node_exe              0000000180041ac0     node:node.exe
 0002:00000ad8       ??_7exception@std@@6B@     0000000180041ad8     libcpmt:xonce.obj
 0002:00000ae8       ??_C@_0BC@EOODALEL@Unknown?5exception@ 0000000180041ae8     libcpmt:xonce.obj
 0002:00000b50       ??_C@_01NBENCBCI@?$CK@     0000000180041b50     libcpmt:locale0.obj
 0002:00000b60       ??_7bad_alloc@std@@6B@     0000000180041b60     libcpmt:xthrow.obj
 0002:00000b70       ??_C@_0P@GHFPNOJB@bad?5allocation@ 0000000180041b70     libcpmt:xthrow.obj
 0002:00000b88       ??_7logic_error@std@@6B@   0000000180041b88     libcpmt:xthrow.obj
 0002:00000ba0       ??_7length_error@std@@6B@  0000000180041ba0     libcpmt:xthrow.obj
 0002:00000bb8       ??_7bad_function_call@std@@6B@ 0000000180041bb8     libcpmt:xthrow.obj
 0002:00000bc8       ??_C@_0BC@DPJNKNAF@bad?5function?5call@ 0000000180041bc8     libcpmt:xthrow.obj
 0002:00000be0       ?_BADOFF@std@@3_JB         0000000180041be0     libcpmt:ios.obj
 0002:00001340       ??_C@_0BN@LKKBCCDB@address?5family?5not?5supported@ 0000000180042340     libcpmt:syserror.obj
 0002:00001360       ??_C@_0P@LDMLAFHI@address?5in?5use@ 0000000180042360     libcpmt:syserror.obj
 0002:00001370       ??_C@_0BG@DHPCNBJB@address?5not?5available@ 0000000180042370     libcpmt:syserror.obj
 0002:00001388       ??_C@_0BC@DFIBIBIL@already?5connected@ 0000000180042388     libcpmt:syserror.obj
 0002:000013a0       ??_C@_0BH@CAKOHOMI@argument?5list?5too?5long@ 00000001800423a0     libcpmt:syserror.obj
 0002:000013b8       ??_C@_0BH@CGIMPKIM@argument?5out?5of?5domain@ 00000001800423b8     libcpmt:syserror.obj
 0002:000013d0       ??_C@_0M@KGHGGJGL@bad?5address@ 00000001800423d0     libcpmt:syserror.obj
 0002:000013e0       ??_C@_0BE@MPJPGCEO@bad?5file?5descriptor@ 00000001800423e0     libcpmt:syserror.obj
 0002:000013f8       ??_C@_0M@PMMIEFCP@bad?5message@ 00000001800423f8     libcpmt:syserror.obj
 0002:00001408       ??_C@_0M@KPHOFDBE@broken?5pipe@ 0000000180042408     libcpmt:syserror.obj
 0002:00001418       ??_C@_0BD@MGNDDEGM@connection?5aborted@ 0000000180042418     libcpmt:syserror.obj
 0002:00001430       ??_C@_0BP@KAIHPOGN@connection?5already?5in?5progress@ 0000000180042430     libcpmt:syserror.obj
 0002:00001450       ??_C@_0BD@PJLIIJEL@connection?5refused@ 0000000180042450     libcpmt:syserror.obj
 0002:00001468       ??_C@_0BB@IECNJNOI@connection?5reset@ 0000000180042468     libcpmt:syserror.obj
 0002:00001480       ??_C@_0BC@PPHBOELF@cross?5device?5link@ 0000000180042480     libcpmt:syserror.obj
 0002:00001498       ??_C@_0BN@KDMIFEIP@destination?5address?5required@ 0000000180042498     libcpmt:syserror.obj
 0002:000014b8       ??_C@_0BI@NGCEHDD@device?5or?5resource?5busy@ 00000001800424b8     libcpmt:syserror.obj
 0002:000014d0       ??_C@_0BE@JIDOCPHM@directory?5not?5empty@ 00000001800424d0     libcpmt:syserror.obj
 0002:000014e8       ??_C@_0BI@BNCLIGPB@executable?5format?5error@ 00000001800424e8     libcpmt:syserror.obj
 0002:00001500       ??_C@_0M@MIDIAGJP@file?5exists@ 0000000180042500     libcpmt:syserror.obj
 0002:00001510       ??_C@_0P@DNAJLBJK@file?5too?5large@ 0000000180042510     libcpmt:syserror.obj
 0002:00001520       ??_C@_0BC@EJHOMAAK@filename?5too?5long@ 0000000180042520     libcpmt:syserror.obj
 0002:00001538       ??_C@_0BH@KEFGLDAF@function?5not?5supported@ 0000000180042538     libcpmt:syserror.obj
 0002:00001550       ??_C@_0BB@DHFDFGDM@host?5unreachable@ 0000000180042550     libcpmt:syserror.obj
 0002:00001568       ??_C@_0BD@JPHBMONG@identifier?5removed@ 0000000180042568     libcpmt:syserror.obj
 0002:00001580       ??_C@_0BG@CDNPAGJK@illegal?5byte?5sequence@ 0000000180042580     libcpmt:syserror.obj
 0002:00001598       ??_C@_0CD@BNPLBMNA@inappropriate?5io?5control?5operat@ 0000000180042598     libcpmt:syserror.obj
 0002:000015c0       ??_C@_0M@EGEKIIMP@interrupted@ 00000001800425c0     libcpmt:syserror.obj
 0002:000015d0       ??_C@_0BB@FCMFBGOM@invalid?5argument@ 00000001800425d0     libcpmt:syserror.obj
 0002:000015e8       ??_C@_0N@OHAFKDEK@invalid?5seek@ 00000001800425e8     libcpmt:syserror.obj
 0002:000015f8       ??_C@_08GLNPIFBN@io?5error@ 00000001800425f8     libcpmt:syserror.obj
 0002:00001608       ??_C@_0P@FLLDBIDK@is?5a?5directory@ 0000000180042608     libcpmt:syserror.obj
 0002:00001618       ??_C@_0N@IFLPBIOP@message?5size@ 0000000180042618     libcpmt:syserror.obj
 0002:00001628       ??_C@_0N@KIIEAAIO@network?5down@ 0000000180042628     libcpmt:syserror.obj
 0002:00001638       ??_C@_0O@FNPDBHEE@network?5reset@ 0000000180042638     libcpmt:syserror.obj
 0002:00001648       ??_C@_0BE@IFNCKGE@network?5unreachable@ 0000000180042648     libcpmt:syserror.obj
 0002:00001660       ??_C@_0BA@PFFCAOFK@no?5buffer?5space@ 0000000180042660     libcpmt:syserror.obj
 0002:00001670       ??_C@_0BB@IEPBLJHK@no?5child?5process@ 0000000180042670     libcpmt:syserror.obj
 0002:00001688       ??_C@_07PLECNNKG@no?5link@ 0000000180042688     libcpmt:syserror.obj
 0002:00001690       ??_C@_0BC@NJECKMKE@no?5lock?5available@ 0000000180042690     libcpmt:syserror.obj
 0002:000016a8       ??_C@_0BF@PBGGPKKE@no?5message?5available@ 00000001800426a8     libcpmt:syserror.obj
 0002:000016c0       ??_C@_0L@EDOLMPAK@no?5message@ 00000001800426c0     libcpmt:syserror.obj
 0002:000016d0       ??_C@_0BD@EAMBFIDF@no?5protocol?5option@ 00000001800426d0     libcpmt:syserror.obj
 0002:000016e8       ??_C@_0BD@IJDJKDEA@no?5space?5on?5device@ 00000001800426e8     libcpmt:syserror.obj
 0002:00001700       ??_C@_0BE@MKFDAFMP@no?5stream?5resources@ 0000000180042700     libcpmt:syserror.obj
 0002:00001718       ??_C@_0BK@IMCPHCBI@no?5such?5device?5or?5address@ 0000000180042718     libcpmt:syserror.obj
 0002:00001738       ??_C@_0P@FDINDDOK@no?5such?5device@ 0000000180042738     libcpmt:syserror.obj
 0002:00001748       ??_C@_0BK@NDOCBPGE@no?5such?5file?5or?5directory@ 0000000180042748     libcpmt:syserror.obj
 0002:00001768       ??_C@_0BA@ENLPPKBN@no?5such?5process@ 0000000180042768     libcpmt:syserror.obj
 0002:00001778       ??_C@_0BA@DOCPFFJG@not?5a?5directory@ 0000000180042778     libcpmt:syserror.obj
 0002:00001788       ??_C@_0N@POEIPGGF@not?5a?5socket@ 0000000180042788     libcpmt:syserror.obj
 0002:00001798       ??_C@_0N@LGAPMMPI@not?5a?5stream@ 0000000180042798     libcpmt:syserror.obj
 0002:000017a8       ??_C@_0O@GLMIBBEG@not?5connected@ 00000001800427a8     libcpmt:syserror.obj
 0002:000017b8       ??_C@_0BC@ENOOLCNF@not?5enough?5memory@ 00000001800427b8     libcpmt:syserror.obj
 0002:000017d0       ??_C@_0O@NHEDABJP@not?5supported@ 00000001800427d0     libcpmt:syserror.obj
 0002:000017e0       ??_C@_0BD@MOLBPMEA@operation?5canceled@ 00000001800427e0     libcpmt:syserror.obj
 0002:000017f8       ??_C@_0BG@KDKHOPCO@operation?5in?5progress@ 00000001800427f8     libcpmt:syserror.obj
 0002:00001810       ??_C@_0BI@OHIEJAAB@operation?5not?5permitted@ 0000000180042810     libcpmt:syserror.obj
 0002:00001828       ??_C@_0BI@LNEGIFLN@operation?5not?5supported@ 0000000180042828     libcpmt:syserror.obj
 0002:00001840       ??_C@_0BG@OEMDKMEE@operation?5would?5block@ 0000000180042840     libcpmt:syserror.obj
 0002:00001858       ??_C@_0L@BLPOFLNJ@owner?5dead@ 0000000180042858     libcpmt:syserror.obj
 0002:00001868       ??_C@_0BC@CIJDGCDI@permission?5denied@ 0000000180042868     libcpmt:syserror.obj
 0002:00001880       ??_C@_0P@FNPOCJBE@protocol?5error@ 0000000180042880     libcpmt:syserror.obj
 0002:00001890       ??_C@_0BH@JPPPLHJB@protocol?5not?5supported@ 0000000180042890     libcpmt:syserror.obj
 0002:000018a8       ??_C@_0BG@EICBIHDP@read?5only?5file?5system@ 00000001800428a8     libcpmt:syserror.obj
 0002:000018c0       ??_C@_0BO@BJBOMOEJ@resource?5deadlock?5would?5occur@ 00000001800428c0     libcpmt:syserror.obj
 0002:000018e0       ??_C@_0BP@LKNGHENJ@resource?5unavailable?5try?5again@ 00000001800428e0     libcpmt:syserror.obj
 0002:00001900       ??_C@_0BE@GOIPJJHG@result?5out?5of?5range@ 0000000180042900     libcpmt:syserror.obj
 0002:00001918       ??_C@_0BG@MPLKFPAE@state?5not?5recoverable@ 0000000180042918     libcpmt:syserror.obj
 0002:00001930       ??_C@_0P@DIIFGFCG@stream?5timeout@ 0000000180042930     libcpmt:syserror.obj
 0002:00001940       ??_C@_0P@IPFDMIFL@text?5file?5busy@ 0000000180042940     libcpmt:syserror.obj
 0002:00001950       ??_C@_09KJPPMAOI@timed?5out@ 0000000180042950     libcpmt:syserror.obj
 0002:00001960       ??_C@_0BO@HACHBEKI@too?5many?5files?5open?5in?5system@ 0000000180042960     libcpmt:syserror.obj
 0002:00001980       ??_C@_0BE@GHAFMPAH@too?5many?5files?5open@ 0000000180042980     libcpmt:syserror.obj
 0002:00001998       ??_C@_0P@HCOMKFCC@too?5many?5links@ 0000000180042998     libcpmt:syserror.obj
 0002:000019a8       ??_C@_0BO@EFGOJEF@too?5many?5symbolic?5link?5levels@ 00000001800429a8     libcpmt:syserror.obj
 0002:000019c8       ??_C@_0BA@KGKGOOJA@value?5too?5large@ 00000001800429c8     libcpmt:syserror.obj
 0002:000019d8       ??_C@_0BE@MIEJDDNH@wrong?5protocol?5type@ 00000001800429d8     libcpmt:syserror.obj
 0002:000019f0       ??_C@_1BK@MGMFAEKH@?$AAk?$AAe?$AAr?$AAn?$AAe?$AAl?$AA3?$AA2?$AA?4?$AAd?$AAl?$AAl@ 00000001800429f0     libcpmt:winapisupp.obj
 0002:00001a10       ??_C@_08KNHFBNJ@FlsAlloc@  0000000180042a10     libcpmt:winapisupp.obj
 0002:00001a20       ??_C@_07PEJMOBNF@FlsFree@  0000000180042a20     libcpmt:winapisupp.obj
 0002:00001a28       ??_C@_0M@GDNOONDI@FlsGetValue@ 0000000180042a28     libcpmt:winapisupp.obj
 0002:00001a38       ??_C@_0M@JCPCPOEF@FlsSetValue@ 0000000180042a38     libcpmt:winapisupp.obj
 0002:00001a48       ??_C@_0BM@HCFOFFN@InitializeCriticalSectionEx@ 0000000180042a48     libcpmt:winapisupp.obj
 0002:00001a68       ??_C@_0BE@GPLMMCMH@InitOnceExecuteOnce@ 0000000180042a68     libcpmt:winapisupp.obj
 0002:00001a80       ??_C@_0P@DLHPPCNH@CreateEventExW@ 0000000180042a80     libcpmt:winapisupp.obj
 0002:00001a90       ??_C@_0BB@MEFPJLHN@CreateSemaphoreW@ 0000000180042a90     libcpmt:winapisupp.obj
 0002:00001aa8       ??_C@_0BD@KIEEOEEH@CreateSemaphoreExW@ 0000000180042aa8     libcpmt:winapisupp.obj
 0002:00001ac0       ??_C@_0BG@OGFAJCKC@CreateThreadpoolTimer@ 0000000180042ac0     libcpmt:winapisupp.obj
 0002:00001ad8       ??_C@_0BD@LPLEMMDI@SetThreadpoolTimer@ 0000000180042ad8     libcpmt:winapisupp.obj
 0002:00001af0       ??_C@_0CA@FMNJENH@WaitForThreadpoolTimerCallbacks@ 0000000180042af0     libcpmt:winapisupp.obj
 0002:00001b10       ??_C@_0BF@DCFCCNOC@CloseThreadpoolTimer@ 0000000180042b10     libcpmt:winapisupp.obj
 0002:00001b28       ??_C@_0BF@FLABGKKM@CreateThreadpoolWait@ 0000000180042b28     libcpmt:winapisupp.obj
 0002:00001b40       ??_C@_0BC@MGCOHNA@SetThreadpoolWait@ 0000000180042b40     libcpmt:winapisupp.obj
 0002:00001b58       ??_C@_0BE@OCIOMIMP@CloseThreadpoolWait@ 0000000180042b58     libcpmt:winapisupp.obj
 0002:00001b70       ??_C@_0BJ@LKGHFHBO@FlushProcessWriteBuffers@ 0000000180042b70     libcpmt:winapisupp.obj
 0002:00001b90       ??_C@_0BP@KALKKPMO@FreeLibraryWhenCallbackReturns@ 0000000180042b90     libcpmt:winapisupp.obj
 0002:00001bb0       ??_C@_0BK@DFNBACLA@GetCurrentProcessorNumber@ 0000000180042bb0     libcpmt:winapisupp.obj
 0002:00001bd0       ??_C@_0BE@FKKLLFLM@CreateSymbolicLinkW@ 0000000180042bd0     libcpmt:winapisupp.obj
 0002:00001be8       ??_C@_0BE@JOGNEJCI@GetCurrentPackageId@ 0000000180042be8     libcpmt:winapisupp.obj
 0002:00001c00       ??_C@_0P@CDHHOHKP@GetTickCount64@ 0000000180042c00     libcpmt:winapisupp.obj
 0002:00001c10       ??_C@_0BN@NEEHBBPO@GetFileInformationByHandleEx@ 0000000180042c10     libcpmt:winapisupp.obj
 0002:00001c30       ??_C@_0BL@KBBHGKCM@SetFileInformationByHandle@ 0000000180042c30     libcpmt:winapisupp.obj
 0002:00001c50       ??_C@_0BP@FPNJPEJC@GetSystemTimePreciseAsFileTime@ 0000000180042c50     libcpmt:winapisupp.obj
 0002:00001c70       ??_C@_0BM@HLJJNPAH@InitializeConditionVariable@ 0000000180042c70     libcpmt:winapisupp.obj
 0002:00001c90       ??_C@_0BG@BFNILBLN@WakeConditionVariable@ 0000000180042c90     libcpmt:winapisupp.obj
 0002:00001ca8       ??_C@_0BJ@PGPPEPCC@WakeAllConditionVariable@ 0000000180042ca8     libcpmt:winapisupp.obj
 0002:00001cc8       ??_C@_0BJ@JEBJOJFJ@SleepConditionVariableCS@ 0000000180042cc8     libcpmt:winapisupp.obj
 0002:00001ce8       ??_C@_0BC@MMLHEBPB@InitializeSRWLock@ 0000000180042ce8     libcpmt:winapisupp.obj
 0002:00001d00       ??_C@_0BI@OMNLIJDB@AcquireSRWLockExclusive@ 0000000180042d00     libcpmt:winapisupp.obj
 0002:00001d18       ??_C@_0BL@OGHFEMNA@TryAcquireSRWLockExclusive@ 0000000180042d18     libcpmt:winapisupp.obj
 0002:00001d38       ??_C@_0BI@HMIEPCNJ@ReleaseSRWLockExclusive@ 0000000180042d38     libcpmt:winapisupp.obj
 0002:00001d50       ??_C@_0BK@LGACAGIC@SleepConditionVariableSRW@ 0000000180042d50     libcpmt:winapisupp.obj
 0002:00001d70       ??_C@_0BF@GGPHFPJA@CreateThreadpoolWork@ 0000000180042d70     libcpmt:winapisupp.obj
 0002:00001d88       ??_C@_0BF@NHDAIMMO@SubmitThreadpoolWork@ 0000000180042d88     libcpmt:winapisupp.obj
 0002:00001da0       ??_C@_0BE@NPHIPNPD@CloseThreadpoolWork@ 0000000180042da0     libcpmt:winapisupp.obj
 0002:00001db8       ??_C@_0BA@IHGNDAEB@CompareStringEx@ 0000000180042db8     libcpmt:winapisupp.obj
 0002:00001dc8       ??_C@_0BA@ONOKGCMP@GetLocaleInfoEx@ 0000000180042dc8     libcpmt:winapisupp.obj
 0002:00001dd8       ??_C@_0O@KKBNKAPF@LCMapStringEx@ 0000000180042dd8     libcpmt:winapisupp.obj
 0002:00001e10       ??_C@_11LOCGONAA@@         0000000180042e10     libcpmt:wlocale.obj
 0002:00001e14       ??_C@_01JOAMLHOP@?9@       0000000180042e14     libcpmt:wlocale.obj
 0002:00003b40       ??_C@_15EMKDOKLE@?$AAa?$AAr@ 0000000180044b40     libcpmt:winapinls.obj
 0002:00003b48       ??_C@_15KNPADPLH@?$AAb?$AAg@ 0000000180044b48     libcpmt:winapinls.obj
 0002:00003b50       ??_C@_15EDMHLDMO@?$AAc?$AAa@ 0000000180044b50     libcpmt:winapinls.obj
 0002:00003b58       ??_C@_1O@BPEAJADD@?$AAz?$AAh?$AA?9?$AAC?$AAH?$AAS@ 0000000180044b58     libcpmt:winapinls.obj
 0002:00003b68       ??_C@_15LJNHCMNK@?$AAc?$AAs@ 0000000180044b68     libcpmt:winapinls.obj
 0002:00003b70       ??_C@_15FOMCIDHG@?$AAd?$AAa@ 0000000180044b70     libcpmt:winapinls.obj
 0002:00003b78       ??_C@_15NBKABECB@?$AAd?$AAe@ 0000000180044b78     libcpmt:winapinls.obj
 0002:00003b80       ??_C@_15GHPEIIAO@?$AAe?$AAl@ 0000000180044b80     libcpmt:winapinls.obj
 0002:00003b88       ??_C@_15MNPNEAIF@?$AAe?$AAn@ 0000000180044b88     libcpmt:winapinls.obj
 0002:00003b90       ??_C@_15GPIOMPMH@?$AAe?$AAs@ 0000000180044b90     libcpmt:winapinls.obj
 0002:00003b98       ??_C@_15NGLOAKJC@?$AAf?$AAi@ 0000000180044b98     libcpmt:winapinls.obj
 0002:00003ba0       ??_C@_15FBKGNKAM@?$AAf?$AAr@ 0000000180044ba0     libcpmt:winapinls.obj
 0002:00003ba8       ??_C@_15KGGCNEFK@?$AAh?$AAe@ 0000000180044ba8     libcpmt:winapinls.obj
 0002:00003bb0       ??_C@_15PGHLIDMF@?$AAh?$AAu@ 0000000180044bb0     libcpmt:winapinls.obj
 0002:00003bb8       ??_C@_15BIEMAPLM@?$AAi?$AAs@ 0000000180044bb8     libcpmt:winapinls.obj
 0002:00003bc0       ??_C@_15IFJLDHAF@?$AAi?$AAt@ 0000000180044bc0     libcpmt:winapinls.obj
 0002:00003bc8       ??_C@_15GEMIOCAG@?$AAj?$AAa@ 0000000180044bc8     libcpmt:winapinls.obj
 0002:00003bd0       ??_C@_15EPELEGJA@?$AAk?$AAo@ 0000000180044bd0     libcpmt:winapinls.obj
 0002:00003bd8       ??_C@_15NDDHIMN@?$AAn?$AAl@ 0000000180044bd8     libcpmt:winapinls.obj
 0002:00003be0       ??_C@_15BPIGNHCD@?$AAn?$AAo@ 0000000180044be0     libcpmt:winapinls.obj
 0002:00003be8       ??_C@_15DEOPBLCG@?$AAp?$AAl@ 0000000180044be8     libcpmt:winapinls.obj
 0002:00003bf0       ??_C@_15KBECGEFG@?$AAp?$AAt@ 0000000180044bf0     libcpmt:winapinls.obj
 0002:00003bf8       ??_C@_15GLJCBFMD@?$AAr?$AAo@ 0000000180044bf8     libcpmt:winapinls.obj
 0002:00003c00       ??_C@_15FEDGKCDI@?$AAr?$AAu@ 0000000180044c00     libcpmt:winapinls.obj
 0002:00003c08       ??_C@_15GLKMLLHM@?$AAh?$AAr@ 0000000180044c08     libcpmt:winapinls.obj
 0002:00003c10       ??_C@_15CPKMFBDB@?$AAs?$AAk@ 0000000180044c10     libcpmt:winapinls.obj
 0002:00003c18       ??_C@_15BAAIOGMK@?$AAs?$AAq@ 0000000180044c18     libcpmt:winapinls.obj
 0002:00003c20       ??_C@_15INNPNOHD@?$AAs?$AAv@ 0000000180044c20     libcpmt:winapinls.obj
 0002:00003c28       ??_C@_15CABMMOGH@?$AAt?$AAh@ 0000000180044c28     libcpmt:winapinls.obj
 0002:00003c30       ??_C@_15BPLIHJJM@?$AAt?$AAr@ 0000000180044c30     libcpmt:winapinls.obj
 0002:00003c38       ??_C@_15NEOEKKDJ@?$AAu?$AAr@ 0000000180044c38     libcpmt:winapinls.obj
 0002:00003c40       ??_C@_15NFICGAJK@?$AAi?$AAd@ 0000000180044c40     libcpmt:winapinls.obj
 0002:00003c48       ??_C@_15PJPFLCCM@?$AAu?$AAk@ 0000000180044c48     libcpmt:winapinls.obj
 0002:00003c50       ??_C@_15HPJPHDM@?$AAb?$AAe@ 0000000180044c50     libcpmt:winapinls.obj
 0002:00003c58       ??_C@_15LCHLGJII@?$AAs?$AAl@ 0000000180044c58     libcpmt:winapinls.obj
 0002:00003c60       ??_C@_15PCFJPHHO@?$AAe?$AAt@ 0000000180044c60     libcpmt:winapinls.obj
 0002:00003c68       ??_C@_15HPFPGODN@?$AAl?$AAv@ 0000000180044c68     libcpmt:winapinls.obj
 0002:00003c70       ??_C@_15NFFGKGLG@?$AAl?$AAt@ 0000000180044c70     libcpmt:winapinls.obj
 0002:00003c78       ??_C@_15BDAKCCHN@?$AAf?$AAa@ 0000000180044c78     libcpmt:winapinls.obj
 0002:00003c80       ??_C@_15NFGIAIAJ@?$AAv?$AAi@ 0000000180044c80     libcpmt:winapinls.obj
 0002:00003c88       ??_C@_15LMKNDMHN@?$AAh?$AAy@ 0000000180044c88     libcpmt:winapinls.obj
 0002:00003c90       ??_C@_15IJBHMCFL@?$AAa?$AAz@ 0000000180044c90     libcpmt:winapinls.obj
 0002:00003c98       ??_C@_15EKOFJABL@?$AAe?$AAu@ 0000000180044c98     libcpmt:winapinls.obj
 0002:00003ca0       ??_C@_15BGHADCNK@?$AAm?$AAk@ 0000000180044ca0     libcpmt:winapinls.obj
 0002:00003ca8       ??_C@_15JDNICKHM@?$AAa?$AAf@ 0000000180044ca8     libcpmt:winapinls.obj
 0002:00003cb0       ??_C@_15KPJEDBKD@?$AAk?$AAa@ 0000000180044cb0     libcpmt:winapinls.obj
 0002:00003cb8       ??_C@_15PDNFFFEO@?$AAf?$AAo@ 0000000180044cb8     libcpmt:winapinls.obj
 0002:00003cc0       ??_C@_15OMLEGLOC@?$AAh?$AAi@ 0000000180044cc0     libcpmt:winapinls.obj
 0002:00003cc8       ??_C@_15IDNNENKK@?$AAm?$AAs@ 0000000180044cc8     libcpmt:winapinls.obj
 0002:00003cd0       ??_C@_15MACJNBMH@?$AAk?$AAk@ 0000000180044cd0     libcpmt:winapinls.obj
 0002:00003cd8       ??_C@_15DKDJEOND@?$AAk?$AAy@ 0000000180044cd8     libcpmt:winapinls.obj
 0002:00003ce0       ??_C@_15DFGDLJBG@?$AAs?$AAw@ 0000000180044ce0     libcpmt:winapinls.obj
 0002:00003ce8       ??_C@_15BBFAICNG@?$AAu?$AAz@ 0000000180044ce8     libcpmt:winapinls.obj
 0002:00003cf0       ??_C@_15DKNDCGEA@?$AAt?$AAt@ 0000000180044cf0     libcpmt:winapinls.obj
 0002:00003cf8       ??_C@_15MGIFMDPL@?$AAp?$AAa@ 0000000180044cf8     libcpmt:winapinls.obj
 0002:00003d00       ??_C@_15HCNDBBA@?$AAg?$AAu@ 0000000180044d00     libcpmt:winapinls.obj
 0002:00003d08       ??_C@_15FNBEIBON@?$AAt?$AAa@ 0000000180044d08     libcpmt:winapinls.obj
 0002:00003d10       ??_C@_15NCHGBGLK@?$AAt?$AAe@ 0000000180044d10     libcpmt:winapinls.obj
 0002:00003d18       ??_C@_15PHPHCBPF@?$AAk?$AAn@ 0000000180044d18     libcpmt:winapinls.obj
 0002:00003d20       ??_C@_15DLGBCKMP@?$AAm?$AAr@ 0000000180044d20     libcpmt:winapinls.obj
 0002:00003d28       ??_C@_15EABBLBFF@?$AAs?$AAa@ 0000000180044d28     libcpmt:winapinls.obj
 0002:00003d30       ??_C@_15CBKOMCOI@?$AAm?$AAn@ 0000000180044d30     libcpmt:winapinls.obj
 0002:00003d38       ??_C@_15CKDMCJAF@?$AAg?$AAl@ 0000000180044d38     libcpmt:winapinls.obj
 0002:00003d40       ??_C@_17CNJFBPG@?$AAk?$AAo?$AAk@ 0000000180044d40     libcpmt:winapinls.obj
 0002:00003d48       ??_C@_17FFBJICPL@?$AAs?$AAy?$AAr@ 0000000180044d48     libcpmt:winapinls.obj
 0002:00003d50       ??_C@_17KPNDCPAF@?$AAd?$AAi?$AAv@ 0000000180044d50     libcpmt:winapinls.obj
 0002:00003d58       ??_C@_1M@OKAHONE@?$AAa?$AAr?$AA?9?$AAS?$AAA@ 0000000180044d58     libcpmt:winapinls.obj
 0002:00003d68       ??_C@_1M@FFFIGIGK@?$AAb?$AAg?$AA?9?$AAB?$AAG@ 0000000180044d68     libcpmt:winapinls.obj
 0002:00003d78       ??_C@_1M@BJNKEDC@?$AAc?$AAa?$AA?9?$AAE?$AAS@ 0000000180044d78     libcpmt:winapinls.obj
 0002:00003d88       ??_C@_1M@CLNBBOPM@?$AAz?$AAh?$AA?9?$AAT?$AAW@ 0000000180044d88     libcpmt:winapinls.obj
 0002:00003d98       ??_C@_1M@IJJHFJHA@?$AAc?$AAs?$AA?9?$AAC?$AAZ@ 0000000180044d98     libcpmt:winapinls.obj
 0002:00003da8       ??_C@_1M@CLPEOBGI@?$AAd?$AAa?$AA?9?$AAD?$AAK@ 0000000180044da8     libcpmt:winapinls.obj
 0002:00003db8       ??_C@_1M@MCMADGCB@?$AAd?$AAe?$AA?9?$AAD?$AAE@ 0000000180044db8     libcpmt:winapinls.obj
 0002:00003dc8       ??_C@_1M@OOCKEMAM@?$AAe?$AAl?$AA?9?$AAG?$AAR@ 0000000180044dc8     libcpmt:winapinls.obj
 0002:00003dd8       ??_C@_1M@BMHNFIME@?$AAe?$AAn?$AA?9?$AAU?$AAS@ 0000000180044dd8     libcpmt:winapinls.obj
 0002:00003de8       ??_C@_1M@DDNJFGID@?$AAf?$AAi?$AA?9?$AAF?$AAI@ 0000000180044de8     libcpmt:winapinls.obj
 0002:00003df8       ??_C@_1M@GLIPPMAC@?$AAf?$AAr?$AA?9?$AAF?$AAR@ 0000000180044df8     libcpmt:winapinls.obj
 0002:00003e08       ??_C@_1M@GFMCHPE@?$AAh?$AAe?$AA?9?$AAI?$AAL@ 0000000180044e08     libcpmt:winapinls.obj
 0002:00003e18       ??_C@_1M@MHLPGNKM@?$AAh?$AAu?$AA?9?$AAH?$AAU@ 0000000180044e18     libcpmt:winapinls.obj
 0002:00003e28       ??_C@_1M@LPDDNNPN@?$AAi?$AAs?$AA?9?$AAI?$AAS@ 0000000180044e28     libcpmt:winapinls.obj
 0002:00003e38       ??_C@_1M@MADIPODN@?$AAi?$AAt?$AA?9?$AAI?$AAT@ 0000000180044e38     libcpmt:winapinls.obj
 0002:00003e48       ??_C@_1M@HPNHIDJI@?$AAj?$AAa?$AA?9?$AAJ?$AAP@ 0000000180044e48     libcpmt:winapinls.obj
 0002:00003e58       ??_C@_1M@JLOOOEGK@?$AAk?$AAo?$AA?9?$AAK?$AAR@ 0000000180044e58     libcpmt:winapinls.obj
 0002:00003e68       ??_C@_1M@IHBJJGG@?$AAn?$AAl?$AA?9?$AAN?$AAL@ 0000000180044e68     libcpmt:winapinls.obj
 0002:00003e78       ??_C@_1M@EANAGDL@?$AAn?$AAb?$AA?9?$AAN?$AAO@ 0000000180044e78     libcpmt:winapinls.obj
 0002:00003e88       ??_C@_1M@NEIEMEGP@?$AAp?$AAl?$AA?9?$AAP?$AAL@ 0000000180044e88     libcpmt:winapinls.obj
 0002:00003e98       ??_C@_1M@BOCFIGEP@?$AAp?$AAt?$AA?9?$AAB?$AAR@ 0000000180044e98     libcpmt:winapinls.obj
 0002:00003ea8       ??_C@_1M@IMPFOPBG@?$AAr?$AAo?$AA?9?$AAR?$AAO@ 0000000180044ea8     libcpmt:winapinls.obj
 0002:00003eb8       ??_C@_1M@IDNNEJMM@?$AAr?$AAu?$AA?9?$AAR?$AAU@ 0000000180044eb8     libcpmt:winapinls.obj
 0002:00003ec8       ??_C@_1M@LILEEOGM@?$AAh?$AAr?$AA?9?$AAH?$AAR@ 0000000180044ec8     libcpmt:winapinls.obj
 0002:00003ed8       ??_C@_1M@FKIFEHPB@?$AAs?$AAk?$AA?9?$AAS?$AAK@ 0000000180044ed8     libcpmt:winapinls.obj
 0002:00003ee8       ??_C@_1M@LJMAMNPJ@?$AAs?$AAq?$AA?9?$AAA?$AAL@ 0000000180044ee8     libcpmt:winapinls.obj
 0002:00003ef8       ??_C@_1M@GIAKDKJK@?$AAs?$AAv?$AA?9?$AAS?$AAE@ 0000000180044ef8     libcpmt:winapinls.obj
 0002:00003f08       ??_C@_1M@MKJKIKCL@?$AAt?$AAh?$AA?9?$AAT?$AAH@ 0000000180044f08     libcpmt:winapinls.obj
 0002:00003f18       ??_C@_1M@MFLCCMPB@?$AAt?$AAr?$AA?9?$AAT?$AAR@ 0000000180044f18     libcpmt:winapinls.obj
 0002:00003f28       ??_C@_1M@OIJHDKJN@?$AAu?$AAr?$AA?9?$AAP?$AAK@ 0000000180044f28     libcpmt:winapinls.obj
 0002:00003f38       ??_C@_1M@LHIPCIEK@?$AAi?$AAd?$AA?9?$AAI?$AAD@ 0000000180044f38     libcpmt:winapinls.obj
 0002:00003f48       ??_C@_1M@MFMOBGI@?$AAu?$AAk?$AA?9?$AAU?$AAA@ 0000000180044f48     libcpmt:winapinls.obj
 0002:00003f58       ??_C@_1M@OBGLJIPL@?$AAb?$AAe?$AA?9?$AAB?$AAY@ 0000000180044f58     libcpmt:winapinls.obj
 0002:00003f68       ??_C@_1M@BCFAJEAD@?$AAs?$AAl?$AA?9?$AAS?$AAI@ 0000000180044f68     libcpmt:winapinls.obj
 0002:00003f78       ??_C@_1M@FKFFEDDN@?$AAe?$AAt?$AA?9?$AAE?$AAE@ 0000000180044f78     libcpmt:winapinls.obj
 0002:00003f88       ??_C@_1M@KGKKAACI@?$AAl?$AAv?$AA?9?$AAL?$AAV@ 0000000180044f88     libcpmt:winapinls.obj
 0002:00003f98       ??_C@_1M@IFGBIJO@?$AAl?$AAt?$AA?9?$AAL?$AAT@ 0000000180044f98     libcpmt:winapinls.obj
 0002:00003fa8       ??_C@_1M@FGEAHEDM@?$AAf?$AAa?$AA?9?$AAI?$AAR@ 0000000180044fa8     libcpmt:winapinls.obj
 0002:00003fb8       ??_C@_1M@KBMAIBFN@?$AAv?$AAi?$AA?9?$AAV?$AAN@ 0000000180044fb8     libcpmt:winapinls.obj
 0002:00003fc8       ??_C@_1M@GPCBKDJK@?$AAh?$AAy?$AA?9?$AAA?$AAM@ 0000000180044fc8     libcpmt:winapinls.obj
 0002:00003fd8       ??_C@_1BG@BECMDDJB@?$AAa?$AAz?$AA?9?$AAA?$AAZ?$AA?9?$AAL?$AAa?$AAt?$AAn@ 0000000180044fd8     libcpmt:winapinls.obj
 0002:00003ff0       ??_C@_1M@MAOFCAEA@?$AAe?$AAu?$AA?9?$AAE?$AAS@ 0000000180044ff0     libcpmt:winapinls.obj
 0002:00004000       ??_C@_1M@IGHABKPI@?$AAm?$AAk?$AA?9?$AAM?$AAK@ 0000000180045000     libcpmt:winapinls.obj
 0002:00004010       ??_C@_1M@IAIGNEJG@?$AAt?$AAn?$AA?9?$AAZ?$AAA@ 0000000180045010     libcpmt:winapinls.obj
 0002:00004020       ??_C@_1M@IIJCOJFA@?$AAx?$AAh?$AA?9?$AAZ?$AAA@ 0000000180045020     libcpmt:winapinls.obj
 0002:00004030       ??_C@_1M@LGPJHNJH@?$AAz?$AAu?$AA?9?$AAZ?$AAA@ 0000000180045030     libcpmt:winapinls.obj
 0002:00004040       ??_C@_1M@HOKAOIO@?$AAa?$AAf?$AA?9?$AAZ?$AAA@ 0000000180045040     libcpmt:winapinls.obj
 0002:00004050       ??_C@_1M@DPCLHLIE@?$AAk?$AAa?$AA?9?$AAG?$AAE@ 0000000180045050     libcpmt:winapinls.obj
 0002:00004060       ??_C@_1M@BLKMHJBI@?$AAf?$AAo?$AA?9?$AAF?$AAO@ 0000000180045060     libcpmt:winapinls.obj
 0002:00004070       ??_C@_1M@LGGJAPPB@?$AAh?$AAi?$AA?9?$AAI?$AAN@ 0000000180045070     libcpmt:winapinls.obj
 0002:00004080       ??_C@_1M@FIKPIHFE@?$AAm?$AAt?$AA?9?$AAM?$AAT@ 0000000180045080     libcpmt:winapinls.obj
 0002:00004090       ??_C@_1M@HEGGPBFA@?$AAs?$AAe?$AA?9?$AAN?$AAO@ 0000000180045090     libcpmt:winapinls.obj
 0002:000040a0       ??_C@_1M@EIBJEEPA@?$AAm?$AAs?$AA?9?$AAM?$AAY@ 00000001800450a0     libcpmt:winapinls.obj
 0002:000040b0       ??_C@_1M@FHLBGMPP@?$AAk?$AAk?$AA?9?$AAK?$AAZ@ 00000001800450b0     libcpmt:winapinls.obj
 0002:000040c0       ??_C@_1M@NGJJLCGI@?$AAk?$AAy?$AA?9?$AAK?$AAG@ 00000001800450c0     libcpmt:winapinls.obj
 0002:000040d0       ??_C@_1M@GIENNBFC@?$AAs?$AAw?$AA?9?$AAK?$AAE@ 00000001800450d0     libcpmt:winapinls.obj
 0002:000040e0       ??_C@_1BG@NDGMJIMJ@?$AAu?$AAz?$AA?9?$AAU?$AAZ?$AA?9?$AAL?$AAa?$AAt?$AAn@ 00000001800450e0     libcpmt:winapinls.obj
 0002:000040f8       ??_C@_1M@IDCCIHBC@?$AAt?$AAt?$AA?9?$AAR?$AAU@ 00000001800450f8     libcpmt:winapinls.obj
 0002:00004108       ??_C@_1M@LOICPMOJ@?$AAb?$AAn?$AA?9?$AAI?$AAN@ 0000000180045108     libcpmt:winapinls.obj
 0002:00004118       ??_C@_1M@KPKKNEAH@?$AAp?$AAa?$AA?9?$AAI?$AAN@ 0000000180045118     libcpmt:winapinls.obj
 0002:00004128       ??_C@_1M@PJGPPBOG@?$AAg?$AAu?$AA?9?$AAI?$AAN@ 0000000180045128     libcpmt:winapinls.obj
 0002:00004138       ??_C@_1M@KMKMOPHI@?$AAt?$AAa?$AA?9?$AAI?$AAN@ 0000000180045138     libcpmt:winapinls.obj
 0002:00004148       ??_C@_1M@KFEHEPAC@?$AAt?$AAe?$AA?9?$AAI?$AAN@ 0000000180045148     libcpmt:winapinls.obj
 0002:00004158       ??_C@_1M@CDCLMGHI@?$AAk?$AAn?$AA?9?$AAI?$AAN@ 0000000180045158     libcpmt:winapinls.obj
 0002:00004168       ??_C@_1M@MIODLDKF@?$AAm?$AAl?$AA?9?$AAI?$AAN@ 0000000180045168     libcpmt:winapinls.obj
 0002:00004178       ??_C@_1M@PBIEACPO@?$AAm?$AAr?$AA?9?$AAI?$AAN@ 0000000180045178     libcpmt:winapinls.obj
 0002:00004188       ??_C@_1M@NIDEAGPH@?$AAs?$AAa?$AA?9?$AAI?$AAN@ 0000000180045188     libcpmt:winapinls.obj
 0002:00004198       ??_C@_1M@FHIHCBIO@?$AAm?$AAn?$AA?9?$AAM?$AAN@ 0000000180045198     libcpmt:winapinls.obj
 0002:000041a8       ??_C@_1M@JAIJPENP@?$AAc?$AAy?$AA?9?$AAG?$AAB@ 00000001800451a8     libcpmt:winapinls.obj
 0002:000041b8       ??_C@_1M@PHGFBEPN@?$AAg?$AAl?$AA?9?$AAE?$AAS@ 00000001800451b8     libcpmt:winapinls.obj
 0002:000041c8       ??_C@_1O@KPIPDNCP@?$AAk?$AAo?$AAk?$AA?9?$AAI?$AAN@ 00000001800451c8     libcpmt:winapinls.obj
 0002:000041d8       ??_C@_1O@KNHJLDJA@?$AAs?$AAy?$AAr?$AA?9?$AAS?$AAY@ 00000001800451d8     libcpmt:winapinls.obj
 0002:000041e8       ??_C@_1O@MKEKBLAH@?$AAd?$AAi?$AAv?$AA?9?$AAM?$AAV@ 00000001800451e8     libcpmt:winapinls.obj
 0002:000041f8       ??_C@_1O@OHDCKDDF@?$AAq?$AAu?$AAz?$AA?9?$AAB?$AAO@ 00000001800451f8     libcpmt:winapinls.obj
 0002:00004208       ??_C@_1M@LEPJNLFD@?$AAn?$AAs?$AA?9?$AAZ?$AAA@ 0000000180045208     libcpmt:winapinls.obj
 0002:00004218       ??_C@_1M@OMLEIIJB@?$AAm?$AAi?$AA?9?$AAN?$AAZ@ 0000000180045218     libcpmt:winapinls.obj
 0002:00004228       ??_C@_1M@PMPEAILG@?$AAa?$AAr?$AA?9?$AAI?$AAQ@ 0000000180045228     libcpmt:winapinls.obj
 0002:00004238       ??_C@_1M@BIBDDEMK@?$AAz?$AAh?$AA?9?$AAC?$AAN@ 0000000180045238     libcpmt:winapinls.obj
 0002:00004248       ??_C@_1M@CNKPNOEE@?$AAd?$AAe?$AA?9?$AAC?$AAH@ 0000000180045248     libcpmt:winapinls.obj
 0002:00004258       ??_C@_1M@LKMGMLKO@?$AAe?$AAn?$AA?9?$AAG?$AAB@ 0000000180045258     libcpmt:winapinls.obj
 0002:00004268       ??_C@_1M@PGKJFFGL@?$AAe?$AAs?$AA?9?$AAM?$AAX@ 0000000180045268     libcpmt:winapinls.obj
 0002:00004278       ??_C@_1M@DNNANBDC@?$AAf?$AAr?$AA?9?$AAB?$AAE@ 0000000180045278     libcpmt:winapinls.obj
 0002:00004288       ??_C@_1M@HLGMDFHM@?$AAi?$AAt?$AA?9?$AAC?$AAH@ 0000000180045288     libcpmt:winapinls.obj
 0002:00004298       ??_C@_1M@CLLBGJH@?$AAn?$AAl?$AA?9?$AAB?$AAE@ 0000000180045298     libcpmt:winapinls.obj
 0002:000042a8       ??_C@_1M@BODBOGLF@?$AAn?$AAn?$AA?9?$AAN?$AAO@ 00000001800452a8     libcpmt:winapinls.obj
 0002:000042b8       ??_C@_1M@HFFAHKAD@?$AAp?$AAt?$AA?9?$AAP?$AAT@ 00000001800452b8     libcpmt:winapinls.obj
 0002:000042c8       ??_C@_1BG@LNOAKHIE@?$AAs?$AAr?$AA?9?$AAS?$AAP?$AA?9?$AAL?$AAa?$AAt?$AAn@ 00000001800452c8     libcpmt:winapinls.obj
 0002:000042e0       ??_C@_1M@HBMHBGAK@?$AAs?$AAv?$AA?9?$AAF?$AAI@ 00000001800452e0     libcpmt:winapinls.obj
 0002:000042f0       ??_C@_1BG@DGCJGJBE@?$AAa?$AAz?$AA?9?$AAA?$AAZ?$AA?9?$AAC?$AAy?$AAr?$AAl@ 00000001800452f0     libcpmt:winapinls.obj
 0002:00004308       ??_C@_1M@KEJDAAHB@?$AAs?$AAe?$AA?9?$AAS?$AAE@ 0000000180045308     libcpmt:winapinls.obj
 0002:00004318       ??_C@_1M@HEIBJJAD@?$AAm?$AAs?$AA?9?$AAB?$AAN@ 0000000180045318     libcpmt:winapinls.obj
 0002:00004328       ??_C@_1BG@PBGJMCEM@?$AAu?$AAz?$AA?9?$AAU?$AAZ?$AA?9?$AAC?$AAy?$AAr?$AAl@ 0000000180045328     libcpmt:winapinls.obj
 0002:00004340       ??_C@_1O@LAOBCMDF@?$AAq?$AAu?$AAz?$AA?9?$AAE?$AAC@ 0000000180045340     libcpmt:winapinls.obj
 0002:00004350       ??_C@_1M@POEEMAIO@?$AAa?$AAr?$AA?9?$AAE?$AAG@ 0000000180045350     libcpmt:winapinls.obj
 0002:00004360       ??_C@_1M@EFAKDEDL@?$AAz?$AAh?$AA?9?$AAH?$AAK@ 0000000180045360     libcpmt:winapinls.obj
 0002:00004370       ??_C@_1M@HKKIJHGI@?$AAd?$AAe?$AA?9?$AAA?$AAT@ 0000000180045370     libcpmt:winapinls.obj
 0002:00004380       ??_C@_1M@KBFBEHJF@?$AAe?$AAn?$AA?9?$AAA?$AAU@ 0000000180045380     libcpmt:winapinls.obj
 0002:00004390       ??_C@_1M@MNPLFAAH@?$AAe?$AAs?$AA?9?$AAE?$AAS@ 0000000180045390     libcpmt:winapinls.obj
 0002:000043a0       ??_C@_1M@HJOOJFMA@?$AAf?$AAr?$AA?9?$AAC?$AAA@ 00000001800453a0     libcpmt:winapinls.obj
 0002:000043b0       ??_C@_1BG@JPOFPNAB@?$AAs?$AAr?$AA?9?$AAS?$AAP?$AA?9?$AAC?$AAy?$AAr?$AAl@ 00000001800453b0     libcpmt:winapinls.obj
 0002:000043c8       ??_C@_1M@LNFOCMOB@?$AAs?$AAe?$AA?9?$AAF?$AAI@ 00000001800453c8     libcpmt:winapinls.obj
 0002:000043d8       ??_C@_1O@MGJBOAMB@?$AAq?$AAu?$AAz?$AA?9?$AAP?$AAE@ 00000001800453d8     libcpmt:winapinls.obj
 0002:000043e8       ??_C@_1M@GJINLBOK@?$AAa?$AAr?$AA?9?$AAL?$AAY@ 00000001800453e8     libcpmt:winapinls.obj
 0002:000043f8       ??_C@_1M@GGMNHJNL@?$AAz?$AAh?$AA?9?$AAS?$AAG@ 00000001800453f8     libcpmt:winapinls.obj
 0002:00004408       ??_C@_1M@HOIKODND@?$AAd?$AAe?$AA?9?$AAL?$AAU@ 0000000180045408     libcpmt:winapinls.obj
 0002:00004418       ??_C@_1M@DDOCCGFG@?$AAe?$AAn?$AA?9?$AAC?$AAA@ 0000000180045418     libcpmt:winapinls.obj
 0002:00004428       ??_C@_1M@BNOEMJLF@?$AAe?$AAs?$AA?9?$AAG?$AAT@ 0000000180045428     libcpmt:winapinls.obj
 0002:00004438       ??_C@_1M@EOGNKEK@?$AAf?$AAr?$AA?9?$AAC?$AAH@ 0000000180045438     libcpmt:winapinls.obj
 0002:00004448       ??_C@_1M@FLIDJFHL@?$AAh?$AAr?$AA?9?$AAB?$AAA@ 0000000180045448     libcpmt:winapinls.obj
 0002:00004458       ??_C@_1O@FMCELNAJ@?$AAs?$AAm?$AAj?$AA?9?$AAN?$AAO@ 0000000180045458     libcpmt:winapinls.obj
 0002:00004468       ??_C@_1M@JHGLJMGJ@?$AAa?$AAr?$AA?9?$AAD?$AAZ@ 0000000180045468     libcpmt:winapinls.obj
 0002:00004478       ??_C@_1M@JKKFDCNP@?$AAz?$AAh?$AA?9?$AAM?$AAO@ 0000000180045478     libcpmt:winapinls.obj
 0002:00004488       ??_C@_1M@GEEFALPE@?$AAd?$AAe?$AA?9?$AAL?$AAI@ 0000000180045488     libcpmt:winapinls.obj
 0002:00004498       ??_C@_1M@IGEOFBG@?$AAe?$AAn?$AA?9?$AAN?$AAZ@ 0000000180045498     libcpmt:winapinls.obj
 0002:000044a8       ??_C@_1M@KDBONEHP@?$AAe?$AAs?$AA?9?$AAC?$AAR@ 00000001800454a8     libcpmt:winapinls.obj
 0002:000044b8       ??_C@_1M@FHMDOHNN@?$AAf?$AAr?$AA?9?$AAL?$AAU@ 00000001800454b8     libcpmt:winapinls.obj
 0002:000044c8       ??_C@_1BG@NFKKMAFG@?$AAb?$AAs?$AA?9?$AAB?$AAA?$AA?9?$AAL?$AAa?$AAt?$AAn@ 00000001800454c8     libcpmt:winapinls.obj
 0002:000044e0       ??_C@_1O@IMNBEMCI@?$AAs?$AAm?$AAj?$AA?9?$AAS?$AAE@ 00000001800454e0     libcpmt:winapinls.obj
 0002:000044f0       ??_C@_1M@DHHMBNDP@?$AAa?$AAr?$AA?9?$AAM?$AAA@ 00000001800454f0     libcpmt:winapinls.obj
 0002:00004500       ??_C@_1M@BNBLJCGH@?$AAe?$AAn?$AA?9?$AAI?$AAE@ 0000000180045500     libcpmt:winapinls.obj
 0002:00004510       ??_C@_1M@GEPAFMDL@?$AAe?$AAs?$AA?9?$AAP?$AAA@ 0000000180045510     libcpmt:winapinls.obj
 0002:00004520       ??_C@_1M@OJONDMDL@?$AAf?$AAr?$AA?9?$AAM?$AAC@ 0000000180045520     libcpmt:winapinls.obj
 0002:00004530       ??_C@_1BG@OBCNFJB@?$AAs?$AAr?$AA?9?$AAB?$AAA?$AA?9?$AAL?$AAa?$AAt?$AAn@ 0000000180045530     libcpmt:winapinls.obj
 0002:00004548       ??_C@_1O@KEMEEGPO@?$AAs?$AAm?$AAa?$AA?9?$AAN?$AAO@ 0000000180045548     libcpmt:winapinls.obj
 0002:00004558       ??_C@_1M@ELMGFODK@?$AAa?$AAr?$AA?9?$AAT?$AAN@ 0000000180045558     libcpmt:winapinls.obj
 0002:00004568       ??_C@_1M@BHDLHFAF@?$AAe?$AAn?$AA?9?$AAZ?$AAA@ 0000000180045568     libcpmt:winapinls.obj
 0002:00004578       ??_C@_1M@BMGIGLIF@?$AAe?$AAs?$AA?9?$AAD?$AAO@ 0000000180045578     libcpmt:winapinls.obj
 0002:00004588       ??_C@_1BG@CMBHIPBE@?$AAs?$AAr?$AA?9?$AAB?$AAA?$AA?9?$AAC?$AAy?$AAr?$AAl@ 0000000180045588     libcpmt:winapinls.obj
 0002:000045a0       ??_C@_1O@HEDBLHNP@?$AAs?$AAm?$AAa?$AA?9?$AAS?$AAE@ 00000001800455a0     libcpmt:winapinls.obj
 0002:000045b0       ??_C@_1M@DAGCADIM@?$AAa?$AAr?$AA?9?$AAO?$AAM@ 00000001800455b0     libcpmt:winapinls.obj
 0002:000045c0       ??_C@_1M@FODLMICG@?$AAe?$AAn?$AA?9?$AAJ?$AAM@ 00000001800455c0     libcpmt:winapinls.obj
 0002:000045d0       ??_C@_1M@DNMLCIHB@?$AAe?$AAs?$AA?9?$AAV?$AAE@ 00000001800455d0     libcpmt:winapinls.obj
 0002:000045e0       ??_C@_1O@EOKHMKJK@?$AAs?$AAm?$AAs?$AA?9?$AAF?$AAI@ 00000001800455e0     libcpmt:winapinls.obj
 0002:000045f0       ??_C@_1M@CAFJMKOF@?$AAa?$AAr?$AA?9?$AAY?$AAE@ 00000001800455f0     libcpmt:winapinls.obj
 0002:00004600       ??_C@_1M@CBFHIJLI@?$AAe?$AAn?$AA?9?$AAC?$AAB@ 0000000180045600     libcpmt:winapinls.obj
 0002:00004610       ??_C@_1M@BGNFLDN@?$AAe?$AAs?$AA?9?$AAC?$AAO@ 0000000180045610     libcpmt:winapinls.obj
 0002:00004620       ??_C@_1O@JMPHMAMC@?$AAs?$AAm?$AAn?$AA?9?$AAF?$AAI@ 0000000180045620     libcpmt:winapinls.obj
 0002:00004630       ??_C@_1M@JLANABKE@?$AAa?$AAr?$AA?9?$AAS?$AAY@ 0000000180045630     libcpmt:winapinls.obj
 0002:00004640       ??_C@_1M@HPKGCFGN@?$AAe?$AAn?$AA?9?$AAB?$AAZ@ 0000000180045640     libcpmt:winapinls.obj
 0002:00004650       ??_C@_1M@OLJCMLGM@?$AAe?$AAs?$AA?9?$AAP?$AAE@ 0000000180045650     libcpmt:winapinls.obj
 0002:00004660       ??_C@_1M@MKKGFKLE@?$AAa?$AAr?$AA?9?$AAJ?$AAO@ 0000000180045660     libcpmt:winapinls.obj
 0002:00004670       ??_C@_1M@EKPGLDNI@?$AAe?$AAn?$AA?9?$AAT?$AAT@ 0000000180045670     libcpmt:winapinls.obj
 0002:00004680       ??_C@_1M@OONGHFHE@?$AAe?$AAs?$AA?9?$AAA?$AAR@ 0000000180045680     libcpmt:winapinls.obj
 0002:00004690       ??_C@_1M@OOJFGBHE@?$AAa?$AAr?$AA?9?$AAL?$AAB@ 0000000180045690     libcpmt:winapinls.obj
 0002:000046a0       ??_C@_1M@GCEJHNEG@?$AAe?$AAn?$AA?9?$AAZ?$AAW@ 00000001800456a0     libcpmt:winapinls.obj
 0002:000046b0       ??_C@_1M@JNOCAHJI@?$AAe?$AAs?$AA?9?$AAE?$AAC@ 00000001800456b0     libcpmt:winapinls.obj
 0002:000046c0       ??_C@_1M@JEFHPGGB@?$AAa?$AAr?$AA?9?$AAK?$AAW@ 00000001800456c0     libcpmt:winapinls.obj
 0002:000046d0       ??_C@_1M@MLKIBJOJ@?$AAe?$AAn?$AA?9?$AAP?$AAH@ 00000001800456d0     libcpmt:winapinls.obj
 0002:000046e0       ??_C@_1M@BDNIPEND@?$AAe?$AAs?$AA?9?$AAC?$AAL@ 00000001800456e0     libcpmt:winapinls.obj
 0002:000046f0       ??_C@_1M@MPNMEKBD@?$AAa?$AAr?$AA?9?$AAA?$AAE@ 00000001800456f0     libcpmt:winapinls.obj
 0002:00004700       ??_C@_1M@KBJALCPI@?$AAe?$AAs?$AA?9?$AAU?$AAY@ 0000000180045700     libcpmt:winapinls.obj
 0002:00004710       ??_C@_1M@LLCCOAGA@?$AAa?$AAr?$AA?9?$AAB?$AAH@ 0000000180045710     libcpmt:winapinls.obj
 0002:00004720       ??_C@_1M@PBFNCDEL@?$AAe?$AAs?$AA?9?$AAP?$AAY@ 0000000180045720     libcpmt:winapinls.obj
 0002:00004730       ??_C@_1M@EDGINPNP@?$AAa?$AAr?$AA?9?$AAQ?$AAA@ 0000000180045730     libcpmt:winapinls.obj
 0002:00004740       ??_C@_1M@MKDBIIJI@?$AAe?$AAs?$AA?9?$AAB?$AAO@ 0000000180045740     libcpmt:winapinls.obj
 0002:00004750       ??_C@_1M@CPKKEBLD@?$AAe?$AAs?$AA?9?$AAS?$AAV@ 0000000180045750     libcpmt:winapinls.obj
 0002:00004760       ??_C@_1M@NDBGMMJL@?$AAe?$AAs?$AA?9?$AAH?$AAN@ 0000000180045760     libcpmt:winapinls.obj
 0002:00004770       ??_C@_1M@JIJIBHDP@?$AAe?$AAs?$AA?9?$AAN?$AAI@ 0000000180045770     libcpmt:winapinls.obj
 0002:00004780       ??_C@_1M@CGFMKEEK@?$AAe?$AAs?$AA?9?$AAP?$AAR@ 0000000180045780     libcpmt:winapinls.obj
 0002:00004790       ??_C@_1O@ICJHKIIK@?$AAz?$AAh?$AA?9?$AAC?$AAH?$AAT@ 0000000180045790     libcpmt:winapinls.obj
 0002:000047a0       ??_C@_15CLNEJCE@?$AAs?$AAr@ 00000001800457a0     libcpmt:winapinls.obj
 0002:000047a8       ??_C@_1M@KAHEKEIG@?$AAa?$AAf?$AA?9?$AAz?$AAa@ 00000001800457a8     libcpmt:winapinls.obj
 0002:000047b8       ??_C@_1M@GIECOABL@?$AAa?$AAr?$AA?9?$AAa?$AAe@ 00000001800457b8     libcpmt:winapinls.obj
 0002:000047c8       ??_C@_1M@BMLMEKGI@?$AAa?$AAr?$AA?9?$AAb?$AAh@ 00000001800457c8     libcpmt:winapinls.obj
 0002:000047d8       ??_C@_1M@DAPFDGGB@?$AAa?$AAr?$AA?9?$AAd?$AAz@ 00000001800457d8     libcpmt:winapinls.obj
 0002:000047e8       ??_C@_1M@FJNKGKIG@?$AAa?$AAr?$AA?9?$AAe?$AAg@ 00000001800457e8     libcpmt:winapinls.obj
 0002:000047f8       ??_C@_1M@FLGKKCLO@?$AAa?$AAr?$AA?9?$AAi?$AAq@ 00000001800457f8     libcpmt:winapinls.obj
 0002:00004808       ??_C@_1M@GNDIPALM@?$AAa?$AAr?$AA?9?$AAj?$AAo@ 0000000180045808     libcpmt:winapinls.obj
 0002:00004818       ??_C@_1M@DDMJFMGJ@?$AAa?$AAr?$AA?9?$AAk?$AAw@ 0000000180045818     libcpmt:winapinls.obj
 0002:00004828       ??_C@_1M@EJALMLHM@?$AAa?$AAr?$AA?9?$AAl?$AAb@ 0000000180045828     libcpmt:winapinls.obj
 0002:00004838       ??_C@_1M@MOBDBLOC@?$AAa?$AAr?$AA?9?$AAl?$AAy@ 0000000180045838     libcpmt:winapinls.obj
 0002:00004848       ??_C@_1M@JAOCLHDH@?$AAa?$AAr?$AA?9?$AAm?$AAa@ 0000000180045848     libcpmt:winapinls.obj
 0002:00004858       ??_C@_1M@JHPMKJIE@?$AAa?$AAr?$AA?9?$AAo?$AAm@ 0000000180045858     libcpmt:winapinls.obj
 0002:00004868       ??_C@_1M@OEPGHFNH@?$AAa?$AAr?$AA?9?$AAq?$AAa@ 0000000180045868     libcpmt:winapinls.obj
 0002:00004878       ??_C@_1M@KJDONENM@?$AAa?$AAr?$AA?9?$AAs?$AAa@ 0000000180045878     libcpmt:winapinls.obj
 0002:00004888       ??_C@_1M@DMJDKLKM@?$AAa?$AAr?$AA?9?$AAs?$AAy@ 0000000180045888     libcpmt:winapinls.obj
 0002:00004898       ??_C@_1M@OMFIPEDC@?$AAa?$AAr?$AA?9?$AAt?$AAn@ 0000000180045898     libcpmt:winapinls.obj
 0002:000048a8       ??_C@_1M@IHMHGAON@?$AAa?$AAr?$AA?9?$AAy?$AAe@ 00000001800458a8     libcpmt:winapinls.obj
 0002:000048b8       ??_C@_1BG@KDCPGJGB@?$AAa?$AAz?$AA?9?$AAa?$AAz?$AA?9?$AAc?$AAy?$AAr?$AAl@ 00000001800458b8     libcpmt:winapinls.obj
 0002:000048d0       ??_C@_1BG@IBCKDDOE@?$AAa?$AAz?$AA?9?$AAa?$AAz?$AA?9?$AAl?$AAa?$AAt?$AAn@ 00000001800458d0     libcpmt:winapinls.obj
 0002:000048e8       ??_C@_1M@EGPFDCPD@?$AAb?$AAe?$AA?9?$AAb?$AAy@ 00000001800458e8     libcpmt:winapinls.obj
 0002:000048f8       ??_C@_1M@PCMGMCGC@?$AAb?$AAg?$AA?9?$AAb?$AAg@ 00000001800458f8     libcpmt:winapinls.obj
 0002:00004908       ??_C@_1M@BJBMFGOB@?$AAb?$AAn?$AA?9?$AAi?$AAn@ 0000000180045908     libcpmt:winapinls.obj
 0002:00004918       ??_C@_1BG@EAKMMACD@?$AAb?$AAs?$AA?9?$AAb?$AAa?$AA?9?$AAl?$AAa?$AAt?$AAn@ 0000000180045918     libcpmt:winapinls.obj
 0002:00004930       ??_C@_1M@KGADAODK@?$AAc?$AAa?$AA?9?$AAe?$AAs@ 0000000180045930     libcpmt:winapinls.obj
 0002:00004940       ??_C@_1M@COAJPDHI@?$AAc?$AAs?$AA?9?$AAc?$AAz@ 0000000180045940     libcpmt:winapinls.obj
 0002:00004950       ??_C@_1M@DHBHFONH@?$AAc?$AAy?$AA?9?$AAg?$AAb@ 0000000180045950     libcpmt:winapinls.obj
 0002:00004960       ??_C@_1M@IMGKELGA@?$AAd?$AAa?$AA?9?$AAd?$AAk@ 0000000180045960     libcpmt:winapinls.obj
 0002:00004970       ??_C@_1M@NNDGDNGA@?$AAd?$AAe?$AA?9?$AAa?$AAt@ 0000000180045970     libcpmt:winapinls.obj
 0002:00004980       ??_C@_1M@IKDBHEEM@?$AAd?$AAe?$AA?9?$AAc?$AAh@ 0000000180045980     libcpmt:winapinls.obj
 0002:00004990       ??_C@_1M@GFFOJMCJ@?$AAd?$AAe?$AA?9?$AAd?$AAe@ 0000000180045990     libcpmt:winapinls.obj
 0002:000049a0       ??_C@_1M@MDNLKBPM@?$AAd?$AAe?$AA?9?$AAl?$AAi@ 00000001800459a0     libcpmt:winapinls.obj
 0002:000049b0       ??_C@_1M@NJBEEJNL@?$AAd?$AAe?$AA?9?$AAl?$AAu@ 00000001800459b0     libcpmt:winapinls.obj
 0002:000049c0       ??_C@_1O@GNNELBAP@?$AAd?$AAi?$AAv?$AA?9?$AAm?$AAv@ 00000001800459c0     libcpmt:winapinls.obj
 0002:000049d0       ??_C@_1M@EJLEOGAE@?$AAe?$AAl?$AA?9?$AAg?$AAr@ 00000001800459d0     libcpmt:winapinls.obj
 0002:000049e0       ??_C@_1M@GMPONJN@?$AAe?$AAn?$AA?9?$AAa?$AAu@ 00000001800459e0     libcpmt:winapinls.obj
 0002:000049f0       ??_C@_1M@NIDIIPGF@?$AAe?$AAn?$AA?9?$AAb?$AAz@ 00000001800459f0     libcpmt:winapinls.obj
 0002:00004a00       ??_C@_1M@JEHMIMFO@?$AAe?$AAn?$AA?9?$AAc?$AAa@ 0000000180045a00     libcpmt:winapinls.obj
 0002:00004a10       ??_C@_1M@IGMJCDLA@?$AAe?$AAn?$AA?9?$AAc?$AAb@ 0000000180045a10     libcpmt:winapinls.obj
 0002:00004a20       ??_C@_1M@BNFIGBKG@?$AAe?$AAn?$AA?9?$AAg?$AAb@ 0000000180045a20     libcpmt:winapinls.obj
 0002:00004a30       ??_C@_1M@LKIFDIGP@?$AAe?$AAn?$AA?9?$AAi?$AAe@ 0000000180045a30     libcpmt:winapinls.obj
 0002:00004a40       ??_C@_1M@PJKFGCCO@?$AAe?$AAn?$AA?9?$AAj?$AAm@ 0000000180045a40     libcpmt:winapinls.obj
 0002:00004a50       ??_C@_1M@KPPKEPBO@?$AAe?$AAn?$AA?9?$AAn?$AAz@ 0000000180045a50     libcpmt:winapinls.obj
 0002:00004a60       ??_C@_1M@GMDGLDOB@?$AAe?$AAn?$AA?9?$AAp?$AAh@ 0000000180045a60     libcpmt:winapinls.obj
 0002:00004a70       ??_C@_1M@ONGIBJNA@?$AAe?$AAn?$AA?9?$AAt?$AAt@ 0000000180045a70     libcpmt:winapinls.obj
 0002:00004a80       ??_C@_1M@LLODPCMM@?$AAe?$AAn?$AA?9?$AAu?$AAs@ 0000000180045a80     libcpmt:winapinls.obj
 0002:00004a90       ??_C@_1M@LAKFNPAN@?$AAe?$AAn?$AA?9?$AAz?$AAa@ 0000000180045a90     libcpmt:winapinls.obj
 0002:00004aa0       ??_C@_1M@MFNHNHEO@?$AAe?$AAn?$AA?9?$AAz?$AAw@ 0000000180045aa0     libcpmt:winapinls.obj
 0002:00004ab0       ??_C@_1M@EJEINPHM@?$AAe?$AAs?$AA?9?$AAa?$AAr@ 0000000180045ab0     libcpmt:winapinls.obj
 0002:00004ac0       ??_C@_1M@GNKPCCJA@?$AAe?$AAs?$AA?9?$AAb?$AAo@ 0000000180045ac0     libcpmt:winapinls.obj
 0002:00004ad0       ??_C@_1M@LEEGFONL@?$AAe?$AAs?$AA?9?$AAc?$AAl@ 0000000180045ad0     libcpmt:winapinls.obj
 0002:00004ae0       ??_C@_1M@KGPDPBDF@?$AAe?$AAs?$AA?9?$AAc?$AAo@ 0000000180045ae0     libcpmt:winapinls.obj
 0002:00004af0       ??_C@_1M@EIAHOHH@?$AAe?$AAs?$AA?9?$AAc?$AAr@ 0000000180045af0     libcpmt:winapinls.obj
 0002:00004b00       ??_C@_1M@LLPGMBIN@?$AAe?$AAs?$AA?9?$AAd?$AAo@ 0000000180045b00     libcpmt:winapinls.obj
 0002:00004b10       ??_C@_1M@DKHMKNJA@?$AAe?$AAs?$AA?9?$AAe?$AAc@ 0000000180045b10     libcpmt:winapinls.obj
 0002:00004b20       ??_C@_1M@GKGFPKAP@?$AAe?$AAs?$AA?9?$AAe?$AAs@ 0000000180045b20     libcpmt:winapinls.obj
 0002:00004b30       ??_C@_1M@LKHKGDLN@?$AAe?$AAs?$AA?9?$AAg?$AAt@ 0000000180045b30     libcpmt:winapinls.obj
 0002:00004b40       ??_C@_1M@HEIIGGJD@?$AAe?$AAs?$AA?9?$AAh?$AAn@ 0000000180045b40     libcpmt:winapinls.obj
 0002:00004b50       ??_C@_1M@FBDHPPGD@?$AAe?$AAs?$AA?9?$AAm?$AAx@ 0000000180045b50     libcpmt:winapinls.obj
 0002:00004b60       ??_C@_1M@DPAGLNDH@?$AAe?$AAs?$AA?9?$AAn?$AAi@ 0000000180045b60     libcpmt:winapinls.obj
 0002:00004b70       ??_C@_1M@MDGOPGDD@?$AAe?$AAs?$AA?9?$AAp?$AAa@ 0000000180045b70     libcpmt:winapinls.obj
 0002:00004b80       ??_C@_1M@EMAMGBGE@?$AAe?$AAs?$AA?9?$AAp?$AAe@ 0000000180045b80     libcpmt:winapinls.obj
 0002:00004b90       ??_C@_1M@IBMCAOEC@?$AAe?$AAs?$AA?9?$AAp?$AAr@ 0000000180045b90     libcpmt:winapinls.obj
 0002:00004ba0       ??_C@_1M@FGMDIJED@?$AAe?$AAs?$AA?9?$AAp?$AAy@ 0000000180045ba0     libcpmt:winapinls.obj
 0002:00004bb0       ??_C@_1M@IIDEOLLL@?$AAe?$AAs?$AA?9?$AAs?$AAv@ 0000000180045bb0     libcpmt:winapinls.obj
 0002:00004bc0       ??_C@_1M@GAOBIPA@?$AAe?$AAs?$AA?9?$AAu?$AAy@ 0000000180045bc0     libcpmt:winapinls.obj
 0002:00004bd0       ??_C@_1M@JKFFICHJ@?$AAe?$AAs?$AA?9?$AAv?$AAe@ 0000000180045bd0     libcpmt:winapinls.obj
 0002:00004be0       ??_C@_1M@PNMLOJDF@?$AAe?$AAt?$AA?9?$AAe?$AAe@ 0000000180045be0     libcpmt:winapinls.obj
 0002:00004bf0       ??_C@_1M@GHHLIKEI@?$AAe?$AAu?$AA?9?$AAe?$AAs@ 0000000180045bf0     libcpmt:winapinls.obj
 0002:00004c00       ??_C@_1M@PBNONODE@?$AAf?$AAa?$AA?9?$AAi?$AAr@ 0000000180045c00     libcpmt:winapinls.obj
 0002:00004c10       ??_C@_1M@JEEHPMIL@?$AAf?$AAi?$AA?9?$AAf?$AAi@ 0000000180045c10     libcpmt:winapinls.obj
 0002:00004c20       ??_C@_1M@LMDCNDBA@?$AAf?$AAo?$AA?9?$AAf?$AAo@ 0000000180045c20     libcpmt:winapinls.obj
 0002:00004c30       ??_C@_1M@JKEOHLDK@?$AAf?$AAr?$AA?9?$AAb?$AAe@ 0000000180045c30     libcpmt:winapinls.obj
 0002:00004c40       ??_C@_1M@NOHADPMI@?$AAf?$AAr?$AA?9?$AAc?$AAa@ 0000000180045c40     libcpmt:winapinls.obj
 0002:00004c50       ??_C@_1M@KDHIHAEC@?$AAf?$AAr?$AA?9?$AAc?$AAh@ 0000000180045c50     libcpmt:winapinls.obj
 0002:00004c60       ??_C@_1M@MMBBFGAK@?$AAf?$AAr?$AA?9?$AAf?$AAr@ 0000000180045c60     libcpmt:winapinls.obj
 0002:00004c70       ??_C@_1M@PAFNENNF@?$AAf?$AAr?$AA?9?$AAl?$AAu@ 0000000180045c70     libcpmt:winapinls.obj
 0002:00004c80       ??_C@_1M@EOHDJGDD@?$AAf?$AAr?$AA?9?$AAm?$AAc@ 0000000180045c80     libcpmt:winapinls.obj
 0002:00004c90       ??_C@_1M@FAPLLOPF@?$AAg?$AAl?$AA?9?$AAe?$AAs@ 0000000180045c90     libcpmt:winapinls.obj
 0002:00004ca0       ??_C@_1M@FOPBFLOO@?$AAg?$AAu?$AA?9?$AAi?$AAn@ 0000000180045ca0     libcpmt:winapinls.obj
 0002:00004cb0       ??_C@_1M@KBMCINPM@?$AAh?$AAe?$AA?9?$AAi?$AAl@ 0000000180045cb0     libcpmt:winapinls.obj
 0002:00004cc0       ??_C@_1M@BBPHKFPJ@?$AAh?$AAi?$AA?9?$AAi?$AAn@ 0000000180045cc0     libcpmt:winapinls.obj
 0002:00004cd0       ??_C@_1M@PMBNDPHD@?$AAh?$AAr?$AA?9?$AAb?$AAa@ 0000000180045cd0     libcpmt:winapinls.obj
 0002:00004ce0       ??_C@_1M@BPCKOEGE@?$AAh?$AAr?$AA?9?$AAh?$AAr@ 0000000180045ce0     libcpmt:winapinls.obj
 0002:00004cf0       ??_C@_1M@GACBMHKE@?$AAh?$AAu?$AA?9?$AAh?$AAu@ 0000000180045cf0     libcpmt:winapinls.obj
 0002:00004d00       ??_C@_1M@MILPAJJC@?$AAh?$AAy?$AA?9?$AAa?$AAm@ 0000000180045d00     libcpmt:winapinls.obj
 0002:00004d10       ??_C@_1M@BABBICEC@?$AAi?$AAd?$AA?9?$AAi?$AAd@ 0000000180045d10     libcpmt:winapinls.obj
 0002:00004d20       ??_C@_1M@BIKNHHPF@?$AAi?$AAs?$AA?9?$AAi?$AAs@ 0000000180045d20     libcpmt:winapinls.obj
 0002:00004d30       ??_C@_1M@NMPCJPHE@?$AAi?$AAt?$AA?9?$AAc?$AAh@ 0000000180045d30     libcpmt:winapinls.obj
 0002:00004d40       ??_C@_1M@GHKGFEDF@?$AAi?$AAt?$AA?9?$AAi?$AAt@ 0000000180045d40     libcpmt:winapinls.obj
 0002:00004d50       ??_C@_1M@NIEJCJJA@?$AAj?$AAa?$AA?9?$AAj?$AAp@ 0000000180045d50     libcpmt:winapinls.obj
 0002:00004d60       ??_C@_1M@JILFNBIM@?$AAk?$AAa?$AA?9?$AAg?$AAe@ 0000000180045d60     libcpmt:winapinls.obj
 0002:00004d70       ??_C@_1M@PACPMGPH@?$AAk?$AAk?$AA?9?$AAk?$AAz@ 0000000180045d70     libcpmt:winapinls.obj
 0002:00004d80       ??_C@_1M@IELFGMHA@?$AAk?$AAn?$AA?9?$AAi?$AAn@ 0000000180045d80     libcpmt:winapinls.obj
 0002:00004d90       ??_C@_1M@DMHAEOGC@?$AAk?$AAo?$AA?9?$AAk?$AAr@ 0000000180045d90     libcpmt:winapinls.obj
 0002:00004da0       ??_C@_1O@IBBJHCH@?$AAk?$AAo?$AAk?$AA?9?$AAi?$AAn@ 0000000180045da0     libcpmt:winapinls.obj
 0002:00004db0       ??_C@_1M@HBAHBIGA@?$AAk?$AAy?$AA?9?$AAk?$AAg@ 0000000180045db0     libcpmt:winapinls.obj
 0002:00004dc0       ??_C@_1M@KPMILCJG@?$AAl?$AAt?$AA?9?$AAl?$AAt@ 0000000180045dc0     libcpmt:winapinls.obj
 0002:00004dd0       ??_C@_1M@BDEKKCA@?$AAl?$AAv?$AA?9?$AAl?$AAv@ 0000000180045dd0     libcpmt:winapinls.obj
 0002:00004de0       ??_C@_1M@ELCKCCJJ@?$AAm?$AAi?$AA?9?$AAn?$AAz@ 0000000180045de0     libcpmt:winapinls.obj
 0002:00004df0       ??_C@_1M@CBOOLAPA@?$AAm?$AAk?$AA?9?$AAm?$AAk@ 0000000180045df0     libcpmt:winapinls.obj
 0002:00004e00       ??_C@_1M@GPHNBJKN@?$AAm?$AAl?$AA?9?$AAi?$AAn@ 0000000180045e00     libcpmt:winapinls.obj
 0002:00004e10       ??_C@_1M@PABJILIG@?$AAm?$AAn?$AA?9?$AAm?$AAn@ 0000000180045e10     libcpmt:winapinls.obj
 0002:00004e20       ??_C@_1M@FGBKKIPG@?$AAm?$AAr?$AA?9?$AAi?$AAn@ 0000000180045e20     libcpmt:winapinls.obj
 0002:00004e30       ??_C@_1M@NDBPDDAL@?$AAm?$AAs?$AA?9?$AAb?$AAn@ 0000000180045e30     libcpmt:winapinls.obj
 0002:00004e40       ??_C@_1M@OPIHOOPI@?$AAm?$AAs?$AA?9?$AAm?$AAy@ 0000000180045e40     libcpmt:winapinls.obj
 0002:00004e50       ??_C@_1M@PPDBCNFM@?$AAm?$AAt?$AA?9?$AAm?$AAt@ 0000000180045e50     libcpmt:winapinls.obj
 0002:00004e60       ??_C@_1M@KDJDKMDD@?$AAn?$AAb?$AA?9?$AAn?$AAo@ 0000000180045e60     libcpmt:winapinls.obj
 0002:00004e70       ??_C@_1M@KFCFLMJP@?$AAn?$AAl?$AA?9?$AAb?$AAe@ 0000000180045e70     libcpmt:winapinls.obj
 0002:00004e80       ??_C@_1M@KPOPDDGO@?$AAn?$AAl?$AA?9?$AAn?$AAl@ 0000000180045e80     libcpmt:winapinls.obj
 0002:00004e90       ??_C@_1M@LJKPEMLN@?$AAn?$AAn?$AA?9?$AAn?$AAo@ 0000000180045e90     libcpmt:winapinls.obj
 0002:00004ea0       ??_C@_1M@BDGHHBFL@?$AAn?$AAs?$AA?9?$AAz?$AAa@ 0000000180045ea0     libcpmt:winapinls.obj
 0002:00004eb0       ??_C@_1M@IDEHOAP@?$AAp?$AAa?$AA?9?$AAi?$AAn@ 0000000180045eb0     libcpmt:winapinls.obj
 0002:00004ec0       ??_C@_1M@HDBKGOGH@?$AAp?$AAl?$AA?9?$AAp?$AAl@ 0000000180045ec0     libcpmt:winapinls.obj
 0002:00004ed0       ??_C@_1M@LJLLCMEH@?$AAp?$AAt?$AA?9?$AAb?$AAr@ 0000000180045ed0     libcpmt:winapinls.obj
 0002:00004ee0       ??_C@_1M@NCMONAAL@?$AAp?$AAt?$AA?9?$AAp?$AAt@ 0000000180045ee0     libcpmt:winapinls.obj
 0002:00004ef0       ??_C@_1O@EAKMAJDN@?$AAq?$AAu?$AAz?$AA?9?$AAb?$AAo@ 0000000180045ef0     libcpmt:winapinls.obj
 0002:00004f00       ??_C@_1O@BHHPIGDN@?$AAq?$AAu?$AAz?$AA?9?$AAe?$AAc@ 0000000180045f00     libcpmt:winapinls.obj
 0002:00004f10       ??_C@_1O@GBAPEKMJ@?$AAq?$AAu?$AAz?$AA?9?$AAp?$AAe@ 0000000180045f10     libcpmt:winapinls.obj
 0002:00004f20       ??_C@_1M@CLGLEFBO@?$AAr?$AAo?$AA?9?$AAr?$AAo@ 0000000180045f20     libcpmt:winapinls.obj
 0002:00004f30       ??_C@_1M@CEEDODME@?$AAr?$AAu?$AA?9?$AAr?$AAu@ 0000000180045f30     libcpmt:winapinls.obj
 0002:00004f40       ??_C@_1M@HPKKKMPP@?$AAs?$AAa?$AA?9?$AAi?$AAn@ 0000000180045f40     libcpmt:winapinls.obj
 0002:00004f50       ??_C@_1M@BKMAIGOJ@?$AAs?$AAe?$AA?9?$AAf?$AAi@ 0000000180045f50     libcpmt:winapinls.obj
 0002:00004f60       ??_C@_1M@NDPIFLFI@?$AAs?$AAe?$AA?9?$AAn?$AAo@ 0000000180045f60     libcpmt:winapinls.obj
 0002:00004f70       ??_C@_1M@DANKKHJ@?$AAs?$AAe?$AA?9?$AAs?$AAe@ 0000000180045f70     libcpmt:winapinls.obj
 0002:00004f80       ??_C@_1M@PNBLONPJ@?$AAs?$AAk?$AA?9?$AAs?$AAk@ 0000000180045f80     libcpmt:winapinls.obj
 0002:00004f90       ??_C@_1M@LFMODOAL@?$AAs?$AAl?$AA?9?$AAs?$AAi@ 0000000180045f90     libcpmt:winapinls.obj
 0002:00004fa0       ??_C@_1O@DFKOMPG@?$AAs?$AAm?$AAa?$AA?9?$AAn?$AAo@ 0000000180045fa0     libcpmt:winapinls.obj
 0002:00004fb0       ??_C@_1O@NDKPBNNH@?$AAs?$AAm?$AAa?$AA?9?$AAs?$AAe@ 0000000180045fb0     libcpmt:winapinls.obj
 0002:00004fc0       ??_C@_1O@PLLKBHAB@?$AAs?$AAm?$AAj?$AA?9?$AAn?$AAo@ 0000000180045fc0     libcpmt:winapinls.obj
 0002:00004fd0       ??_C@_1O@CLEPOGCA@?$AAs?$AAm?$AAj?$AA?9?$AAs?$AAe@ 0000000180045fd0     libcpmt:winapinls.obj
 0002:00004fe0       ??_C@_1O@DLGJGKMK@?$AAs?$AAm?$AAn?$AA?9?$AAf?$AAi@ 0000000180045fe0     libcpmt:winapinls.obj
 0002:00004ff0       ??_C@_1O@OJDJGAJC@?$AAs?$AAm?$AAs?$AA?9?$AAf?$AAi@ 0000000180045ff0     libcpmt:winapinls.obj
 0002:00005000       ??_C@_1M@BOFOGHPB@?$AAs?$AAq?$AA?9?$AAa?$AAl@ 0000000180046000     libcpmt:winapinls.obj
 0002:00005010       ??_C@_1BG@LJBBIPGB@?$AAs?$AAr?$AA?9?$AAb?$AAa?$AA?9?$AAc?$AAy?$AAr?$AAl@ 0000000180046010     libcpmt:winapinls.obj
 0002:00005028       ??_C@_1BG@JLBENFOE@?$AAs?$AAr?$AA?9?$AAb?$AAa?$AA?9?$AAl?$AAa?$AAt?$AAn@ 0000000180046028     libcpmt:winapinls.obj
 0002:00005040       ??_C@_1BG@KODPNHE@?$AAs?$AAr?$AA?9?$AAs?$AAp?$AA?9?$AAc?$AAy?$AAr?$AAl@ 0000000180046040     libcpmt:winapinls.obj
 0002:00005058       ??_C@_1BG@CIOGKHPB@?$AAs?$AAr?$AA?9?$AAs?$AAp?$AA?9?$AAl?$AAa?$AAt?$AAn@ 0000000180046058     libcpmt:winapinls.obj
 0002:00005070       ??_C@_1M@NGFJLMAC@?$AAs?$AAv?$AA?9?$AAf?$AAi@ 0000000180046070     libcpmt:winapinls.obj
 0002:00005080       ??_C@_1M@MPJEJAJC@?$AAs?$AAv?$AA?9?$AAs?$AAe@ 0000000180046080     libcpmt:winapinls.obj
 0002:00005090       ??_C@_1M@MPNDHLFK@?$AAs?$AAw?$AA?9?$AAk?$AAe@ 0000000180046090     libcpmt:winapinls.obj
 0002:000050a0       ??_C@_1O@KOHBJJI@?$AAs?$AAy?$AAr?$AA?9?$AAs?$AAy@ 00000001800460a0     libcpmt:winapinls.obj
 0002:000050b0       ??_C@_1M@LDCEFHA@?$AAt?$AAa?$AA?9?$AAi?$AAn@ 00000001800460b0     libcpmt:winapinls.obj
 0002:000050c0       ??_C@_1M@CNJOFAK@?$AAt?$AAe?$AA?9?$AAi?$AAn@ 00000001800460c0     libcpmt:winapinls.obj
 0002:000050d0       ??_C@_1M@GNAECACD@?$AAt?$AAh?$AA?9?$AAt?$AAh@ 00000001800460d0     libcpmt:winapinls.obj
 0002:000050e0       ??_C@_1M@CHBIHOJO@?$AAt?$AAn?$AA?9?$AAz?$AAa@ 00000001800460e0     libcpmt:winapinls.obj
 0002:000050f0       ??_C@_1M@GCCMIGPJ@?$AAt?$AAr?$AA?9?$AAt?$AAr@ 00000001800460f0     libcpmt:winapinls.obj
 0002:00005100       ??_C@_1M@CELMCNBK@?$AAt?$AAt?$AA?9?$AAr?$AAu@ 0000000180046100     libcpmt:winapinls.obj
 0002:00005110       ??_C@_1M@KLMCELGA@?$AAu?$AAk?$AA?9?$AAu?$AAa@ 0000000180046110     libcpmt:winapinls.obj
 0002:00005120       ??_C@_1M@EPAJJAJF@?$AAu?$AAr?$AA?9?$AAp?$AAk@ 0000000180046120     libcpmt:winapinls.obj
 0002:00005130       ??_C@_1BG@GEGPMCDJ@?$AAu?$AAz?$AA?9?$AAu?$AAz?$AA?9?$AAc?$AAy?$AAr?$AAl@ 0000000180046130     libcpmt:winapinls.obj
 0002:00005148       ??_C@_1BG@EGGKJILM@?$AAu?$AAz?$AA?9?$AAu?$AAz?$AA?9?$AAl?$AAa?$AAt?$AAn@ 0000000180046148     libcpmt:winapinls.obj
 0002:00005160       ??_C@_1M@GFOCLFF@?$AAv?$AAi?$AA?9?$AAv?$AAn@ 0000000180046160     libcpmt:winapinls.obj
 0002:00005170       ??_C@_1M@CPAMEDFI@?$AAx?$AAh?$AA?9?$AAz?$AAa@ 0000000180046170     libcpmt:winapinls.obj
 0002:00005180       ??_C@_1O@EBKIFIGN@?$AAz?$AAh?$AA?9?$AAc?$AAh?$AAs@ 0000000180046180     libcpmt:winapinls.obj
 0002:00005190       ??_C@_1O@NMHPGANE@?$AAz?$AAh?$AA?9?$AAc?$AAh?$AAt@ 0000000180046190     libcpmt:winapinls.obj
 0002:000051a0       ??_C@_1M@LPINJOMC@?$AAz?$AAh?$AA?9?$AAc?$AAn@ 00000001800461a0     libcpmt:winapinls.obj
 0002:000051b0       ??_C@_1M@OCJEJODD@?$AAz?$AAh?$AA?9?$AAh?$AAk@ 00000001800461b0     libcpmt:winapinls.obj
 0002:000051c0       ??_C@_1M@DNDLJINH@?$AAz?$AAh?$AA?9?$AAm?$AAo@ 00000001800461c0     libcpmt:winapinls.obj
 0002:000051d0       ??_C@_1M@MBFDNDND@?$AAz?$AAh?$AA?9?$AAs?$AAg@ 00000001800461d0     libcpmt:winapinls.obj
 0002:000051e0       ??_C@_1M@IMEPLEPE@?$AAz?$AAh?$AA?9?$AAt?$AAw@ 00000001800461e0     libcpmt:winapinls.obj
 0002:000051f0       ??_C@_1M@BBGHNHJP@?$AAz?$AAu?$AA?9?$AAz?$AAa@ 00000001800461f0     libcpmt:winapinls.obj
 0002:00005208       ??_7type_info@@6B@         0000000180046208     LIBCMT:std_type_info_static.obj
 0002:00005210       _pDefaultRawDllMain        0000000180046210     LIBCMT:dll_dllmain.obj
 0002:00005210       _pRawDllMain               0000000180046210     LIBCMT:dll_dllmain.obj
 0002:00005230       ??_7bad_array_new_length@std@@6B@ 0000000180046230     LIBCMT:throw_bad_alloc.obj
 0002:00005240       ??_C@_0BF@KINCDENJ@bad?5array?5new?5length@ 0000000180046240     LIBCMT:throw_bad_alloc.obj
 0002:000052f8       _pDestructExceptionObject  00000001800462f8     libvcruntime:ehhelpers.obj
 0002:00005348       ??_7bad_exception@std@@6B@ 0000000180046348     libvcruntime:frame.obj
 0002:00005358       ??_C@_0O@DPKOEFFH@bad?5exception@ 0000000180046358     libvcruntime:frame.obj
 0002:00005380       ??_C@_1DM@KHCHBNEB@?$AAa?$AAp?$AAi?$AA?9?$AAm?$AAs?$AA?9?$AAw?$AAi?$AAn?$AA?9?$AAc?$AAo?$AAr?$AAe@ 0000000180046380     libvcruntime:winapi_downlevel.obj
 0002:000053c0       ??_C@_1DK@LPPGFMPP@?$AAa?$AAp?$AAi?$AA?9?$AAm?$AAs?$AA?9?$AAw?$AAi?$AAn?$AA?9?$AAc?$AAo?$AAr?$AAe@ 00000001800463c0     libvcruntime:winapi_downlevel.obj
 0002:00005400       ??_C@_1BC@GDMECMAK@?$AAk?$AAe?$AAr?$AAn?$AAe?$AAl?$AA3?$AA2@ 0000000180046400     libvcruntime:winapi_downlevel.obj
 0002:00005418       ??_C@_1BA@PFFKHIOG@?$AAa?$AAp?$AAi?$AA?9?$AAm?$AAs?$AA?9@ 0000000180046418     libvcruntime:winapi_downlevel.obj
 0002:00005428       ??_C@_1BA@IAIFMGEF@?$AAe?$AAx?$AAt?$AA?9?$AAm?$AAs?$AA?9@ 0000000180046428     libvcruntime:winapi_downlevel.obj
 0002:00005798       ??_C@_08EHJDFFNH@__based?$CI@ 0000000180046798     libvcruntime:undname.obj
 0002:000057a8       ??_C@_07KOLFKCDI@__cdecl@  00000001800467a8     libvcruntime:undname.obj
 0002:000057b0       ??_C@_08GHMPAG@__pascal@   00000001800467b0     libvcruntime:undname.obj
 0002:000057c0       ??_C@_09IFJBGAPI@__stdcall@ 00000001800467c0     libvcruntime:undname.obj
 0002:000057d0       ??_C@_0L@NPHFGOKO@__thiscall@ 00000001800467d0     libvcruntime:undname.obj
 0002:000057e0       ??_C@_0L@JMKHOMEK@__fastcall@ 00000001800467e0     libvcruntime:undname.obj
 0002:000057f0       ??_C@_0N@BCKKPABJ@__vectorcall@ 00000001800467f0     libvcruntime:undname.obj
 0002:00005800       ??_C@_09HIJEGCPM@__clrcall@ 0000000180046800     libvcruntime:undname.obj
 0002:0000580c       ??_C@_06GHPCKEAG@__eabi@   000000018004680c     libvcruntime:undname.obj
 0002:00005818       ??_C@_09IOPIDJLG@__swift_1@ 0000000180046818     libvcruntime:undname.obj
 0002:00005828       ??_C@_09KFNFGKHF@__swift_2@ 0000000180046828     libvcruntime:undname.obj
 0002:00005838       ??_C@_07JOMMBBKO@__ptr64@  0000000180046838     libvcruntime:undname.obj
 0002:00005840       ??_C@_0L@PILCLIHE@__restrict@ 0000000180046840     libvcruntime:undname.obj
 0002:00005850       ??_C@_0M@GFIIJFMG@__unaligned@ 0000000180046850     libvcruntime:undname.obj
 0002:00005860       ??_C@_09DHDLOLLB@restrict?$CI@ 0000000180046860     libvcruntime:undname.obj
 0002:0000586c       ??_C@_04NIHEBCM@?5new@     000000018004686c     libvcruntime:undname.obj
 0002:00005878       ??_C@_07FPCDHGMM@?5delete@ 0000000180046878     libvcruntime:undname.obj
 0002:00005880       ??_C@_01NEMOKFLO@?$DN@     0000000180046880     libvcruntime:undname.obj
 0002:00005884       ??_C@_02GPIOPFAK@?$DO?$DO@ 0000000180046884     libvcruntime:undname.obj
 0002:00005888       ??_C@_02FODMEDOG@?$DM?$DM@ 0000000180046888     libvcruntime:undname.obj
 0002:0000588c       ??_C@_01DCLJPIOD@?$CB@     000000018004688c     libvcruntime:undname.obj
 0002:00005890       ??_C@_02EGOFBIJA@?$DN?$DN@ 0000000180046890     libvcruntime:undname.obj
 0002:00005894       ??_C@_02FDNJECIE@?$CB?$DN@ 0000000180046894     libvcruntime:undname.obj
 0002:00005898       ??_C@_02GPECMEKF@?$FL?$FN@ 0000000180046898     libvcruntime:undname.obj
 0002:000058a0       ??_C@_08LHJFAFGD@operator@ 00000001800468a0     libvcruntime:undname.obj
 0002:000058ac       ??_C@_02HBOOOICD@?9?$DO@   00000001800468ac     libvcruntime:undname.obj
 0002:000058b0       ??_C@_02ECNGHCIF@?$CL?$CL@ 00000001800468b0     libvcruntime:undname.obj
 0002:000058b4       ??_C@_02BAABKJLB@?9?9@     00000001800468b4     libvcruntime:undname.obj
 0002:000058b8       ??_C@_01MIFGBAGJ@?$CL@     00000001800468b8     libvcruntime:undname.obj
 0002:000058bc       ??_C@_01HNPIGOCE@?$CG@     00000001800468bc     libvcruntime:undname.obj
 0002:000058c0       ??_C@_03MNHNFDLC@?9?$DO?$CK@ 00000001800468c0     libvcruntime:undname.obj
 0002:000058c4       ??_C@_01KMDKNFGN@?1@       00000001800468c4     libvcruntime:undname.obj
 0002:000058c8       ??_C@_01FGNFDNOH@?$CF@     00000001800468c8     libvcruntime:undname.obj
 0002:000058cc       ??_C@_01MNNFJEPP@?$DM@     00000001800468cc     libvcruntime:undname.obj
 0002:000058d0       ??_C@_02EHCHHCKH@?$DM?$DN@ 00000001800468d0     libvcruntime:undname.obj
 0002:000058d4       ??_C@_01PPODPGHN@?$DO@     00000001800468d4     libvcruntime:undname.obj
 0002:000058d8       ??_C@_02EEKDKGMJ@?$DO?$DN@ 00000001800468d8     libvcruntime:undname.obj
 0002:000058dc       ??_C@_02HCKGKOFO@?$CI?$CJ@ 00000001800468dc     libvcruntime:undname.obj
 0002:000058e0       ??_C@_01PJKLJHI@?$HO@      00000001800468e0     libvcruntime:undname.obj
 0002:000058e4       ??_C@_01JKBOJNNK@?$FO@     00000001800468e4     libvcruntime:undname.obj
 0002:000058e8       ??_C@_01DNKMNLPK@?$HM@     00000001800468e8     libvcruntime:undname.obj
 0002:000058ec       ??_C@_02PPKAJPJL@?$CG?$CG@ 00000001800468ec     libvcruntime:undname.obj
 0002:000058f0       ??_C@_02NONPIBCD@?$HM?$HM@ 00000001800468f0     libvcruntime:undname.obj
 0002:000058f4       ??_C@_02FPIMKNGF@?$CK?$DN@ 00000001800468f4     libvcruntime:undname.obj
 0002:000058f8       ??_C@_02FOEOMHFC@?$CL?$DN@ 00000001800468f8     libvcruntime:undname.obj
 0002:000058fc       ??_C@_02FKMDLLOA@?9?$DN@   00000001800468fc     libvcruntime:undname.obj
 0002:00005900       ??_C@_02FJEHGPIO@?1?$DN@   0000000180046900     libvcruntime:undname.obj
 0002:00005904       ??_C@_02FENAOKFI@?$CF?$DN@ 0000000180046904     libvcruntime:undname.obj
 0002:00005908       ??_C@_03IKFCCPFF@?$DO?$DO?$DN@ 0000000180046908     libvcruntime:undname.obj
 0002:0000590c       ??_C@_03CDNPDDLA@?$DM?$DM?$DN@ 000000018004690c     libvcruntime:undname.obj
 0002:00005910       ??_C@_02FGJGFEAB@?$CG?$DN@ 0000000180046910     libvcruntime:undname.obj
 0002:00005914       ??_C@_02DHLNPPGH@?$HM?$DN@ 0000000180046914     libvcruntime:undname.obj
 0002:00005918       ??_C@_02MHEGNOJ@?$FO?$DN@  0000000180046918     libvcruntime:undname.obj
 0002:00005920       ??_C@_09IFPLHPGF@?$GAvftable?8@ 0000000180046920     libvcruntime:undname.obj
 0002:00005930       ??_C@_09BLBHBJP@?$GAvbtable?8@ 0000000180046930     libvcruntime:undname.obj
 0002:00005940       ??_C@_07FEEIOKP@?$GAvcall?8@ 0000000180046940     libvcruntime:undname.obj
 0002:00005948       ??_C@_08LLFFHHDJ@?$GAtypeof?8@ 0000000180046948     libvcruntime:undname.obj
 0002:00005958       ??_C@_0BF@KDPPACIK@?$GAlocal?5static?5guard?8@ 0000000180046958     libvcruntime:undname.obj
 0002:00005970       ??_C@_08OBABFOLI@?$GAstring?8@ 0000000180046970     libvcruntime:undname.obj
 0002:00005980       ??_C@_0BD@JDLKDPAB@?$GAvbase?5destructor?8@ 0000000180046980     libvcruntime:undname.obj
 0002:00005998       ??_C@_0BN@DEGPLNFK@?$GAvector?5deleting?5destructor?8@ 0000000180046998     libvcruntime:undname.obj
 0002:000059b8       ??_C@_0BO@OBMKPJIG@?$GAdefault?5constructor?5closure?8@ 00000001800469b8     libvcruntime:undname.obj
 0002:000059d8       ??_C@_0BN@IMDCHIKM@?$GAscalar?5deleting?5destructor?8@ 00000001800469d8     libvcruntime:undname.obj
 0002:000059f8       ??_C@_0BO@PFGOCPJJ@?$GAvector?5constructor?5iterator?8@ 00000001800469f8     libvcruntime:undname.obj
 0002:00005a18       ??_C@_0BN@LFPFMEDL@?$GAvector?5destructor?5iterator?8@ 0000000180046a18     libvcruntime:undname.obj
 0002:00005a38       ??_C@_0CE@IKBNEHA@?$GAvector?5vbase?5constructor?5itera@ 0000000180046a38     libvcruntime:undname.obj
 0002:00005a60       ??_C@_0BL@NILFHHPC@?$GAvirtual?5displacement?5map?8@ 0000000180046a60     libvcruntime:undname.obj
 0002:00005a80       ??_C@_0CB@JONCMFFK@?$GAeh?5vector?5constructor?5iterator@ 0000000180046a80     libvcruntime:undname.obj
 0002:00005aa8       ??_C@_0CA@GCEOPDGL@?$GAeh?5vector?5destructor?5iterator?8@ 0000000180046aa8     libvcruntime:undname.obj
 0002:00005ac8       ??_C@_0CH@OOJPLCPH@?$GAeh?5vector?5vbase?5constructor?5it@ 0000000180046ac8     libvcruntime:undname.obj
 0002:00005af0       ??_C@_0BL@LLKPOHJI@?$GAcopy?5constructor?5closure?8@ 0000000180046af0     libvcruntime:undname.obj
 0002:00005b10       ??_C@_0BA@KBCDOMBN@?$GAudt?5returning?8@ 0000000180046b10     libvcruntime:undname.obj
 0002:00005b20       ??_C@_03KLGMFNMG@?$GAEH@   0000000180046b20     libvcruntime:undname.obj
 0002:00005b24       ??_C@_05KHLCHHI@?$GARTTI@  0000000180046b24     libvcruntime:undname.obj
 0002:00005b30       ??_C@_0BA@KKLDJDLB@?$GAlocal?5vftable?8@ 0000000180046b30     libvcruntime:undname.obj
 0002:00005b40       ??_C@_0CE@IIHCMGGL@?$GAlocal?5vftable?5constructor?5clos@ 0000000180046b40     libvcruntime:undname.obj
 0002:00005b64       ??_C@_06FHBGPFGH@?5new?$FL?$FN@ 0000000180046b64     libvcruntime:undname.obj
 0002:00005b70       ??_C@_09LBNFPBCA@?5delete?$FL?$FN@ 0000000180046b70     libvcruntime:undname.obj
 0002:00005b80       ??_C@_0P@HJKNJFNN@?$GAomni?5callsig?8@ 0000000180046b80     libvcruntime:undname.obj
 0002:00005b90       ??_C@_0BL@CNOONJFP@?$GAplacement?5delete?5closure?8@ 0000000180046b90     libvcruntime:undname.obj
 0002:00005bb0       ??_C@_0BN@CKNJLHMB@?$GAplacement?5delete?$FL?$FN?5closure?8@ 0000000180046bb0     libvcruntime:undname.obj
 0002:00005bd0       ??_C@_0CG@CFDHKGGD@?$GAmanaged?5vector?5constructor?5ite@ 0000000180046bd0     libvcruntime:undname.obj
 0002:00005bf8       ??_C@_0CF@IMGKMJNO@?$GAmanaged?5vector?5destructor?5iter@ 0000000180046bf8     libvcruntime:undname.obj
 0002:00005c20       ??_C@_0CG@HLDDJMAG@?$GAeh?5vector?5copy?5constructor?5ite@ 0000000180046c20     libvcruntime:undname.obj
 0002:00005c48       ??_C@_0CM@FCBBDIGB@?$GAeh?5vector?5vbase?5copy?5construct@ 0000000180046c48     libvcruntime:undname.obj
 0002:00005c78       ??_C@_0BL@CLIPGLGB@?$GAdynamic?5initializer?5for?5?8@ 0000000180046c78     libvcruntime:undname.obj
 0002:00005c98       ??_C@_0CB@PDBIFEP@?$GAdynamic?5atexit?5destructor?5for?5@ 0000000180046c98     libvcruntime:undname.obj
 0002:00005cc0       ??_C@_0CD@CGAJBKEJ@?$GAvector?5copy?5constructor?5iterat@ 0000000180046cc0     libvcruntime:undname.obj
 0002:00005ce8       ??_C@_0CJ@GJELGAMM@?$GAvector?5vbase?5copy?5constructor?5@ 0000000180046ce8     libvcruntime:undname.obj
 0002:00005d18       ??_C@_0CL@FGIJHLCE@?$GAmanaged?5vector?5copy?5constructo@ 0000000180046d18     libvcruntime:undname.obj
 0002:00005d48       ??_C@_0BM@PMGGMLDN@?$GAlocal?5static?5thread?5guard?8@ 0000000180046d48     libvcruntime:undname.obj
 0002:00005d68       ??_C@_0N@BDNMDMOL@operator?5?$CC?$CC?5@ 0000000180046d68     libvcruntime:undname.obj
 0002:00005d78       ??_C@_0BC@GGEBGALA@operator?5co_await@ 0000000180046d78     libvcruntime:undname.obj
 0002:00005d90       ??_C@_0BC@DAFEJGAK@?5Type?5Descriptor?8@ 0000000180046d90     libvcruntime:undname.obj
 0002:00005da8       ??_C@_0BM@LDKODKLH@?5Base?5Class?5Descriptor?5at?5?$CI@ 0000000180046da8     libvcruntime:undname.obj
 0002:00005dc8       ??_C@_0BD@LGICGFMM@?5Base?5Class?5Array?8@ 0000000180046dc8     libvcruntime:undname.obj
 0002:00005de0       ??_C@_0BN@MECKDCOJ@?5Class?5Hierarchy?5Descriptor?8@ 0000000180046de0     libvcruntime:undname.obj
 0002:00005e00       ??_C@_0BK@CFCOFLF@?5Complete?5Object?5Locator?8@ 0000000180046e00     libvcruntime:undname.obj
 0002:00005e20       ??_C@_1FE@LHBLIKM@?$AAA?$AAs?$AAs?$AAe?$AAr?$AAt?$AAi?$AAo?$AAn?$AA?5?$AAf?$AAa?$AAi?$AAl?$AAe?$AAd?$AA?3?$AA?5?$AA?$CF?$AAT?$AAs?$AA?0?$AA?5?$AAf?$AAi?$AAl?$AAe?$AA?5?$AA?$CF?$AAT?$AAs?$AA?0@ 0000000180046e20     libucrt:assert.obj
 0002:00005e80       ??_C@_1EK@MBDPDCGA@?$AAM?$AAi?$AAc?$AAr?$AAo?$AAs?$AAo?$AAf?$AAt?$AA?5?$AAV?$AAi?$AAs?$AAu?$AAa?$AAl?$AA?5?$AAC?$AA?$CL?$AA?$CL?$AA?5?$AAR?$AAu?$AAn?$AAt?$AAi?$AAm?$AAe?$AA?5?$AAL?$AAi?$AAb@ 0000000180046e80     libucrt:assert.obj
 0002:00005ed0       ??_C@_1CE@OJBNHDMO@?$AAA?$AAs?$AAs?$AAe?$AAr?$AAt?$AAi?$AAo?$AAn?$AA?5?$AAf?$AAa?$AAi?$AAl?$AAe?$AAd?$AA?$CB?$AA?$AA@ 0000000180046ed0     libucrt:assert.obj
 0002:00005ef8       ??_C@_1BE@PHKBBGE@?$AAP?$AAr?$AAo?$AAg?$AAr?$AAa?$AAm?$AA?3?$AA?5?$AA?$AA@ 0000000180046ef8     libucrt:assert.obj
 0002:00005f10       ??_C@_1O@HEMHKNDC@?$AAF?$AAi?$AAl?$AAe?$AA?3?$AA?5?$AA?$AA@ 0000000180046f10     libucrt:assert.obj
 0002:00005f20       ??_C@_1O@KCAFKHJE@?$AAL?$AAi?$AAn?$AAe?$AA?3?$AA?5?$AA?$AA@ 0000000180046f20     libucrt:assert.obj
 0002:00005f30       ??_C@_1BK@PEDCIPMA@?$AAE?$AAx?$AAp?$AAr?$AAe?$AAs?$AAs?$AAi?$AAo?$AAn?$AA?3?$AA?5?$AA?$AA@ 0000000180046f30     libucrt:assert.obj
 0002:00005f50       ??_C@_1OA@EGMLFBHJ@?$AAF?$AAo?$AAr?$AA?5?$AAi?$AAn?$AAf?$AAo?$AAr?$AAm?$AAa?$AAt?$AAi?$AAo?$AAn?$AA?5?$AAo?$AAn?$AA?5?$AAh?$AAo?$AAw?$AA?5?$AAy?$AAo?$AAu?$AAr?$AA?5?$AAp?$AAr?$AAo?$AAg@ 0000000180046f50     libucrt:assert.obj
 0002:00006030       ??_C@_1HK@POCJMFGK@?$AA?$CI?$AAP?$AAr?$AAe?$AAs?$AAs?$AA?5?$AAR?$AAe?$AAt?$AAr?$AAy?$AA?5?$AAt?$AAo?$AA?5?$AAd?$AAe?$AAb?$AAu?$AAg?$AA?5?$AAt?$AAh?$AAe?$AA?5?$AAa?$AAp?$AAp?$AAl?$AAi?$AAc@ 0000000180047030     libucrt:assert.obj
 0002:000060b0       ??_C@_17LGKOMLJ@?$AA?4?$AA?4?$AA?4?$AA?$AA@ 00000001800470b0     libucrt:assert.obj
 0002:000060b8       ??_C@_13LBAGMAIH@?$AA?6?$AA?$AA@ 00000001800470b8     libucrt:assert.obj
 0002:000060bc       ??_C@_15IABLJNFO@?$AA?6?$AA?6?$AA?$AA@ 00000001800470bc     libucrt:assert.obj
 0002:000060c8       ??_C@_1CO@EAEJAADC@?$AA?$DM?$AAp?$AAr?$AAo?$AAg?$AAr?$AAa?$AAm?$AA?5?$AAn?$AAa?$AAm?$AAe?$AA?5?$AAu?$AAn?$AAk?$AAn?$AAo?$AAw?$AAn?$AA?$DO?$AA?$AA@ 00000001800470c8     libucrt:assert.obj
 0002:00006100       standard_lookup_table      0000000180047100     libucrt:output.obj
 0002:00006160       ??_C@_1O@CEDCILHN@?$AA?$CI?$AAn?$AAu?$AAl?$AAl?$AA?$CJ?$AA?$AA@ 0000000180047160     libucrt:output.obj
 0002:00006170       ??_C@_06OJHGLDPL@?$CInull?$CJ?$AA@ 0000000180047170     libucrt:output.obj
 0002:000062e8       ??_C@_19DOGDICKI@?$AA?4?$AAe?$AAx?$AAe?$AA?$AA@ 00000001800472e8     libucrt:stat.obj
 0002:000062f8       ??_C@_19BDKLHPGC@?$AA?4?$AAc?$AAm?$AAd?$AA?$AA@ 00000001800472f8     libucrt:stat.obj
 0002:00006308       ??_C@_19PINKOIBI@?$AA?4?$AAb?$AAa?$AAt?$AA?$AA@ 0000000180047308     libucrt:stat.obj
 0002:00006318       ??_C@_19CDGLJBOD@?$AA?4?$AAc?$AAo?$AAm?$AA?$AA@ 0000000180047318     libucrt:stat.obj
 0002:00006330       __newctype                 0000000180047330     libucrt:ctype.obj
 0002:00006630       __newclmap                 0000000180047630     libucrt:ctype.obj
 0002:000067b0       __newcumap                 00000001800477b0     libucrt:ctype.obj
 0002:00006930       _wctype                    0000000180047930     libucrt:ctype.obj
 0002:00006b40       ?large_power_data@?1??multiply_by_power_of_ten@__crt_strtox@@YA_NAEAUbig_integer@2@I@Z@4QBIB 0000000180047b40     libucrt:strtod.obj
 0002:00007450       ?large_power_indices@?1??multiply_by_power_of_ten@__crt_strtox@@YA_NAEAUbig_integer@2@I@Z@4QBUunpack_index@?1??12@YA_N0I@Z@B 0000000180048450     libucrt:strtod.obj
 0002:000074e8       ?small_powers_of_ten@?1??multiply_by_power_of_ten@__crt_strtox@@YA_NAEAUbig_integer@2@I@Z@4QBIB 00000001800484e8     libucrt:strtod.obj
 0002:000091c0       __acrt_exception_action_table 000000018004a1c0     libucrt:exception_filter.obj
 0002:00009280       __acrt_signal_action_table_count 000000018004a280     libucrt:exception_filter.obj
 0002:00009288       __acrt_signal_action_first_fpe_index 000000018004a288     libucrt:exception_filter.obj
 0002:00009290       __acrt_signal_action_fpe_count 000000018004a290     libucrt:exception_filter.obj
 0002:00009298       ??_C@_1BI@BGOHAHKC@?$AAm?$AAs?$AAc?$AAo?$AAr?$AAe?$AAe?$AA?4?$AAd?$AAl?$AAl?$AA?$AA@ 000000018004a298     libucrt:exit.obj
 0002:000092b0       ??_C@_0P@MIGLKIOC@CorExitProcess?$AA@ 000000018004a2b0     libucrt:exit.obj
 0002:000094a0       ??_C@_1EA@JGEFHKEI@?$AAa?$AAp?$AAi?$AA?9?$AAm?$AAs?$AA?9?$AAw?$AAi?$AAn?$AA?9?$AAc?$AAo?$AAr?$AAe?$AA?9?$AAd?$AAa?$AAt?$AAe?$AAt?$AAi?$AAm?$AAe?$AA?9?$AAl?$AA1?$AA?9?$AA1?$AA?9?$AA1?$AA?$AA@ 000000018004a4a0     libucrt:winapi_thunks.obj
 0002:000094e0       ??_C@_1DM@KHCHBNEB@?$AAa?$AAp?$AAi?$AA?9?$AAm?$AAs?$AA?9?$AAw?$AAi?$AAn?$AA?9?$AAc?$AAo?$AAr?$AAe?$AA?9?$AAf?$AAi?$AAb?$AAe?$AAr?$AAs?$AA?9?$AAl?$AA1?$AA?9?$AA1?$AA?9?$AA1?$AA?$AA@ 000000018004a4e0     libucrt:winapi_thunks.obj
 0002:00009520       ??_C@_1DI@IJCEHOCB@?$AAa?$AAp?$AAi?$AA?9?$AAm?$AAs?$AA?9?$AAw?$AAi?$AAn?$AA?9?$AAc?$AAo?$AAr?$AAe?$AA?9?$AAf?$AAi?$AAl?$AAe?$AA?9?$AAl?$AA1?$AA?9?$AA2?$AA?9?$AA2?$AA?$AA@ 000000018004a520     libucrt:winapi_thunks.obj
 0002:00009560       ??_C@_1EI@MPIAOHOC@?$AAa?$AAp?$AAi?$AA?9?$AAm?$AAs?$AA?9?$AAw?$AAi?$AAn?$AA?9?$AAc?$AAo?$AAr?$AAe?$AA?9?$AAl?$AAo?$AAc?$AAa?$AAl?$AAi?$AAz?$AAa?$AAt?$AAi?$AAo?$AAn?$AA?9?$AAl?$AA1?$AA?9@ 000000018004a560     libucrt:winapi_thunks.obj
 0002:000095b0       ??_C@_1FK@FPHCKFIE@?$AAa?$AAp?$AAi?$AA?9?$AAm?$AAs?$AA?9?$AAw?$AAi?$AAn?$AA?9?$AAc?$AAo?$AAr?$AAe?$AA?9?$AAl?$AAo?$AAc?$AAa?$AAl?$AAi?$AAz?$AAa?$AAt?$AAi?$AAo?$AAn?$AA?9?$AAo?$AAb?$AAs@ 000000018004a5b0     libucrt:winapi_thunks.obj
 0002:00009610       ??_C@_1EM@DILCGIIO@?$AAa?$AAp?$AAi?$AA?9?$AAm?$AAs?$AA?9?$AAw?$AAi?$AAn?$AA?9?$AAc?$AAo?$AAr?$AAe?$AA?9?$AAp?$AAr?$AAo?$AAc?$AAe?$AAs?$AAs?$AAt?$AAh?$AAr?$AAe?$AAa?$AAd?$AAs?$AA?9?$AAl@ 000000018004a610     libucrt:winapi_thunks.obj
 0002:00009660       ??_C@_1DM@LNCGDDPN@?$AAa?$AAp?$AAi?$AA?9?$AAm?$AAs?$AA?9?$AAw?$AAi?$AAn?$AA?9?$AAc?$AAo?$AAr?$AAe?$AA?9?$AAs?$AAt?$AAr?$AAi?$AAn?$AAg?$AA?9?$AAl?$AA1?$AA?9?$AA1?$AA?9?$AA0?$AA?$AA@ 000000018004a660     libucrt:winapi_thunks.obj
 0002:000096a0       ??_C@_1DK@LPPGFMPP@?$AAa?$AAp?$AAi?$AA?9?$AAm?$AAs?$AA?9?$AAw?$AAi?$AAn?$AA?9?$AAc?$AAo?$AAr?$AAe?$AA?9?$AAs?$AAy?$AAn?$AAc?$AAh?$AA?9?$AAl?$AA1?$AA?9?$AA2?$AA?9?$AA0?$AA?$AA@ 000000018004a6a0     libucrt:winapi_thunks.obj
 0002:000096e0       ??_C@_1DO@FPAPJEMD@?$AAa?$AAp?$AAi?$AA?9?$AAm?$AAs?$AA?9?$AAw?$AAi?$AAn?$AA?9?$AAc?$AAo?$AAr?$AAe?$AA?9?$AAs?$AAy?$AAs?$AAi?$AAn?$AAf?$AAo?$AA?9?$AAl?$AA1?$AA?9?$AA2?$AA?9?$AA1?$AA?$AA@ 000000018004a6e0     libucrt:winapi_thunks.obj
 0002:00009720       ??_C@_1DK@NDHNAHIO@?$AAa?$AAp?$AAi?$AA?9?$AAm?$AAs?$AA?9?$AAw?$AAi?$AAn?$AA?9?$AAc?$AAo?$AAr?$AAe?$AA?9?$AAw?$AAi?$AAn?$AAr?$AAt?$AA?9?$AAl?$AA1?$AA?9?$AA1?$AA?9?$AA0?$AA?$AA@ 000000018004a720     libucrt:winapi_thunks.obj
 0002:00009760       ??_C@_1DM@KGHDGBCM@?$AAa?$AAp?$AAi?$AA?9?$AAm?$AAs?$AA?9?$AAw?$AAi?$AAn?$AA?9?$AAc?$AAo?$AAr?$AAe?$AA?9?$AAx?$AAs?$AAt?$AAa?$AAt?$AAe?$AA?9?$AAl?$AA2?$AA?9?$AA1?$AA?9?$AA0?$AA?$AA@ 000000018004a760     libucrt:winapi_thunks.obj
 0002:000097a0       ??_C@_1EO@IJIOEFOH@?$AAa?$AAp?$AAi?$AA?9?$AAm?$AAs?$AA?9?$AAw?$AAi?$AAn?$AA?9?$AAr?$AAt?$AAc?$AAo?$AAr?$AAe?$AA?9?$AAn?$AAt?$AAu?$AAs?$AAe?$AAr?$AA?9?$AAw?$AAi?$AAn?$AAd?$AAo?$AAw?$AA?9@ 000000018004a7a0     libucrt:winapi_thunks.obj
 0002:000097f0       ??_C@_1FG@HHGEKANL@?$AAa?$AAp?$AAi?$AA?9?$AAm?$AAs?$AA?9?$AAw?$AAi?$AAn?$AA?9?$AAs?$AAe?$AAc?$AAu?$AAr?$AAi?$AAt?$AAy?$AA?9?$AAs?$AAy?$AAs?$AAt?$AAe?$AAm?$AAf?$AAu?$AAn?$AAc?$AAt?$AAi@ 000000018004a7f0     libucrt:winapi_thunks.obj
 0002:00009850       ??_C@_1EG@DBIOJECG@?$AAe?$AAx?$AAt?$AA?9?$AAm?$AAs?$AA?9?$AAw?$AAi?$AAn?$AA?9?$AAn?$AAt?$AAu?$AAs?$AAe?$AAr?$AA?9?$AAd?$AAi?$AAa?$AAl?$AAo?$AAg?$AAb?$AAo?$AAx?$AA?9?$AAl?$AA1?$AA?9?$AA1@ 000000018004a850     libucrt:winapi_thunks.obj
 0002:000098a0       ??_C@_1EO@FIHMJCLF@?$AAe?$AAx?$AAt?$AA?9?$AAm?$AAs?$AA?9?$AAw?$AAi?$AAn?$AA?9?$AAn?$AAt?$AAu?$AAs?$AAe?$AAr?$AA?9?$AAw?$AAi?$AAn?$AAd?$AAo?$AAw?$AAs?$AAt?$AAa?$AAt?$AAi?$AAo?$AAn?$AA?9@ 000000018004a8a0     libucrt:winapi_thunks.obj
 0002:000098f0       ??_C@_1BC@DNHGCMLG@?$AAa?$AAd?$AAv?$AAa?$AAp?$AAi?$AA3?$AA2?$AA?$AA@ 000000018004a8f0     libucrt:winapi_thunks.obj
 0002:00009908       ??_C@_1BC@GDMECMAK@?$AAk?$AAe?$AAr?$AAn?$AAe?$AAl?$AA3?$AA2?$AA?$AA@ 000000018004a908     libucrt:winapi_thunks.obj
 0002:00009920       ??_C@_1M@OAIMIKLP@?$AAn?$AAt?$AAd?$AAl?$AAl?$AA?$AA@ 000000018004a920     libucrt:winapi_thunks.obj
 0002:00009930       ??_C@_1EG@DPGNFKGC@?$AAa?$AAp?$AAi?$AA?9?$AAm?$AAs?$AA?9?$AAw?$AAi?$AAn?$AA?9?$AAa?$AAp?$AAp?$AAm?$AAo?$AAd?$AAe?$AAl?$AA?9?$AAr?$AAu?$AAn?$AAt?$AAi?$AAm?$AAe?$AA?9?$AAl?$AA1?$AA?9?$AA1@ 000000018004a930     libucrt:winapi_thunks.obj
 0002:00009978       ??_C@_1O@BCCLBEOE@?$AAu?$AAs?$AAe?$AAr?$AA3?$AA2?$AA?$AA@ 000000018004a978     libucrt:winapi_thunks.obj
 0002:00009988       ??_C@_1BA@PFFKHIOG@?$AAa?$AAp?$AAi?$AA?9?$AAm?$AAs?$AA?9?$AA?$AA@ 000000018004a988     libucrt:winapi_thunks.obj
 0002:00009998       ??_C@_1BA@IAIFMGEF@?$AAe?$AAx?$AAt?$AA?9?$AAm?$AAs?$AA?9?$AA?$AA@ 000000018004a998     libucrt:winapi_thunks.obj
 0002:000099b0       ??_C@_0BA@FHFNEAED@AreFileApisANSI?$AA@ 000000018004a9b0     libucrt:winapi_thunks.obj
 0002:000099c8       ??_C@_0BA@IHGNDAEB@CompareStringEx?$AA@ 000000018004a9c8     libucrt:winapi_thunks.obj
 0002:000099e0       ??_C@_08KNHFBNJ@FlsAlloc?$AA@ 000000018004a9e0     libucrt:winapi_thunks.obj
 0002:000099f8       ??_C@_07PEJMOBNF@FlsFree?$AA@ 000000018004a9f8     libucrt:winapi_thunks.obj
 0002:00009a08       ??_C@_0M@GDNOONDI@FlsGetValue?$AA@ 000000018004aa08     libucrt:winapi_thunks.obj
 0002:00009a20       ??_C@_0M@JCPCPOEF@FlsSetValue?$AA@ 000000018004aa20     libucrt:winapi_thunks.obj
 0002:00009a38       ??_C@_0BA@HNOPNCHB@GetActiveWindow?$AA@ 000000018004aa38     libucrt:winapi_thunks.obj
 0002:00009a50       ??_C@_0BD@HHGDFDBJ@GetLastActivePopup?$AA@ 000000018004aa50     libucrt:winapi_thunks.obj
 0002:00009a70       ??_C@_0BI@DFKBFLJE@GetProcessWindowStation?$AA@ 000000018004aa70     libucrt:winapi_thunks.obj
 0002:00009a90       ??_C@_0BK@DEKFELLI@GetUserObjectInformationW?$AA@ 000000018004aa90     libucrt:winapi_thunks.obj
 0002:00009ab8       ??_C@_0BM@HCFOFFN@InitializeCriticalSectionEx?$AA@ 000000018004aab8     libucrt:winapi_thunks.obj
 0002:00009ae0       ??_C@_0O@KKBNKAPF@LCMapStringEx?$AA@ 000000018004aae0     libucrt:winapi_thunks.obj
 0002:00009af8       ??_C@_0BB@HBDEELFH@LocaleNameToLCID?$AA@ 000000018004aaf8     libucrt:winapi_thunks.obj
 0002:00009b18       ??_C@_0M@CHKKJDAI@MessageBoxA?$AA@ 000000018004ab18     libucrt:winapi_thunks.obj
 0002:00009b30       ??_C@_0M@DLDCCGNP@MessageBoxW?$AA@ 000000018004ab30     libucrt:winapi_thunks.obj
 0002:00009b40       ??_C@_0CF@OJOFEIGO@AppPolicyGetProcessTerminationMe@ 000000018004ab40     libucrt:winapi_thunks.obj
 0002:00009b70       ??_C@_0CE@OICFMIKE@AppPolicyGetShowDeveloperDiagnos@ 000000018004ab70     libucrt:winapi_thunks.obj
 0002:00009b98       ??_C@_0BL@ODDJNEDA@AppPolicyGetWindowingModel?$AA@ 000000018004ab98     libucrt:winapi_thunks.obj
 0002:00009bc0       __lc_time_c                000000018004abc0     libucrt:nlsdata.obj
 0002:00009e80       ??_C@_03KOEHGMDN@Sun?$AA@  000000018004ae80     libucrt:nlsdata.obj
 0002:00009e84       ??_C@_03PDAGKDH@Mon?$AA@   000000018004ae84     libucrt:nlsdata.obj
 0002:00009e88       ??_C@_03NAGEINEP@Tue?$AA@  000000018004ae88     libucrt:nlsdata.obj
 0002:00009e8c       ??_C@_03MHOMLAJA@Wed?$AA@  000000018004ae8c     libucrt:nlsdata.obj
 0002:00009e90       ??_C@_03IOFIKPDN@Thu?$AA@  000000018004ae90     libucrt:nlsdata.obj
 0002:00009e94       ??_C@_03IDIOELNC@Fri?$AA@  000000018004ae94     libucrt:nlsdata.obj
 0002:00009e98       ??_C@_03FEFJNEK@Sat?$AA@   000000018004ae98     libucrt:nlsdata.obj
 0002:00009e9c       ??_C@_06OOPIFAJ@Sunday?$AA@ 000000018004ae9c     libucrt:nlsdata.obj
 0002:00009ea4       ??_C@_06JLEDEDGH@Monday?$AA@ 000000018004aea4     libucrt:nlsdata.obj
 0002:00009eb0       ??_C@_07BAAGCFCM@Tuesday?$AA@ 000000018004aeb0     libucrt:nlsdata.obj
 0002:00009eb8       ??_C@_09DLIGFAKA@Wednesday?$AA@ 000000018004aeb8     libucrt:nlsdata.obj
 0002:00009ec8       ??_C@_08HACCIKIA@Thursday?$AA@ 000000018004aec8     libucrt:nlsdata.obj
 0002:00009ed4       ??_C@_06JECMNKMI@Friday?$AA@ 000000018004aed4     libucrt:nlsdata.obj
 0002:00009ee0       ??_C@_08INBOOONO@Saturday?$AA@ 000000018004aee0     libucrt:nlsdata.obj
 0002:00009eec       ??_C@_03JIHJHPIE@Jan?$AA@  000000018004aeec     libucrt:nlsdata.obj
 0002:00009ef0       ??_C@_03HJBDCHOM@Feb?$AA@  000000018004aef0     libucrt:nlsdata.obj
 0002:00009ef4       ??_C@_03ODNJBKGA@Mar?$AA@  000000018004aef4     libucrt:nlsdata.obj
 0002:00009ef8       ??_C@_03LEOLGMJP@Apr?$AA@  000000018004aef8     libucrt:nlsdata.obj
 0002:00009efc       ??_C@_03CNMDKL@May?$AA@    000000018004aefc     libucrt:nlsdata.obj
 0002:00009f00       ??_C@_03IDFGHECI@Jun?$AA@  000000018004af00     libucrt:nlsdata.obj
 0002:00009f04       ??_C@_03LBGABGKK@Jul?$AA@  000000018004af04     libucrt:nlsdata.obj
 0002:00009f08       ??_C@_03IFJFEIGA@Aug?$AA@  000000018004af08     libucrt:nlsdata.obj
 0002:00009f0c       ??_C@_03GGCAPAJC@Sep?$AA@  000000018004af0c     libucrt:nlsdata.obj
 0002:00009f10       ??_C@_03BMAOKBAD@Oct?$AA@  000000018004af10     libucrt:nlsdata.obj
 0002:00009f14       ??_C@_03JPJOFNIA@Nov?$AA@  000000018004af14     libucrt:nlsdata.obj
 0002:00009f18       ??_C@_03MKABNOCG@Dec?$AA@  000000018004af18     libucrt:nlsdata.obj
 0002:00009f20       ??_C@_07CGJPFGJA@January?$AA@ 000000018004af20     libucrt:nlsdata.obj
 0002:00009f28       ??_C@_08GNJGEPFN@February?$AA@ 000000018004af28     libucrt:nlsdata.obj
 0002:00009f34       ??_C@_05HPCKOFNC@March?$AA@ 000000018004af34     libucrt:nlsdata.obj
 0002:00009f3c       ??_C@_05DMJDNLEJ@April?$AA@ 000000018004af3c     libucrt:nlsdata.obj
 0002:00009f44       ??_C@_04CNLMGBGM@June?$AA@ 000000018004af44     libucrt:nlsdata.obj
 0002:00009f4c       ??_C@_04MIEPOIFP@July?$AA@ 000000018004af4c     libucrt:nlsdata.obj
 0002:00009f54       ??_C@_06LBBHFDDG@August?$AA@ 000000018004af54     libucrt:nlsdata.obj
 0002:00009f60       ??_C@_09BHHEALKD@September?$AA@ 000000018004af60     libucrt:nlsdata.obj
 0002:00009f70       ??_C@_07JJNFCEND@October?$AA@ 000000018004af70     libucrt:nlsdata.obj
 0002:00009f78       ??_C@_08HCHEGEOA@November?$AA@ 000000018004af78     libucrt:nlsdata.obj
 0002:00009f88       ??_C@_08EDHMEBNP@December?$AA@ 000000018004af88     libucrt:nlsdata.obj
 0002:00009f94       ??_C@_02DEDBPAFC@AM?$AA@   000000018004af94     libucrt:nlsdata.obj
 0002:00009f98       ??_C@_02CJNFDJBF@PM?$AA@   000000018004af98     libucrt:nlsdata.obj
 0002:00009fa0       ??_C@_08BPBNCDIB@MM?1dd?1yy?$AA@ 000000018004afa0     libucrt:nlsdata.obj
 0002:00009fb0       ??_C@_0BE@CKGJFCPC@dddd?0?5MMMM?5dd?0?5yyyy?$AA@ 000000018004afb0     libucrt:nlsdata.obj
 0002:00009fc8       ??_C@_08JCCMCCIL@HH?3mm?3ss?$AA@ 000000018004afc8     libucrt:nlsdata.obj
 0002:00009fd8       ??_C@_17MBGCMIPB@?$AAS?$AAu?$AAn?$AA?$AA@ 000000018004afd8     libucrt:nlsdata.obj
 0002:00009fe0       ??_C@_17KBOMKBF@?$AAM?$AAo?$AAn?$AA?$AA@ 000000018004afe0     libucrt:nlsdata.obj
 0002:00009fe8       ??_C@_17BMKGEGOJ@?$AAT?$AAu?$AAe?$AA?$AA@ 000000018004afe8     libucrt:nlsdata.obj
 0002:00009ff0       ??_C@_17CJEDCEPE@?$AAW?$AAe?$AAd?$AA?$AA@ 000000018004aff0     libucrt:nlsdata.obj
 0002:00009ff8       ??_C@_17PDPHAADD@?$AAT?$AAh?$AAu?$AA?$AA@ 000000018004aff8     libucrt:nlsdata.obj
 0002:0000a000       ??_C@_17HFOLPPLP@?$AAF?$AAr?$AAi?$AA?$AA@ 000000018004b000     libucrt:nlsdata.obj
 0002:0000a008       ??_C@_17GGIBDPIH@?$AAS?$AAa?$AAt?$AA?$AA@ 000000018004b008     libucrt:nlsdata.obj
 0002:0000a010       ??_C@_1O@IHNHDHPB@?$AAS?$AAu?$AAn?$AAd?$AAa?$AAy?$AA?$AA@ 000000018004b010     libucrt:nlsdata.obj
 0002:0000a020       ??_C@_1O@MMNBFLIA@?$AAM?$AAo?$AAn?$AAd?$AAa?$AAy?$AA?$AA@ 000000018004b020     libucrt:nlsdata.obj
 0002:0000a030       ??_C@_1BA@ENFBFFEK@?$AAT?$AAu?$AAe?$AAs?$AAd?$AAa?$AAy?$AA?$AA@ 000000018004b030     libucrt:nlsdata.obj
 0002:0000a040       ??_C@_1BE@EBOGMDOH@?$AAW?$AAe?$AAd?$AAn?$AAe?$AAs?$AAd?$AAa?$AAy?$AA?$AA@ 000000018004b040     libucrt:nlsdata.obj
 0002:0000a058       ??_C@_1BC@HHMNLIHE@?$AAT?$AAh?$AAu?$AAr?$AAs?$AAd?$AAa?$AAy?$AA?$AA@ 000000018004b058     libucrt:nlsdata.obj
 0002:0000a070       ??_C@_1O@PDICJHAG@?$AAF?$AAr?$AAi?$AAd?$AAa?$AAy?$AA?$AA@ 000000018004b070     libucrt:nlsdata.obj
 0002:0000a080       ??_C@_1BC@ENMNNPAJ@?$AAS?$AAa?$AAt?$AAu?$AAr?$AAd?$AAa?$AAy?$AA?$AA@ 000000018004b080     libucrt:nlsdata.obj
 0002:0000a098       ??_C@_17DKNBKCHM@?$AAJ?$AAa?$AAn?$AA?$AA@ 000000018004b098     libucrt:nlsdata.obj
 0002:0000a0a0       ??_C@_17LMDJEKJN@?$AAF?$AAe?$AAb?$AA?$AA@ 000000018004b0a0     libucrt:nlsdata.obj
 0002:0000a0a8       ??_C@_17CKNLEDEC@?$AAM?$AAa?$AAr?$AA?$AA@ 000000018004b0a8     libucrt:nlsdata.obj
 0002:0000a0b0       ??_C@_17LFPOIHDD@?$AAA?$AAp?$AAr?$AA?$AA@ 000000018004b0b0     libucrt:nlsdata.obj
 0002:0000a0b8       ??_C@_17PNNKMEED@?$AAM?$AAa?$AAy?$AA?$AA@ 000000018004b0b8     libucrt:nlsdata.obj
 0002:0000a0c0       ??_C@_17KCJGOCPB@?$AAJ?$AAu?$AAn?$AA?$AA@ 000000018004b0c0     libucrt:nlsdata.obj
 0002:0000a0c8       ??_C@_17IJPCKHK@?$AAJ?$AAu?$AAl?$AA?$AA@ 000000018004b0c8     libucrt:nlsdata.obj
 0002:0000a0d0       ??_C@_17ICPELBCN@?$AAA?$AAu?$AAg?$AA?$AA@ 000000018004b0d0     libucrt:nlsdata.obj
 0002:0000a0d8       ??_C@_17HCHCOKMG@?$AAS?$AAe?$AAp?$AA?$AA@ 000000018004b0d8     libucrt:nlsdata.obj
 0002:0000a0e0       ??_C@_17FNLKOI@?$AAO?$AAc?$AAt?$AA?$AA@ 000000018004b0e0     libucrt:nlsdata.obj
 0002:0000a0e8       ??_C@_17BBDMLCIG@?$AAN?$AAo?$AAv?$AA?$AA@ 000000018004b0e8     libucrt:nlsdata.obj
 0002:0000a0f0       ??_C@_17EGKACKIF@?$AAD?$AAe?$AAc?$AA?$AA@ 000000018004b0f0     libucrt:nlsdata.obj
 0002:0000a0f8       ??_C@_1BA@EFMEIEBA@?$AAJ?$AAa?$AAn?$AAu?$AAa?$AAr?$AAy?$AA?$AA@ 000000018004b0f8     libucrt:nlsdata.obj
 0002:0000a108       ??_C@_1BC@JGDDFFAM@?$AAF?$AAe?$AAb?$AAr?$AAu?$AAa?$AAr?$AAy?$AA?$AA@ 000000018004b108     libucrt:nlsdata.obj
 0002:0000a120       ??_C@_1M@IKEENEDF@?$AAM?$AAa?$AAr?$AAc?$AAh?$AA?$AA@ 000000018004b120     libucrt:nlsdata.obj
 0002:0000a130       ??_C@_1M@GJNLMHFD@?$AAA?$AAp?$AAr?$AAi?$AAl?$AA?$AA@ 000000018004b130     libucrt:nlsdata.obj
 0002:0000a140       ??_C@_19EPFLPGAP@?$AAJ?$AAu?$AAn?$AAe?$AA?$AA@ 000000018004b140     libucrt:nlsdata.obj
 0002:0000a150       ??_C@_19BIFMLPCD@?$AAJ?$AAu?$AAl?$AAy?$AA?$AA@ 000000018004b150     libucrt:nlsdata.obj
 0002:0000a160       ??_C@_1O@PAHLKOAC@?$AAA?$AAu?$AAg?$AAu?$AAs?$AAt?$AA?$AA@ 000000018004b160     libucrt:nlsdata.obj
 0002:0000a170       ??_C@_1BE@DKAAMBJL@?$AAS?$AAe?$AAp?$AAt?$AAe?$AAm?$AAb?$AAe?$AAr?$AA?$AA@ 000000018004b170     libucrt:nlsdata.obj
 0002:0000a188       ??_C@_1BA@EPANDLNG@?$AAO?$AAc?$AAt?$AAo?$AAb?$AAe?$AAr?$AA?$AA@ 000000018004b188     libucrt:nlsdata.obj
 0002:0000a198       ??_C@_1BC@BGLIFPF@?$AAN?$AAo?$AAv?$AAe?$AAm?$AAb?$AAe?$AAr?$AA?$AA@ 000000018004b198     libucrt:nlsdata.obj
 0002:0000a1b0       ??_C@_1BC@FEMKIFH@?$AAD?$AAe?$AAc?$AAe?$AAm?$AAb?$AAe?$AAr?$AA?$AA@ 000000018004b1b0     libucrt:nlsdata.obj
 0002:0000a1c4       ??_C@_15ODEHAHHF@?$AAA?$AAM?$AA?$AA@ 000000018004b1c4     libucrt:nlsdata.obj
 0002:0000a1cc       ??_C@_15CLMNNGEL@?$AAP?$AAM?$AA?$AA@ 000000018004b1cc     libucrt:nlsdata.obj
 0002:0000a1d8       ??_C@_1BC@IEBCMHCM@?$AAM?$AAM?$AA?1?$AAd?$AAd?$AA?1?$AAy?$AAy?$AA?$AA@ 000000018004b1d8     libucrt:nlsdata.obj
 0002:0000a1f0       ??_C@_1CI@KNAKOEBC@?$AAd?$AAd?$AAd?$AAd?$AA?0?$AA?5?$AAM?$AAM?$AAM?$AAM?$AA?5?$AAd?$AAd?$AA?0?$AA?5?$AAy?$AAy?$AAy?$AAy?$AA?$AA@ 000000018004b1f0     libucrt:nlsdata.obj
 0002:0000a218       ??_C@_1BC@GDGBMEMK@?$AAH?$AAH?$AA?3?$AAm?$AAm?$AA?3?$AAs?$AAs?$AA?$AA@ 000000018004b218     libucrt:nlsdata.obj
 0002:0000a230       ??_C@_1M@BMHNFIME@?$AAe?$AAn?$AA?9?$AAU?$AAS?$AA?$AA@ 000000018004b230     libucrt:nlsdata.obj
 0002:0000a23c       ??_C@_03OEIAHPBN@INF?$AA@  000000018004b23c     libucrt:cvt.obj
 0002:0000a240       ??_C@_03OJHLLCGB@inf?$AA@  000000018004b240     libucrt:cvt.obj
 0002:0000a244       ??_C@_03LKNCIKJB@NAN?$AA@  000000018004b244     libucrt:cvt.obj
 0002:0000a248       ??_C@_03LHCJEHON@nan?$AA@  000000018004b248     libucrt:cvt.obj
 0002:0000a250       ??_C@_09OFJJIMPC@NAN?$CISNAN?$CJ?$AA@ 000000018004b250     libucrt:cvt.obj
 0002:0000a260       ??_C@_09IPFBKMDL@nan?$CIsnan?$CJ?$AA@ 000000018004b260     libucrt:cvt.obj
 0002:0000a270       ??_C@_08IKHNHAJ@NAN?$CIIND?$CJ?$AA@ 000000018004b270     libucrt:cvt.obj
 0002:0000a280       ??_C@_08OFCDMILK@nan?$CIind?$CJ?$AA@ 000000018004b280     libucrt:cvt.obj
 0002:0000a28c       ??_C@_05KLBDPFGC@e?$CL000?$AA@ 000000018004b28c     libucrt:cvt.obj
 0002:0000a294       ?ccs@?1???$__acrt_stdio_parse_mode@D@@YA?AU__acrt_stdio_stream_mode@@QEBD@Z@4QBDB 000000018004b294     libucrt:openfile.obj
 0002:0000a298       ?utf8_encoding@?1???$__acrt_stdio_parse_mode@D@@YA?AU__acrt_stdio_stream_mode@@QEBD@Z@4QBDB 000000018004b298     libucrt:openfile.obj
 0002:0000a2a0       ?utf16_encoding@?1???$__acrt_stdio_parse_mode@D@@YA?AU__acrt_stdio_stream_mode@@QEBD@Z@4QBDB 000000018004b2a0     libucrt:openfile.obj
 0002:0000a2a8       ?unicode_encoding@?1???$__acrt_stdio_parse_mode@D@@YA?AU__acrt_stdio_stream_mode@@QEBD@Z@4QBDB 000000018004b2a8     libucrt:openfile.obj
 0002:0000a2b0       ??_C@_03JGHBODFD@pow?$AA@  000000018004b2b0     libucrt:fpexcept.obj
 0002:0000a2b4       ??_C@_05HGHHAHAP@log10?$AA@ 000000018004b2b4     libucrt:fpexcept.obj
 0002:0000a2bc       ??_C@_04PDIFKINK@acos?$AA@ 000000018004b2bc     libucrt:fpexcept.obj
 0002:0000a2c4       ??_C@_03IIINPABG@tan?$AA@  000000018004b2c4     libucrt:fpexcept.obj
 0002:0000a2d0       __log_256_lead             000000018004b2d0     libucrt:log_256_lead_tail_table.obj
 0002:0000aae0       __log_256_tail             000000018004bae0     libucrt:log_256_lead_tail_table.obj
 0002:0000b2f0       __two_to_jby64_head_table  000000018004c2f0     libucrt:two_to_jby64_head_tail_table.obj
 0002:0000b4f0       __two_to_jby64_tail_table  000000018004c4f0     libucrt:two_to_jby64_head_tail_table.obj
 0002:0000b6f0       ??_C@_04MBFDLNIM@powf?$AA@ 000000018004c6f0     libucrt:pow_special.obj
 0002:0000b700       __two_to_jby64_table       000000018004c700     libucrt:two_to_jby64_table.obj
 0002:0000b900       __log_F_inv_qword          000000018004c900     libucrt:log_f_inv_qword_table.obj
 0002:0000c110       ??_C@_02CLFPBFFP@TZ?$AA@   000000018004d110     libucrt:tzset.obj
 0002:0000c138       ??_C@_1M@HPNHIDJI@?$AAj?$AAa?$AA?9?$AAJ?$AAP?$AA?$AA@ 000000018004d138     libucrt:mbctype.obj
 0002:0000c148       ??_C@_1M@BIBDDEMK@?$AAz?$AAh?$AA?9?$AAC?$AAN?$AA?$AA@ 000000018004d148     libucrt:mbctype.obj
 0002:0000c158       ??_C@_1M@JLOOOEGK@?$AAk?$AAo?$AA?9?$AAK?$AAR?$AA?$AA@ 000000018004d158     libucrt:mbctype.obj
 0002:0000c168       ??_C@_1M@CLNBBOPM@?$AAz?$AAh?$AA?9?$AAT?$AAW?$AA?$AA@ 000000018004d168     libucrt:mbctype.obj
 0002:0000cfc0       ??_C@_15EMKDOKLE@?$AAa?$AAr?$AA?$AA@ 000000018004dfc0     libucrt:lcidtoname_downlevel.obj
 0002:0000cfc8       ??_C@_15KNPADPLH@?$AAb?$AAg?$AA?$AA@ 000000018004dfc8     libucrt:lcidtoname_downlevel.obj
 0002:0000cfd0       ??_C@_15EDMHLDMO@?$AAc?$AAa?$AA?$AA@ 000000018004dfd0     libucrt:lcidtoname_downlevel.obj
 0002:0000cfd8       ??_C@_1O@BPEAJADD@?$AAz?$AAh?$AA?9?$AAC?$AAH?$AAS?$AA?$AA@ 000000018004dfd8     libucrt:lcidtoname_downlevel.obj
 0002:0000cfe8       ??_C@_15LJNHCMNK@?$AAc?$AAs?$AA?$AA@ 000000018004dfe8     libucrt:lcidtoname_downlevel.obj
 0002:0000cff0       ??_C@_15FOMCIDHG@?$AAd?$AAa?$AA?$AA@ 000000018004dff0     libucrt:lcidtoname_downlevel.obj
 0002:0000cff8       ??_C@_15NBKABECB@?$AAd?$AAe?$AA?$AA@ 000000018004dff8     libucrt:lcidtoname_downlevel.obj
 0002:0000d000       ??_C@_15GHPEIIAO@?$AAe?$AAl?$AA?$AA@ 000000018004e000     libucrt:lcidtoname_downlevel.obj
 0002:0000d008       ??_C@_15MNPNEAIF@?$AAe?$AAn?$AA?$AA@ 000000018004e008     libucrt:lcidtoname_downlevel.obj
 0002:0000d010       ??_C@_15GPIOMPMH@?$AAe?$AAs?$AA?$AA@ 000000018004e010     libucrt:lcidtoname_downlevel.obj
 0002:0000d018       ??_C@_15NGLOAKJC@?$AAf?$AAi?$AA?$AA@ 000000018004e018     libucrt:lcidtoname_downlevel.obj
 0002:0000d020       ??_C@_15FBKGNKAM@?$AAf?$AAr?$AA?$AA@ 000000018004e020     libucrt:lcidtoname_downlevel.obj
 0002:0000d028       ??_C@_15KGGCNEFK@?$AAh?$AAe?$AA?$AA@ 000000018004e028     libucrt:lcidtoname_downlevel.obj
 0002:0000d030       ??_C@_15PGHLIDMF@?$AAh?$AAu?$AA?$AA@ 000000018004e030     libucrt:lcidtoname_downlevel.obj
 0002:0000d038       ??_C@_15BIEMAPLM@?$AAi?$AAs?$AA?$AA@ 000000018004e038     libucrt:lcidtoname_downlevel.obj
 0002:0000d040       ??_C@_15IFJLDHAF@?$AAi?$AAt?$AA?$AA@ 000000018004e040     libucrt:lcidtoname_downlevel.obj
 0002:0000d048       ??_C@_15GEMIOCAG@?$AAj?$AAa?$AA?$AA@ 000000018004e048     libucrt:lcidtoname_downlevel.obj
 0002:0000d050       ??_C@_15EPELEGJA@?$AAk?$AAo?$AA?$AA@ 000000018004e050     libucrt:lcidtoname_downlevel.obj
 0002:0000d058       ??_C@_15NDDHIMN@?$AAn?$AAl?$AA?$AA@ 000000018004e058     libucrt:lcidtoname_downlevel.obj
 0002:0000d060       ??_C@_15BPIGNHCD@?$AAn?$AAo?$AA?$AA@ 000000018004e060     libucrt:lcidtoname_downlevel.obj
 0002:0000d068       ??_C@_15DEOPBLCG@?$AAp?$AAl?$AA?$AA@ 000000018004e068     libucrt:lcidtoname_downlevel.obj
 0002:0000d070       ??_C@_15KBECGEFG@?$AAp?$AAt?$AA?$AA@ 000000018004e070     libucrt:lcidtoname_downlevel.obj
 0002:0000d078       ??_C@_15GLJCBFMD@?$AAr?$AAo?$AA?$AA@ 000000018004e078     libucrt:lcidtoname_downlevel.obj
 0002:0000d080       ??_C@_15FEDGKCDI@?$AAr?$AAu?$AA?$AA@ 000000018004e080     libucrt:lcidtoname_downlevel.obj
 0002:0000d088       ??_C@_15GLKMLLHM@?$AAh?$AAr?$AA?$AA@ 000000018004e088     libucrt:lcidtoname_downlevel.obj
 0002:0000d090       ??_C@_15CPKMFBDB@?$AAs?$AAk?$AA?$AA@ 000000018004e090     libucrt:lcidtoname_downlevel.obj
 0002:0000d098       ??_C@_15BAAIOGMK@?$AAs?$AAq?$AA?$AA@ 000000018004e098     libucrt:lcidtoname_downlevel.obj
 0002:0000d0a0       ??_C@_15INNPNOHD@?$AAs?$AAv?$AA?$AA@ 000000018004e0a0     libucrt:lcidtoname_downlevel.obj
 0002:0000d0a8       ??_C@_15CABMMOGH@?$AAt?$AAh?$AA?$AA@ 000000018004e0a8     libucrt:lcidtoname_downlevel.obj
 0002:0000d0b0       ??_C@_15BPLIHJJM@?$AAt?$AAr?$AA?$AA@ 000000018004e0b0     libucrt:lcidtoname_downlevel.obj
 0002:0000d0b8       ??_C@_15NEOEKKDJ@?$AAu?$AAr?$AA?$AA@ 000000018004e0b8     libucrt:lcidtoname_downlevel.obj
 0002:0000d0c0       ??_C@_15NFICGAJK@?$AAi?$AAd?$AA?$AA@ 000000018004e0c0     libucrt:lcidtoname_downlevel.obj
 0002:0000d0c8       ??_C@_15PJPFLCCM@?$AAu?$AAk?$AA?$AA@ 000000018004e0c8     libucrt:lcidtoname_downlevel.obj
 0002:0000d0d0       ??_C@_15HPJPHDM@?$AAb?$AAe?$AA?$AA@ 000000018004e0d0     libucrt:lcidtoname_downlevel.obj
 0002:0000d0d8       ??_C@_15LCHLGJII@?$AAs?$AAl?$AA?$AA@ 000000018004e0d8     libucrt:lcidtoname_downlevel.obj
 0002:0000d0e0       ??_C@_15PCFJPHHO@?$AAe?$AAt?$AA?$AA@ 000000018004e0e0     libucrt:lcidtoname_downlevel.obj
 0002:0000d0e8       ??_C@_15HPFPGODN@?$AAl?$AAv?$AA?$AA@ 000000018004e0e8     libucrt:lcidtoname_downlevel.obj
 0002:0000d0f0       ??_C@_15NFFGKGLG@?$AAl?$AAt?$AA?$AA@ 000000018004e0f0     libucrt:lcidtoname_downlevel.obj
 0002:0000d0f8       ??_C@_15BDAKCCHN@?$AAf?$AAa?$AA?$AA@ 000000018004e0f8     libucrt:lcidtoname_downlevel.obj
 0002:0000d100       ??_C@_15NFGIAIAJ@?$AAv?$AAi?$AA?$AA@ 000000018004e100     libucrt:lcidtoname_downlevel.obj
 0002:0000d108       ??_C@_15LMKNDMHN@?$AAh?$AAy?$AA?$AA@ 000000018004e108     libucrt:lcidtoname_downlevel.obj
 0002:0000d110       ??_C@_15IJBHMCFL@?$AAa?$AAz?$AA?$AA@ 000000018004e110     libucrt:lcidtoname_downlevel.obj
 0002:0000d118       ??_C@_15EKOFJABL@?$AAe?$AAu?$AA?$AA@ 000000018004e118     libucrt:lcidtoname_downlevel.obj
 0002:0000d120       ??_C@_15BGHADCNK@?$AAm?$AAk?$AA?$AA@ 000000018004e120     libucrt:lcidtoname_downlevel.obj
 0002:0000d128       ??_C@_15JDNICKHM@?$AAa?$AAf?$AA?$AA@ 000000018004e128     libucrt:lcidtoname_downlevel.obj
 0002:0000d130       ??_C@_15KPJEDBKD@?$AAk?$AAa?$AA?$AA@ 000000018004e130     libucrt:lcidtoname_downlevel.obj
 0002:0000d138       ??_C@_15PDNFFFEO@?$AAf?$AAo?$AA?$AA@ 000000018004e138     libucrt:lcidtoname_downlevel.obj
 0002:0000d140       ??_C@_15OMLEGLOC@?$AAh?$AAi?$AA?$AA@ 000000018004e140     libucrt:lcidtoname_downlevel.obj
 0002:0000d148       ??_C@_15IDNNENKK@?$AAm?$AAs?$AA?$AA@ 000000018004e148     libucrt:lcidtoname_downlevel.obj
 0002:0000d150       ??_C@_15MACJNBMH@?$AAk?$AAk?$AA?$AA@ 000000018004e150     libucrt:lcidtoname_downlevel.obj
 0002:0000d158       ??_C@_15DKDJEOND@?$AAk?$AAy?$AA?$AA@ 000000018004e158     libucrt:lcidtoname_downlevel.obj
 0002:0000d160       ??_C@_15DFGDLJBG@?$AAs?$AAw?$AA?$AA@ 000000018004e160     libucrt:lcidtoname_downlevel.obj
 0002:0000d168       ??_C@_15BBFAICNG@?$AAu?$AAz?$AA?$AA@ 000000018004e168     libucrt:lcidtoname_downlevel.obj
 0002:0000d170       ??_C@_15DKNDCGEA@?$AAt?$AAt?$AA?$AA@ 000000018004e170     libucrt:lcidtoname_downlevel.obj
 0002:0000d178       ??_C@_15MGIFMDPL@?$AAp?$AAa?$AA?$AA@ 000000018004e178     libucrt:lcidtoname_downlevel.obj
 0002:0000d180       ??_C@_15HCNDBBA@?$AAg?$AAu?$AA?$AA@ 000000018004e180     libucrt:lcidtoname_downlevel.obj
 0002:0000d188       ??_C@_15FNBEIBON@?$AAt?$AAa?$AA?$AA@ 000000018004e188     libucrt:lcidtoname_downlevel.obj
 0002:0000d190       ??_C@_15NCHGBGLK@?$AAt?$AAe?$AA?$AA@ 000000018004e190     libucrt:lcidtoname_downlevel.obj
 0002:0000d198       ??_C@_15PHPHCBPF@?$AAk?$AAn?$AA?$AA@ 000000018004e198     libucrt:lcidtoname_downlevel.obj
 0002:0000d1a0       ??_C@_15DLGBCKMP@?$AAm?$AAr?$AA?$AA@ 000000018004e1a0     libucrt:lcidtoname_downlevel.obj
 0002:0000d1a8       ??_C@_15EABBLBFF@?$AAs?$AAa?$AA?$AA@ 000000018004e1a8     libucrt:lcidtoname_downlevel.obj
 0002:0000d1b0       ??_C@_15CBKOMCOI@?$AAm?$AAn?$AA?$AA@ 000000018004e1b0     libucrt:lcidtoname_downlevel.obj
 0002:0000d1b8       ??_C@_15CKDMCJAF@?$AAg?$AAl?$AA?$AA@ 000000018004e1b8     libucrt:lcidtoname_downlevel.obj
 0002:0000d1c0       ??_C@_17CNJFBPG@?$AAk?$AAo?$AAk?$AA?$AA@ 000000018004e1c0     libucrt:lcidtoname_downlevel.obj
 0002:0000d1c8       ??_C@_17FFBJICPL@?$AAs?$AAy?$AAr?$AA?$AA@ 000000018004e1c8     libucrt:lcidtoname_downlevel.obj
 0002:0000d1d0       ??_C@_17KPNDCPAF@?$AAd?$AAi?$AAv?$AA?$AA@ 000000018004e1d0     libucrt:lcidtoname_downlevel.obj
 0002:0000d1d8       ??_C@_11LOCGONAA@?$AA?$AA@ 000000018004e1d8     libucrt:lcidtoname_downlevel.obj
 0002:0000d1e0       ??_C@_1M@OKAHONE@?$AAa?$AAr?$AA?9?$AAS?$AAA?$AA?$AA@ 000000018004e1e0     libucrt:lcidtoname_downlevel.obj
 0002:0000d1f0       ??_C@_1M@FFFIGIGK@?$AAb?$AAg?$AA?9?$AAB?$AAG?$AA?$AA@ 000000018004e1f0     libucrt:lcidtoname_downlevel.obj
 0002:0000d200       ??_C@_1M@BJNKEDC@?$AAc?$AAa?$AA?9?$AAE?$AAS?$AA?$AA@ 000000018004e200     libucrt:lcidtoname_downlevel.obj
 0002:0000d210       ??_C@_1M@IJJHFJHA@?$AAc?$AAs?$AA?9?$AAC?$AAZ?$AA?$AA@ 000000018004e210     libucrt:lcidtoname_downlevel.obj
 0002:0000d220       ??_C@_1M@CLPEOBGI@?$AAd?$AAa?$AA?9?$AAD?$AAK?$AA?$AA@ 000000018004e220     libucrt:lcidtoname_downlevel.obj
 0002:0000d230       ??_C@_1M@MCMADGCB@?$AAd?$AAe?$AA?9?$AAD?$AAE?$AA?$AA@ 000000018004e230     libucrt:lcidtoname_downlevel.obj
 0002:0000d240       ??_C@_1M@OOCKEMAM@?$AAe?$AAl?$AA?9?$AAG?$AAR?$AA?$AA@ 000000018004e240     libucrt:lcidtoname_downlevel.obj
 0002:0000d250       ??_C@_1M@DDNJFGID@?$AAf?$AAi?$AA?9?$AAF?$AAI?$AA?$AA@ 000000018004e250     libucrt:lcidtoname_downlevel.obj
 0002:0000d260       ??_C@_1M@GLIPPMAC@?$AAf?$AAr?$AA?9?$AAF?$AAR?$AA?$AA@ 000000018004e260     libucrt:lcidtoname_downlevel.obj
 0002:0000d270       ??_C@_1M@GFMCHPE@?$AAh?$AAe?$AA?9?$AAI?$AAL?$AA?$AA@ 000000018004e270     libucrt:lcidtoname_downlevel.obj
 0002:0000d280       ??_C@_1M@MHLPGNKM@?$AAh?$AAu?$AA?9?$AAH?$AAU?$AA?$AA@ 000000018004e280     libucrt:lcidtoname_downlevel.obj
 0002:0000d290       ??_C@_1M@LPDDNNPN@?$AAi?$AAs?$AA?9?$AAI?$AAS?$AA?$AA@ 000000018004e290     libucrt:lcidtoname_downlevel.obj
 0002:0000d2a0       ??_C@_1M@MADIPODN@?$AAi?$AAt?$AA?9?$AAI?$AAT?$AA?$AA@ 000000018004e2a0     libucrt:lcidtoname_downlevel.obj
 0002:0000d2b0       ??_C@_1M@IHBJJGG@?$AAn?$AAl?$AA?9?$AAN?$AAL?$AA?$AA@ 000000018004e2b0     libucrt:lcidtoname_downlevel.obj
 0002:0000d2c0       ??_C@_1M@EANAGDL@?$AAn?$AAb?$AA?9?$AAN?$AAO?$AA?$AA@ 000000018004e2c0     libucrt:lcidtoname_downlevel.obj
 0002:0000d2d0       ??_C@_1M@NEIEMEGP@?$AAp?$AAl?$AA?9?$AAP?$AAL?$AA?$AA@ 000000018004e2d0     libucrt:lcidtoname_downlevel.obj
 0002:0000d2e0       ??_C@_1M@BOCFIGEP@?$AAp?$AAt?$AA?9?$AAB?$AAR?$AA?$AA@ 000000018004e2e0     libucrt:lcidtoname_downlevel.obj
 0002:0000d2f0       ??_C@_1M@IMPFOPBG@?$AAr?$AAo?$AA?9?$AAR?$AAO?$AA?$AA@ 000000018004e2f0     libucrt:lcidtoname_downlevel.obj
 0002:0000d300       ??_C@_1M@IDNNEJMM@?$AAr?$AAu?$AA?9?$AAR?$AAU?$AA?$AA@ 000000018004e300     libucrt:lcidtoname_downlevel.obj
 0002:0000d310       ??_C@_1M@LILEEOGM@?$AAh?$AAr?$AA?9?$AAH?$AAR?$AA?$AA@ 000000018004e310     libucrt:lcidtoname_downlevel.obj
 0002:0000d320       ??_C@_1M@FKIFEHPB@?$AAs?$AAk?$AA?9?$AAS?$AAK?$AA?$AA@ 000000018004e320     libucrt:lcidtoname_downlevel.obj
 0002:0000d330       ??_C@_1M@LJMAMNPJ@?$AAs?$AAq?$AA?9?$AAA?$AAL?$AA?$AA@ 000000018004e330     libucrt:lcidtoname_downlevel.obj
 0002:0000d340       ??_C@_1M@GIAKDKJK@?$AAs?$AAv?$AA?9?$AAS?$AAE?$AA?$AA@ 000000018004e340     libucrt:lcidtoname_downlevel.obj
 0002:0000d350       ??_C@_1M@MKJKIKCL@?$AAt?$AAh?$AA?9?$AAT?$AAH?$AA?$AA@ 000000018004e350     libucrt:lcidtoname_downlevel.obj
 0002:0000d360       ??_C@_1M@MFLCCMPB@?$AAt?$AAr?$AA?9?$AAT?$AAR?$AA?$AA@ 000000018004e360     libucrt:lcidtoname_downlevel.obj
 0002:0000d370       ??_C@_1M@OIJHDKJN@?$AAu?$AAr?$AA?9?$AAP?$AAK?$AA?$AA@ 000000018004e370     libucrt:lcidtoname_downlevel.obj
 0002:0000d380       ??_C@_1M@LHIPCIEK@?$AAi?$AAd?$AA?9?$AAI?$AAD?$AA?$AA@ 000000018004e380     libucrt:lcidtoname_downlevel.obj
 0002:0000d390       ??_C@_1M@MFMOBGI@?$AAu?$AAk?$AA?9?$AAU?$AAA?$AA?$AA@ 000000018004e390     libucrt:lcidtoname_downlevel.obj
 0002:0000d3a0       ??_C@_1M@OBGLJIPL@?$AAb?$AAe?$AA?9?$AAB?$AAY?$AA?$AA@ 000000018004e3a0     libucrt:lcidtoname_downlevel.obj
 0002:0000d3b0       ??_C@_1M@BCFAJEAD@?$AAs?$AAl?$AA?9?$AAS?$AAI?$AA?$AA@ 000000018004e3b0     libucrt:lcidtoname_downlevel.obj
 0002:0000d3c0       ??_C@_1M@FKFFEDDN@?$AAe?$AAt?$AA?9?$AAE?$AAE?$AA?$AA@ 000000018004e3c0     libucrt:lcidtoname_downlevel.obj
 0002:0000d3d0       ??_C@_1M@KGKKAACI@?$AAl?$AAv?$AA?9?$AAL?$AAV?$AA?$AA@ 000000018004e3d0     libucrt:lcidtoname_downlevel.obj
 0002:0000d3e0       ??_C@_1M@IFGBIJO@?$AAl?$AAt?$AA?9?$AAL?$AAT?$AA?$AA@ 000000018004e3e0     libucrt:lcidtoname_downlevel.obj
 0002:0000d3f0       ??_C@_1M@FGEAHEDM@?$AAf?$AAa?$AA?9?$AAI?$AAR?$AA?$AA@ 000000018004e3f0     libucrt:lcidtoname_downlevel.obj
 0002:0000d400       ??_C@_1M@KBMAIBFN@?$AAv?$AAi?$AA?9?$AAV?$AAN?$AA?$AA@ 000000018004e400     libucrt:lcidtoname_downlevel.obj
 0002:0000d410       ??_C@_1M@GPCBKDJK@?$AAh?$AAy?$AA?9?$AAA?$AAM?$AA?$AA@ 000000018004e410     libucrt:lcidtoname_downlevel.obj
 0002:0000d420       ??_C@_1BG@BECMDDJB@?$AAa?$AAz?$AA?9?$AAA?$AAZ?$AA?9?$AAL?$AAa?$AAt?$AAn?$AA?$AA@ 000000018004e420     libucrt:lcidtoname_downlevel.obj
 0002:0000d438       ??_C@_1M@MAOFCAEA@?$AAe?$AAu?$AA?9?$AAE?$AAS?$AA?$AA@ 000000018004e438     libucrt:lcidtoname_downlevel.obj
 0002:0000d448       ??_C@_1M@IGHABKPI@?$AAm?$AAk?$AA?9?$AAM?$AAK?$AA?$AA@ 000000018004e448     libucrt:lcidtoname_downlevel.obj
 0002:0000d458       ??_C@_1M@IAIGNEJG@?$AAt?$AAn?$AA?9?$AAZ?$AAA?$AA?$AA@ 000000018004e458     libucrt:lcidtoname_downlevel.obj
 0002:0000d468       ??_C@_1M@IIJCOJFA@?$AAx?$AAh?$AA?9?$AAZ?$AAA?$AA?$AA@ 000000018004e468     libucrt:lcidtoname_downlevel.obj
 0002:0000d478       ??_C@_1M@LGPJHNJH@?$AAz?$AAu?$AA?9?$AAZ?$AAA?$AA?$AA@ 000000018004e478     libucrt:lcidtoname_downlevel.obj
 0002:0000d488       ??_C@_1M@HOKAOIO@?$AAa?$AAf?$AA?9?$AAZ?$AAA?$AA?$AA@ 000000018004e488     libucrt:lcidtoname_downlevel.obj
 0002:0000d498       ??_C@_1M@DPCLHLIE@?$AAk?$AAa?$AA?9?$AAG?$AAE?$AA?$AA@ 000000018004e498     libucrt:lcidtoname_downlevel.obj
 0002:0000d4a8       ??_C@_1M@BLKMHJBI@?$AAf?$AAo?$AA?9?$AAF?$AAO?$AA?$AA@ 000000018004e4a8     libucrt:lcidtoname_downlevel.obj
 0002:0000d4b8       ??_C@_1M@LGGJAPPB@?$AAh?$AAi?$AA?9?$AAI?$AAN?$AA?$AA@ 000000018004e4b8     libucrt:lcidtoname_downlevel.obj
 0002:0000d4c8       ??_C@_1M@FIKPIHFE@?$AAm?$AAt?$AA?9?$AAM?$AAT?$AA?$AA@ 000000018004e4c8     libucrt:lcidtoname_downlevel.obj
 0002:0000d4d8       ??_C@_1M@HEGGPBFA@?$AAs?$AAe?$AA?9?$AAN?$AAO?$AA?$AA@ 000000018004e4d8     libucrt:lcidtoname_downlevel.obj
 0002:0000d4e8       ??_C@_1M@EIBJEEPA@?$AAm?$AAs?$AA?9?$AAM?$AAY?$AA?$AA@ 000000018004e4e8     libucrt:lcidtoname_downlevel.obj
 0002:0000d4f8       ??_C@_1M@FHLBGMPP@?$AAk?$AAk?$AA?9?$AAK?$AAZ?$AA?$AA@ 000000018004e4f8     libucrt:lcidtoname_downlevel.obj
 0002:0000d508       ??_C@_1M@NGJJLCGI@?$AAk?$AAy?$AA?9?$AAK?$AAG?$AA?$AA@ 000000018004e508     libucrt:lcidtoname_downlevel.obj
 0002:0000d518       ??_C@_1M@GIENNBFC@?$AAs?$AAw?$AA?9?$AAK?$AAE?$AA?$AA@ 000000018004e518     libucrt:lcidtoname_downlevel.obj
 0002:0000d528       ??_C@_1BG@NDGMJIMJ@?$AAu?$AAz?$AA?9?$AAU?$AAZ?$AA?9?$AAL?$AAa?$AAt?$AAn?$AA?$AA@ 000000018004e528     libucrt:lcidtoname_downlevel.obj
 0002:0000d540       ??_C@_1M@IDCCIHBC@?$AAt?$AAt?$AA?9?$AAR?$AAU?$AA?$AA@ 000000018004e540     libucrt:lcidtoname_downlevel.obj
 0002:0000d550       ??_C@_1M@LOICPMOJ@?$AAb?$AAn?$AA?9?$AAI?$AAN?$AA?$AA@ 000000018004e550     libucrt:lcidtoname_downlevel.obj
 0002:0000d560       ??_C@_1M@KPKKNEAH@?$AAp?$AAa?$AA?9?$AAI?$AAN?$AA?$AA@ 000000018004e560     libucrt:lcidtoname_downlevel.obj
 0002:0000d570       ??_C@_1M@PJGPPBOG@?$AAg?$AAu?$AA?9?$AAI?$AAN?$AA?$AA@ 000000018004e570     libucrt:lcidtoname_downlevel.obj
 0002:0000d580       ??_C@_1M@KMKMOPHI@?$AAt?$AAa?$AA?9?$AAI?$AAN?$AA?$AA@ 000000018004e580     libucrt:lcidtoname_downlevel.obj
 0002:0000d590       ??_C@_1M@KFEHEPAC@?$AAt?$AAe?$AA?9?$AAI?$AAN?$AA?$AA@ 000000018004e590     libucrt:lcidtoname_downlevel.obj
 0002:0000d5a0       ??_C@_1M@CDCLMGHI@?$AAk?$AAn?$AA?9?$AAI?$AAN?$AA?$AA@ 000000018004e5a0     libucrt:lcidtoname_downlevel.obj
 0002:0000d5b0       ??_C@_1M@MIODLDKF@?$AAm?$AAl?$AA?9?$AAI?$AAN?$AA?$AA@ 000000018004e5b0     libucrt:lcidtoname_downlevel.obj
 0002:0000d5c0       ??_C@_1M@PBIEACPO@?$AAm?$AAr?$AA?9?$AAI?$AAN?$AA?$AA@ 000000018004e5c0     libucrt:lcidtoname_downlevel.obj
 0002:0000d5d0       ??_C@_1M@NIDEAGPH@?$AAs?$AAa?$AA?9?$AAI?$AAN?$AA?$AA@ 000000018004e5d0     libucrt:lcidtoname_downlevel.obj
 0002:0000d5e0       ??_C@_1M@FHIHCBIO@?$AAm?$AAn?$AA?9?$AAM?$AAN?$AA?$AA@ 000000018004e5e0     libucrt:lcidtoname_downlevel.obj
 0002:0000d5f0       ??_C@_1M@JAIJPENP@?$AAc?$AAy?$AA?9?$AAG?$AAB?$AA?$AA@ 000000018004e5f0     libucrt:lcidtoname_downlevel.obj
 0002:0000d600       ??_C@_1M@PHGFBEPN@?$AAg?$AAl?$AA?9?$AAE?$AAS?$AA?$AA@ 000000018004e600     libucrt:lcidtoname_downlevel.obj
 0002:0000d610       ??_C@_1O@KPIPDNCP@?$AAk?$AAo?$AAk?$AA?9?$AAI?$AAN?$AA?$AA@ 000000018004e610     libucrt:lcidtoname_downlevel.obj
 0002:0000d620       ??_C@_1O@KNHJLDJA@?$AAs?$AAy?$AAr?$AA?9?$AAS?$AAY?$AA?$AA@ 000000018004e620     libucrt:lcidtoname_downlevel.obj
 0002:0000d630       ??_C@_1O@MKEKBLAH@?$AAd?$AAi?$AAv?$AA?9?$AAM?$AAV?$AA?$AA@ 000000018004e630     libucrt:lcidtoname_downlevel.obj
 0002:0000d640       ??_C@_1O@OHDCKDDF@?$AAq?$AAu?$AAz?$AA?9?$AAB?$AAO?$AA?$AA@ 000000018004e640     libucrt:lcidtoname_downlevel.obj
 0002:0000d650       ??_C@_1M@LEPJNLFD@?$AAn?$AAs?$AA?9?$AAZ?$AAA?$AA?$AA@ 000000018004e650     libucrt:lcidtoname_downlevel.obj
 0002:0000d660       ??_C@_1M@OMLEIIJB@?$AAm?$AAi?$AA?9?$AAN?$AAZ?$AA?$AA@ 000000018004e660     libucrt:lcidtoname_downlevel.obj
 0002:0000d670       ??_C@_1M@PMPEAILG@?$AAa?$AAr?$AA?9?$AAI?$AAQ?$AA?$AA@ 000000018004e670     libucrt:lcidtoname_downlevel.obj
 0002:0000d680       ??_C@_1M@CNKPNOEE@?$AAd?$AAe?$AA?9?$AAC?$AAH?$AA?$AA@ 000000018004e680     libucrt:lcidtoname_downlevel.obj
 0002:0000d690       ??_C@_1M@LKMGMLKO@?$AAe?$AAn?$AA?9?$AAG?$AAB?$AA?$AA@ 000000018004e690     libucrt:lcidtoname_downlevel.obj
 0002:0000d6a0       ??_C@_1M@PGKJFFGL@?$AAe?$AAs?$AA?9?$AAM?$AAX?$AA?$AA@ 000000018004e6a0     libucrt:lcidtoname_downlevel.obj
 0002:0000d6b0       ??_C@_1M@DNNANBDC@?$AAf?$AAr?$AA?9?$AAB?$AAE?$AA?$AA@ 000000018004e6b0     libucrt:lcidtoname_downlevel.obj
 0002:0000d6c0       ??_C@_1M@HLGMDFHM@?$AAi?$AAt?$AA?9?$AAC?$AAH?$AA?$AA@ 000000018004e6c0     libucrt:lcidtoname_downlevel.obj
 0002:0000d6d0       ??_C@_1M@CLLBGJH@?$AAn?$AAl?$AA?9?$AAB?$AAE?$AA?$AA@ 000000018004e6d0     libucrt:lcidtoname_downlevel.obj
 0002:0000d6e0       ??_C@_1M@BODBOGLF@?$AAn?$AAn?$AA?9?$AAN?$AAO?$AA?$AA@ 000000018004e6e0     libucrt:lcidtoname_downlevel.obj
 0002:0000d6f0       ??_C@_1M@HFFAHKAD@?$AAp?$AAt?$AA?9?$AAP?$AAT?$AA?$AA@ 000000018004e6f0     libucrt:lcidtoname_downlevel.obj
 0002:0000d700       ??_C@_1BG@LNOAKHIE@?$AAs?$AAr?$AA?9?$AAS?$AAP?$AA?9?$AAL?$AAa?$AAt?$AAn?$AA?$AA@ 000000018004e700     libucrt:lcidtoname_downlevel.obj
 0002:0000d718       ??_C@_1M@HBMHBGAK@?$AAs?$AAv?$AA?9?$AAF?$AAI?$AA?$AA@ 000000018004e718     libucrt:lcidtoname_downlevel.obj
 0002:0000d728       ??_C@_1BG@DGCJGJBE@?$AAa?$AAz?$AA?9?$AAA?$AAZ?$AA?9?$AAC?$AAy?$AAr?$AAl?$AA?$AA@ 000000018004e728     libucrt:lcidtoname_downlevel.obj
 0002:0000d740       ??_C@_1M@KEJDAAHB@?$AAs?$AAe?$AA?9?$AAS?$AAE?$AA?$AA@ 000000018004e740     libucrt:lcidtoname_downlevel.obj
 0002:0000d750       ??_C@_1M@HEIBJJAD@?$AAm?$AAs?$AA?9?$AAB?$AAN?$AA?$AA@ 000000018004e750     libucrt:lcidtoname_downlevel.obj
 0002:0000d760       ??_C@_1BG@PBGJMCEM@?$AAu?$AAz?$AA?9?$AAU?$AAZ?$AA?9?$AAC?$AAy?$AAr?$AAl?$AA?$AA@ 000000018004e760     libucrt:lcidtoname_downlevel.obj
 0002:0000d778       ??_C@_1O@LAOBCMDF@?$AAq?$AAu?$AAz?$AA?9?$AAE?$AAC?$AA?$AA@ 000000018004e778     libucrt:lcidtoname_downlevel.obj
 0002:0000d788       ??_C@_1M@POEEMAIO@?$AAa?$AAr?$AA?9?$AAE?$AAG?$AA?$AA@ 000000018004e788     libucrt:lcidtoname_downlevel.obj
 0002:0000d798       ??_C@_1M@EFAKDEDL@?$AAz?$AAh?$AA?9?$AAH?$AAK?$AA?$AA@ 000000018004e798     libucrt:lcidtoname_downlevel.obj
 0002:0000d7a8       ??_C@_1M@HKKIJHGI@?$AAd?$AAe?$AA?9?$AAA?$AAT?$AA?$AA@ 000000018004e7a8     libucrt:lcidtoname_downlevel.obj
 0002:0000d7b8       ??_C@_1M@KBFBEHJF@?$AAe?$AAn?$AA?9?$AAA?$AAU?$AA?$AA@ 000000018004e7b8     libucrt:lcidtoname_downlevel.obj
 0002:0000d7c8       ??_C@_1M@MNPLFAAH@?$AAe?$AAs?$AA?9?$AAE?$AAS?$AA?$AA@ 000000018004e7c8     libucrt:lcidtoname_downlevel.obj
 0002:0000d7d8       ??_C@_1M@HJOOJFMA@?$AAf?$AAr?$AA?9?$AAC?$AAA?$AA?$AA@ 000000018004e7d8     libucrt:lcidtoname_downlevel.obj
 0002:0000d7e8       ??_C@_1BG@JPOFPNAB@?$AAs?$AAr?$AA?9?$AAS?$AAP?$AA?9?$AAC?$AAy?$AAr?$AAl?$AA?$AA@ 000000018004e7e8     libucrt:lcidtoname_downlevel.obj
 0002:0000d800       ??_C@_1M@LNFOCMOB@?$AAs?$AAe?$AA?9?$AAF?$AAI?$AA?$AA@ 000000018004e800     libucrt:lcidtoname_downlevel.obj
 0002:0000d810       ??_C@_1O@MGJBOAMB@?$AAq?$AAu?$AAz?$AA?9?$AAP?$AAE?$AA?$AA@ 000000018004e810     libucrt:lcidtoname_downlevel.obj
 0002:0000d820       ??_C@_1M@GJINLBOK@?$AAa?$AAr?$AA?9?$AAL?$AAY?$AA?$AA@ 000000018004e820     libucrt:lcidtoname_downlevel.obj
 0002:0000d830       ??_C@_1M@GGMNHJNL@?$AAz?$AAh?$AA?9?$AAS?$AAG?$AA?$AA@ 000000018004e830     libucrt:lcidtoname_downlevel.obj
 0002:0000d840       ??_C@_1M@HOIKODND@?$AAd?$AAe?$AA?9?$AAL?$AAU?$AA?$AA@ 000000018004e840     libucrt:lcidtoname_downlevel.obj
 0002:0000d850       ??_C@_1M@DDOCCGFG@?$AAe?$AAn?$AA?9?$AAC?$AAA?$AA?$AA@ 000000018004e850     libucrt:lcidtoname_downlevel.obj
 0002:0000d860       ??_C@_1M@BNOEMJLF@?$AAe?$AAs?$AA?9?$AAG?$AAT?$AA?$AA@ 000000018004e860     libucrt:lcidtoname_downlevel.obj
 0002:0000d870       ??_C@_1M@EOGNKEK@?$AAf?$AAr?$AA?9?$AAC?$AAH?$AA?$AA@ 000000018004e870     libucrt:lcidtoname_downlevel.obj
 0002:0000d880       ??_C@_1M@FLIDJFHL@?$AAh?$AAr?$AA?9?$AAB?$AAA?$AA?$AA@ 000000018004e880     libucrt:lcidtoname_downlevel.obj
 0002:0000d890       ??_C@_1O@FMCELNAJ@?$AAs?$AAm?$AAj?$AA?9?$AAN?$AAO?$AA?$AA@ 000000018004e890     libucrt:lcidtoname_downlevel.obj
 0002:0000d8a0       ??_C@_1M@JHGLJMGJ@?$AAa?$AAr?$AA?9?$AAD?$AAZ?$AA?$AA@ 000000018004e8a0     libucrt:lcidtoname_downlevel.obj
 0002:0000d8b0       ??_C@_1M@JKKFDCNP@?$AAz?$AAh?$AA?9?$AAM?$AAO?$AA?$AA@ 000000018004e8b0     libucrt:lcidtoname_downlevel.obj
 0002:0000d8c0       ??_C@_1M@GEEFALPE@?$AAd?$AAe?$AA?9?$AAL?$AAI?$AA?$AA@ 000000018004e8c0     libucrt:lcidtoname_downlevel.obj
 0002:0000d8d0       ??_C@_1M@IGEOFBG@?$AAe?$AAn?$AA?9?$AAN?$AAZ?$AA?$AA@ 000000018004e8d0     libucrt:lcidtoname_downlevel.obj
 0002:0000d8e0       ??_C@_1M@KDBONEHP@?$AAe?$AAs?$AA?9?$AAC?$AAR?$AA?$AA@ 000000018004e8e0     libucrt:lcidtoname_downlevel.obj
 0002:0000d8f0       ??_C@_1M@FHMDOHNN@?$AAf?$AAr?$AA?9?$AAL?$AAU?$AA?$AA@ 000000018004e8f0     libucrt:lcidtoname_downlevel.obj
 0002:0000d900       ??_C@_1BG@NFKKMAFG@?$AAb?$AAs?$AA?9?$AAB?$AAA?$AA?9?$AAL?$AAa?$AAt?$AAn?$AA?$AA@ 000000018004e900     libucrt:lcidtoname_downlevel.obj
 0002:0000d918       ??_C@_1O@IMNBEMCI@?$AAs?$AAm?$AAj?$AA?9?$AAS?$AAE?$AA?$AA@ 000000018004e918     libucrt:lcidtoname_downlevel.obj
 0002:0000d928       ??_C@_1M@DHHMBNDP@?$AAa?$AAr?$AA?9?$AAM?$AAA?$AA?$AA@ 000000018004e928     libucrt:lcidtoname_downlevel.obj
 0002:0000d938       ??_C@_1M@BNBLJCGH@?$AAe?$AAn?$AA?9?$AAI?$AAE?$AA?$AA@ 000000018004e938     libucrt:lcidtoname_downlevel.obj
 0002:0000d948       ??_C@_1M@GEPAFMDL@?$AAe?$AAs?$AA?9?$AAP?$AAA?$AA?$AA@ 000000018004e948     libucrt:lcidtoname_downlevel.obj
 0002:0000d958       ??_C@_1M@OJONDMDL@?$AAf?$AAr?$AA?9?$AAM?$AAC?$AA?$AA@ 000000018004e958     libucrt:lcidtoname_downlevel.obj
 0002:0000d968       ??_C@_1BG@OBCNFJB@?$AAs?$AAr?$AA?9?$AAB?$AAA?$AA?9?$AAL?$AAa?$AAt?$AAn?$AA?$AA@ 000000018004e968     libucrt:lcidtoname_downlevel.obj
 0002:0000d980       ??_C@_1O@KEMEEGPO@?$AAs?$AAm?$AAa?$AA?9?$AAN?$AAO?$AA?$AA@ 000000018004e980     libucrt:lcidtoname_downlevel.obj
 0002:0000d990       ??_C@_1M@ELMGFODK@?$AAa?$AAr?$AA?9?$AAT?$AAN?$AA?$AA@ 000000018004e990     libucrt:lcidtoname_downlevel.obj
 0002:0000d9a0       ??_C@_1M@BHDLHFAF@?$AAe?$AAn?$AA?9?$AAZ?$AAA?$AA?$AA@ 000000018004e9a0     libucrt:lcidtoname_downlevel.obj
 0002:0000d9b0       ??_C@_1M@BMGIGLIF@?$AAe?$AAs?$AA?9?$AAD?$AAO?$AA?$AA@ 000000018004e9b0     libucrt:lcidtoname_downlevel.obj
 0002:0000d9c0       ??_C@_1BG@CMBHIPBE@?$AAs?$AAr?$AA?9?$AAB?$AAA?$AA?9?$AAC?$AAy?$AAr?$AAl?$AA?$AA@ 000000018004e9c0     libucrt:lcidtoname_downlevel.obj
 0002:0000d9d8       ??_C@_1O@HEDBLHNP@?$AAs?$AAm?$AAa?$AA?9?$AAS?$AAE?$AA?$AA@ 000000018004e9d8     libucrt:lcidtoname_downlevel.obj
 0002:0000d9e8       ??_C@_1M@DAGCADIM@?$AAa?$AAr?$AA?9?$AAO?$AAM?$AA?$AA@ 000000018004e9e8     libucrt:lcidtoname_downlevel.obj
 0002:0000d9f8       ??_C@_1M@FODLMICG@?$AAe?$AAn?$AA?9?$AAJ?$AAM?$AA?$AA@ 000000018004e9f8     libucrt:lcidtoname_downlevel.obj
 0002:0000da08       ??_C@_1M@DNMLCIHB@?$AAe?$AAs?$AA?9?$AAV?$AAE?$AA?$AA@ 000000018004ea08     libucrt:lcidtoname_downlevel.obj
 0002:0000da18       ??_C@_1O@EOKHMKJK@?$AAs?$AAm?$AAs?$AA?9?$AAF?$AAI?$AA?$AA@ 000000018004ea18     libucrt:lcidtoname_downlevel.obj
 0002:0000da28       ??_C@_1M@CAFJMKOF@?$AAa?$AAr?$AA?9?$AAY?$AAE?$AA?$AA@ 000000018004ea28     libucrt:lcidtoname_downlevel.obj
 0002:0000da38       ??_C@_1M@CBFHIJLI@?$AAe?$AAn?$AA?9?$AAC?$AAB?$AA?$AA@ 000000018004ea38     libucrt:lcidtoname_downlevel.obj
 0002:0000da48       ??_C@_1M@BGNFLDN@?$AAe?$AAs?$AA?9?$AAC?$AAO?$AA?$AA@ 000000018004ea48     libucrt:lcidtoname_downlevel.obj
 0002:0000da58       ??_C@_1O@JMPHMAMC@?$AAs?$AAm?$AAn?$AA?9?$AAF?$AAI?$AA?$AA@ 000000018004ea58     libucrt:lcidtoname_downlevel.obj
 0002:0000da68       ??_C@_1M@JLANABKE@?$AAa?$AAr?$AA?9?$AAS?$AAY?$AA?$AA@ 000000018004ea68     libucrt:lcidtoname_downlevel.obj
 0002:0000da78       ??_C@_1M@HPKGCFGN@?$AAe?$AAn?$AA?9?$AAB?$AAZ?$AA?$AA@ 000000018004ea78     libucrt:lcidtoname_downlevel.obj
 0002:0000da88       ??_C@_1M@OLJCMLGM@?$AAe?$AAs?$AA?9?$AAP?$AAE?$AA?$AA@ 000000018004ea88     libucrt:lcidtoname_downlevel.obj
 0002:0000da98       ??_C@_1M@MKKGFKLE@?$AAa?$AAr?$AA?9?$AAJ?$AAO?$AA?$AA@ 000000018004ea98     libucrt:lcidtoname_downlevel.obj
 0002:0000daa8       ??_C@_1M@EKPGLDNI@?$AAe?$AAn?$AA?9?$AAT?$AAT?$AA?$AA@ 000000018004eaa8     libucrt:lcidtoname_downlevel.obj
 0002:0000dab8       ??_C@_1M@OONGHFHE@?$AAe?$AAs?$AA?9?$AAA?$AAR?$AA?$AA@ 000000018004eab8     libucrt:lcidtoname_downlevel.obj
 0002:0000dac8       ??_C@_1M@OOJFGBHE@?$AAa?$AAr?$AA?9?$AAL?$AAB?$AA?$AA@ 000000018004eac8     libucrt:lcidtoname_downlevel.obj
 0002:0000dad8       ??_C@_1M@GCEJHNEG@?$AAe?$AAn?$AA?9?$AAZ?$AAW?$AA?$AA@ 000000018004ead8     libucrt:lcidtoname_downlevel.obj
 0002:0000dae8       ??_C@_1M@JNOCAHJI@?$AAe?$AAs?$AA?9?$AAE?$AAC?$AA?$AA@ 000000018004eae8     libucrt:lcidtoname_downlevel.obj
 0002:0000daf8       ??_C@_1M@JEFHPGGB@?$AAa?$AAr?$AA?9?$AAK?$AAW?$AA?$AA@ 000000018004eaf8     libucrt:lcidtoname_downlevel.obj
 0002:0000db08       ??_C@_1M@MLKIBJOJ@?$AAe?$AAn?$AA?9?$AAP?$AAH?$AA?$AA@ 000000018004eb08     libucrt:lcidtoname_downlevel.obj
 0002:0000db18       ??_C@_1M@BDNIPEND@?$AAe?$AAs?$AA?9?$AAC?$AAL?$AA?$AA@ 000000018004eb18     libucrt:lcidtoname_downlevel.obj
 0002:0000db28       ??_C@_1M@MPNMEKBD@?$AAa?$AAr?$AA?9?$AAA?$AAE?$AA?$AA@ 000000018004eb28     libucrt:lcidtoname_downlevel.obj
 0002:0000db38       ??_C@_1M@KBJALCPI@?$AAe?$AAs?$AA?9?$AAU?$AAY?$AA?$AA@ 000000018004eb38     libucrt:lcidtoname_downlevel.obj
 0002:0000db48       ??_C@_1M@LLCCOAGA@?$AAa?$AAr?$AA?9?$AAB?$AAH?$AA?$AA@ 000000018004eb48     libucrt:lcidtoname_downlevel.obj
 0002:0000db58       ??_C@_1M@PBFNCDEL@?$AAe?$AAs?$AA?9?$AAP?$AAY?$AA?$AA@ 000000018004eb58     libucrt:lcidtoname_downlevel.obj
 0002:0000db68       ??_C@_1M@EDGINPNP@?$AAa?$AAr?$AA?9?$AAQ?$AAA?$AA?$AA@ 000000018004eb68     libucrt:lcidtoname_downlevel.obj
 0002:0000db78       ??_C@_1M@MKDBIIJI@?$AAe?$AAs?$AA?9?$AAB?$AAO?$AA?$AA@ 000000018004eb78     libucrt:lcidtoname_downlevel.obj
 0002:0000db88       ??_C@_1M@CPKKEBLD@?$AAe?$AAs?$AA?9?$AAS?$AAV?$AA?$AA@ 000000018004eb88     libucrt:lcidtoname_downlevel.obj
 0002:0000db98       ??_C@_1M@NDBGMMJL@?$AAe?$AAs?$AA?9?$AAH?$AAN?$AA?$AA@ 000000018004eb98     libucrt:lcidtoname_downlevel.obj
 0002:0000dba8       ??_C@_1M@JIJIBHDP@?$AAe?$AAs?$AA?9?$AAN?$AAI?$AA?$AA@ 000000018004eba8     libucrt:lcidtoname_downlevel.obj
 0002:0000dbb8       ??_C@_1M@CGFMKEEK@?$AAe?$AAs?$AA?9?$AAP?$AAR?$AA?$AA@ 000000018004ebb8     libucrt:lcidtoname_downlevel.obj
 0002:0000dbc8       ??_C@_1O@ICJHKIIK@?$AAz?$AAh?$AA?9?$AAC?$AAH?$AAT?$AA?$AA@ 000000018004ebc8     libucrt:lcidtoname_downlevel.obj
 0002:0000dbd8       ??_C@_15CLNEJCE@?$AAs?$AAr?$AA?$AA@ 000000018004ebd8     libucrt:lcidtoname_downlevel.obj
 0002:0000ea20       ??_C@_1M@KAHEKEIG@?$AAa?$AAf?$AA?9?$AAz?$AAa?$AA?$AA@ 000000018004fa20     libucrt:lcidtoname_downlevel.obj
 0002:0000ea30       ??_C@_1M@GIECOABL@?$AAa?$AAr?$AA?9?$AAa?$AAe?$AA?$AA@ 000000018004fa30     libucrt:lcidtoname_downlevel.obj
 0002:0000ea40       ??_C@_1M@BMLMEKGI@?$AAa?$AAr?$AA?9?$AAb?$AAh?$AA?$AA@ 000000018004fa40     libucrt:lcidtoname_downlevel.obj
 0002:0000ea50       ??_C@_1M@DAPFDGGB@?$AAa?$AAr?$AA?9?$AAd?$AAz?$AA?$AA@ 000000018004fa50     libucrt:lcidtoname_downlevel.obj
 0002:0000ea60       ??_C@_1M@FJNKGKIG@?$AAa?$AAr?$AA?9?$AAe?$AAg?$AA?$AA@ 000000018004fa60     libucrt:lcidtoname_downlevel.obj
 0002:0000ea70       ??_C@_1M@FLGKKCLO@?$AAa?$AAr?$AA?9?$AAi?$AAq?$AA?$AA@ 000000018004fa70     libucrt:lcidtoname_downlevel.obj
 0002:0000ea80       ??_C@_1M@GNDIPALM@?$AAa?$AAr?$AA?9?$AAj?$AAo?$AA?$AA@ 000000018004fa80     libucrt:lcidtoname_downlevel.obj
 0002:0000ea90       ??_C@_1M@DDMJFMGJ@?$AAa?$AAr?$AA?9?$AAk?$AAw?$AA?$AA@ 000000018004fa90     libucrt:lcidtoname_downlevel.obj
 0002:0000eaa0       ??_C@_1M@EJALMLHM@?$AAa?$AAr?$AA?9?$AAl?$AAb?$AA?$AA@ 000000018004faa0     libucrt:lcidtoname_downlevel.obj
 0002:0000eab0       ??_C@_1M@MOBDBLOC@?$AAa?$AAr?$AA?9?$AAl?$AAy?$AA?$AA@ 000000018004fab0     libucrt:lcidtoname_downlevel.obj
 0002:0000eac0       ??_C@_1M@JAOCLHDH@?$AAa?$AAr?$AA?9?$AAm?$AAa?$AA?$AA@ 000000018004fac0     libucrt:lcidtoname_downlevel.obj
 0002:0000ead0       ??_C@_1M@JHPMKJIE@?$AAa?$AAr?$AA?9?$AAo?$AAm?$AA?$AA@ 000000018004fad0     libucrt:lcidtoname_downlevel.obj
 0002:0000eae0       ??_C@_1M@OEPGHFNH@?$AAa?$AAr?$AA?9?$AAq?$AAa?$AA?$AA@ 000000018004fae0     libucrt:lcidtoname_downlevel.obj
 0002:0000eaf0       ??_C@_1M@KJDONENM@?$AAa?$AAr?$AA?9?$AAs?$AAa?$AA?$AA@ 000000018004faf0     libucrt:lcidtoname_downlevel.obj
 0002:0000eb00       ??_C@_1M@DMJDKLKM@?$AAa?$AAr?$AA?9?$AAs?$AAy?$AA?$AA@ 000000018004fb00     libucrt:lcidtoname_downlevel.obj
 0002:0000eb10       ??_C@_1M@OMFIPEDC@?$AAa?$AAr?$AA?9?$AAt?$AAn?$AA?$AA@ 000000018004fb10     libucrt:lcidtoname_downlevel.obj
 0002:0000eb20       ??_C@_1M@IHMHGAON@?$AAa?$AAr?$AA?9?$AAy?$AAe?$AA?$AA@ 000000018004fb20     libucrt:lcidtoname_downlevel.obj
 0002:0000eb30       ??_C@_1BG@KDCPGJGB@?$AAa?$AAz?$AA?9?$AAa?$AAz?$AA?9?$AAc?$AAy?$AAr?$AAl?$AA?$AA@ 000000018004fb30     libucrt:lcidtoname_downlevel.obj
 0002:0000eb48       ??_C@_1BG@IBCKDDOE@?$AAa?$AAz?$AA?9?$AAa?$AAz?$AA?9?$AAl?$AAa?$AAt?$AAn?$AA?$AA@ 000000018004fb48     libucrt:lcidtoname_downlevel.obj
 0002:0000eb60       ??_C@_1M@EGPFDCPD@?$AAb?$AAe?$AA?9?$AAb?$AAy?$AA?$AA@ 000000018004fb60     libucrt:lcidtoname_downlevel.obj
 0002:0000eb70       ??_C@_1M@PCMGMCGC@?$AAb?$AAg?$AA?9?$AAb?$AAg?$AA?$AA@ 000000018004fb70     libucrt:lcidtoname_downlevel.obj
 0002:0000eb80       ??_C@_1M@BJBMFGOB@?$AAb?$AAn?$AA?9?$AAi?$AAn?$AA?$AA@ 000000018004fb80     libucrt:lcidtoname_downlevel.obj
 0002:0000eb90       ??_C@_1BG@EAKMMACD@?$AAb?$AAs?$AA?9?$AAb?$AAa?$AA?9?$AAl?$AAa?$AAt?$AAn?$AA?$AA@ 000000018004fb90     libucrt:lcidtoname_downlevel.obj
 0002:0000eba8       ??_C@_1M@KGADAODK@?$AAc?$AAa?$AA?9?$AAe?$AAs?$AA?$AA@ 000000018004fba8     libucrt:lcidtoname_downlevel.obj
 0002:0000ebb8       ??_C@_1M@COAJPDHI@?$AAc?$AAs?$AA?9?$AAc?$AAz?$AA?$AA@ 000000018004fbb8     libucrt:lcidtoname_downlevel.obj
 0002:0000ebc8       ??_C@_1M@DHBHFONH@?$AAc?$AAy?$AA?9?$AAg?$AAb?$AA?$AA@ 000000018004fbc8     libucrt:lcidtoname_downlevel.obj
 0002:0000ebd8       ??_C@_1M@IMGKELGA@?$AAd?$AAa?$AA?9?$AAd?$AAk?$AA?$AA@ 000000018004fbd8     libucrt:lcidtoname_downlevel.obj
 0002:0000ebe8       ??_C@_1M@NNDGDNGA@?$AAd?$AAe?$AA?9?$AAa?$AAt?$AA?$AA@ 000000018004fbe8     libucrt:lcidtoname_downlevel.obj
 0002:0000ebf8       ??_C@_1M@IKDBHEEM@?$AAd?$AAe?$AA?9?$AAc?$AAh?$AA?$AA@ 000000018004fbf8     libucrt:lcidtoname_downlevel.obj
 0002:0000ec08       ??_C@_1M@GFFOJMCJ@?$AAd?$AAe?$AA?9?$AAd?$AAe?$AA?$AA@ 000000018004fc08     libucrt:lcidtoname_downlevel.obj
 0002:0000ec18       ??_C@_1M@MDNLKBPM@?$AAd?$AAe?$AA?9?$AAl?$AAi?$AA?$AA@ 000000018004fc18     libucrt:lcidtoname_downlevel.obj
 0002:0000ec28       ??_C@_1M@NJBEEJNL@?$AAd?$AAe?$AA?9?$AAl?$AAu?$AA?$AA@ 000000018004fc28     libucrt:lcidtoname_downlevel.obj
 0002:0000ec38       ??_C@_1O@GNNELBAP@?$AAd?$AAi?$AAv?$AA?9?$AAm?$AAv?$AA?$AA@ 000000018004fc38     libucrt:lcidtoname_downlevel.obj
 0002:0000ec48       ??_C@_1M@EJLEOGAE@?$AAe?$AAl?$AA?9?$AAg?$AAr?$AA?$AA@ 000000018004fc48     libucrt:lcidtoname_downlevel.obj
 0002:0000ec58       ??_C@_1M@GMPONJN@?$AAe?$AAn?$AA?9?$AAa?$AAu?$AA?$AA@ 000000018004fc58     libucrt:lcidtoname_downlevel.obj
 0002:0000ec68       ??_C@_1M@NIDIIPGF@?$AAe?$AAn?$AA?9?$AAb?$AAz?$AA?$AA@ 000000018004fc68     libucrt:lcidtoname_downlevel.obj
 0002:0000ec78       ??_C@_1M@JEHMIMFO@?$AAe?$AAn?$AA?9?$AAc?$AAa?$AA?$AA@ 000000018004fc78     libucrt:lcidtoname_downlevel.obj
 0002:0000ec88       ??_C@_1M@IGMJCDLA@?$AAe?$AAn?$AA?9?$AAc?$AAb?$AA?$AA@ 000000018004fc88     libucrt:lcidtoname_downlevel.obj
 0002:0000ec98       ??_C@_1M@BNFIGBKG@?$AAe?$AAn?$AA?9?$AAg?$AAb?$AA?$AA@ 000000018004fc98     libucrt:lcidtoname_downlevel.obj
 0002:0000eca8       ??_C@_1M@LKIFDIGP@?$AAe?$AAn?$AA?9?$AAi?$AAe?$AA?$AA@ 000000018004fca8     libucrt:lcidtoname_downlevel.obj
 0002:0000ecb8       ??_C@_1M@PJKFGCCO@?$AAe?$AAn?$AA?9?$AAj?$AAm?$AA?$AA@ 000000018004fcb8     libucrt:lcidtoname_downlevel.obj
 0002:0000ecc8       ??_C@_1M@KPPKEPBO@?$AAe?$AAn?$AA?9?$AAn?$AAz?$AA?$AA@ 000000018004fcc8     libucrt:lcidtoname_downlevel.obj
 0002:0000ecd8       ??_C@_1M@GMDGLDOB@?$AAe?$AAn?$AA?9?$AAp?$AAh?$AA?$AA@ 000000018004fcd8     libucrt:lcidtoname_downlevel.obj
 0002:0000ece8       ??_C@_1M@ONGIBJNA@?$AAe?$AAn?$AA?9?$AAt?$AAt?$AA?$AA@ 000000018004fce8     libucrt:lcidtoname_downlevel.obj
 0002:0000ecf8       ??_C@_1M@LLODPCMM@?$AAe?$AAn?$AA?9?$AAu?$AAs?$AA?$AA@ 000000018004fcf8     libucrt:lcidtoname_downlevel.obj
 0002:0000ed08       ??_C@_1M@LAKFNPAN@?$AAe?$AAn?$AA?9?$AAz?$AAa?$AA?$AA@ 000000018004fd08     libucrt:lcidtoname_downlevel.obj
 0002:0000ed18       ??_C@_1M@MFNHNHEO@?$AAe?$AAn?$AA?9?$AAz?$AAw?$AA?$AA@ 000000018004fd18     libucrt:lcidtoname_downlevel.obj
 0002:0000ed28       ??_C@_1M@EJEINPHM@?$AAe?$AAs?$AA?9?$AAa?$AAr?$AA?$AA@ 000000018004fd28     libucrt:lcidtoname_downlevel.obj
 0002:0000ed38       ??_C@_1M@GNKPCCJA@?$AAe?$AAs?$AA?9?$AAb?$AAo?$AA?$AA@ 000000018004fd38     libucrt:lcidtoname_downlevel.obj
 0002:0000ed48       ??_C@_1M@LEEGFONL@?$AAe?$AAs?$AA?9?$AAc?$AAl?$AA?$AA@ 000000018004fd48     libucrt:lcidtoname_downlevel.obj
 0002:0000ed58       ??_C@_1M@KGPDPBDF@?$AAe?$AAs?$AA?9?$AAc?$AAo?$AA?$AA@ 000000018004fd58     libucrt:lcidtoname_downlevel.obj
 0002:0000ed68       ??_C@_1M@EIAHOHH@?$AAe?$AAs?$AA?9?$AAc?$AAr?$AA?$AA@ 000000018004fd68     libucrt:lcidtoname_downlevel.obj
 0002:0000ed78       ??_C@_1M@LLPGMBIN@?$AAe?$AAs?$AA?9?$AAd?$AAo?$AA?$AA@ 000000018004fd78     libucrt:lcidtoname_downlevel.obj
 0002:0000ed88       ??_C@_1M@DKHMKNJA@?$AAe?$AAs?$AA?9?$AAe?$AAc?$AA?$AA@ 000000018004fd88     libucrt:lcidtoname_downlevel.obj
 0002:0000ed98       ??_C@_1M@GKGFPKAP@?$AAe?$AAs?$AA?9?$AAe?$AAs?$AA?$AA@ 000000018004fd98     libucrt:lcidtoname_downlevel.obj
 0002:0000eda8       ??_C@_1M@LKHKGDLN@?$AAe?$AAs?$AA?9?$AAg?$AAt?$AA?$AA@ 000000018004fda8     libucrt:lcidtoname_downlevel.obj
 0002:0000edb8       ??_C@_1M@HEIIGGJD@?$AAe?$AAs?$AA?9?$AAh?$AAn?$AA?$AA@ 000000018004fdb8     libucrt:lcidtoname_downlevel.obj
 0002:0000edc8       ??_C@_1M@FBDHPPGD@?$AAe?$AAs?$AA?9?$AAm?$AAx?$AA?$AA@ 000000018004fdc8     libucrt:lcidtoname_downlevel.obj
 0002:0000edd8       ??_C@_1M@DPAGLNDH@?$AAe?$AAs?$AA?9?$AAn?$AAi?$AA?$AA@ 000000018004fdd8     libucrt:lcidtoname_downlevel.obj
 0002:0000ede8       ??_C@_1M@MDGOPGDD@?$AAe?$AAs?$AA?9?$AAp?$AAa?$AA?$AA@ 000000018004fde8     libucrt:lcidtoname_downlevel.obj
 0002:0000edf8       ??_C@_1M@EMAMGBGE@?$AAe?$AAs?$AA?9?$AAp?$AAe?$AA?$AA@ 000000018004fdf8     libucrt:lcidtoname_downlevel.obj
 0002:0000ee08       ??_C@_1M@IBMCAOEC@?$AAe?$AAs?$AA?9?$AAp?$AAr?$AA?$AA@ 000000018004fe08     libucrt:lcidtoname_downlevel.obj
 0002:0000ee18       ??_C@_1M@FGMDIJED@?$AAe?$AAs?$AA?9?$AAp?$AAy?$AA?$AA@ 000000018004fe18     libucrt:lcidtoname_downlevel.obj
 0002:0000ee28       ??_C@_1M@IIDEOLLL@?$AAe?$AAs?$AA?9?$AAs?$AAv?$AA?$AA@ 000000018004fe28     libucrt:lcidtoname_downlevel.obj
 0002:0000ee38       ??_C@_1M@GAOBIPA@?$AAe?$AAs?$AA?9?$AAu?$AAy?$AA?$AA@ 000000018004fe38     libucrt:lcidtoname_downlevel.obj
 0002:0000ee48       ??_C@_1M@JKFFICHJ@?$AAe?$AAs?$AA?9?$AAv?$AAe?$AA?$AA@ 000000018004fe48     libucrt:lcidtoname_downlevel.obj
 0002:0000ee58       ??_C@_1M@PNMLOJDF@?$AAe?$AAt?$AA?9?$AAe?$AAe?$AA?$AA@ 000000018004fe58     libucrt:lcidtoname_downlevel.obj
 0002:0000ee68       ??_C@_1M@GHHLIKEI@?$AAe?$AAu?$AA?9?$AAe?$AAs?$AA?$AA@ 000000018004fe68     libucrt:lcidtoname_downlevel.obj
 0002:0000ee78       ??_C@_1M@PBNONODE@?$AAf?$AAa?$AA?9?$AAi?$AAr?$AA?$AA@ 000000018004fe78     libucrt:lcidtoname_downlevel.obj
 0002:0000ee88       ??_C@_1M@JEEHPMIL@?$AAf?$AAi?$AA?9?$AAf?$AAi?$AA?$AA@ 000000018004fe88     libucrt:lcidtoname_downlevel.obj
 0002:0000ee98       ??_C@_1M@LMDCNDBA@?$AAf?$AAo?$AA?9?$AAf?$AAo?$AA?$AA@ 000000018004fe98     libucrt:lcidtoname_downlevel.obj
 0002:0000eea8       ??_C@_1M@JKEOHLDK@?$AAf?$AAr?$AA?9?$AAb?$AAe?$AA?$AA@ 000000018004fea8     libucrt:lcidtoname_downlevel.obj
 0002:0000eeb8       ??_C@_1M@NOHADPMI@?$AAf?$AAr?$AA?9?$AAc?$AAa?$AA?$AA@ 000000018004feb8     libucrt:lcidtoname_downlevel.obj
 0002:0000eec8       ??_C@_1M@KDHIHAEC@?$AAf?$AAr?$AA?9?$AAc?$AAh?$AA?$AA@ 000000018004fec8     libucrt:lcidtoname_downlevel.obj
 0002:0000eed8       ??_C@_1M@MMBBFGAK@?$AAf?$AAr?$AA?9?$AAf?$AAr?$AA?$AA@ 000000018004fed8     libucrt:lcidtoname_downlevel.obj
 0002:0000eee8       ??_C@_1M@PAFNENNF@?$AAf?$AAr?$AA?9?$AAl?$AAu?$AA?$AA@ 000000018004fee8     libucrt:lcidtoname_downlevel.obj
 0002:0000eef8       ??_C@_1M@EOHDJGDD@?$AAf?$AAr?$AA?9?$AAm?$AAc?$AA?$AA@ 000000018004fef8     libucrt:lcidtoname_downlevel.obj
 0002:0000ef08       ??_C@_1M@FAPLLOPF@?$AAg?$AAl?$AA?9?$AAe?$AAs?$AA?$AA@ 000000018004ff08     libucrt:lcidtoname_downlevel.obj
 0002:0000ef18       ??_C@_1M@FOPBFLOO@?$AAg?$AAu?$AA?9?$AAi?$AAn?$AA?$AA@ 000000018004ff18     libucrt:lcidtoname_downlevel.obj
 0002:0000ef28       ??_C@_1M@KBMCINPM@?$AAh?$AAe?$AA?9?$AAi?$AAl?$AA?$AA@ 000000018004ff28     libucrt:lcidtoname_downlevel.obj
 0002:0000ef38       ??_C@_1M@BBPHKFPJ@?$AAh?$AAi?$AA?9?$AAi?$AAn?$AA?$AA@ 000000018004ff38     libucrt:lcidtoname_downlevel.obj
 0002:0000ef48       ??_C@_1M@PMBNDPHD@?$AAh?$AAr?$AA?9?$AAb?$AAa?$AA?$AA@ 000000018004ff48     libucrt:lcidtoname_downlevel.obj
 0002:0000ef58       ??_C@_1M@BPCKOEGE@?$AAh?$AAr?$AA?9?$AAh?$AAr?$AA?$AA@ 000000018004ff58     libucrt:lcidtoname_downlevel.obj
 0002:0000ef68       ??_C@_1M@GACBMHKE@?$AAh?$AAu?$AA?9?$AAh?$AAu?$AA?$AA@ 000000018004ff68     libucrt:lcidtoname_downlevel.obj
 0002:0000ef78       ??_C@_1M@MILPAJJC@?$AAh?$AAy?$AA?9?$AAa?$AAm?$AA?$AA@ 000000018004ff78     libucrt:lcidtoname_downlevel.obj
 0002:0000ef88       ??_C@_1M@BABBICEC@?$AAi?$AAd?$AA?9?$AAi?$AAd?$AA?$AA@ 000000018004ff88     libucrt:lcidtoname_downlevel.obj
 0002:0000ef98       ??_C@_1M@BIKNHHPF@?$AAi?$AAs?$AA?9?$AAi?$AAs?$AA?$AA@ 000000018004ff98     libucrt:lcidtoname_downlevel.obj
 0002:0000efa8       ??_C@_1M@NMPCJPHE@?$AAi?$AAt?$AA?9?$AAc?$AAh?$AA?$AA@ 000000018004ffa8     libucrt:lcidtoname_downlevel.obj
 0002:0000efb8       ??_C@_1M@GHKGFEDF@?$AAi?$AAt?$AA?9?$AAi?$AAt?$AA?$AA@ 000000018004ffb8     libucrt:lcidtoname_downlevel.obj
 0002:0000efc8       ??_C@_1M@NIEJCJJA@?$AAj?$AAa?$AA?9?$AAj?$AAp?$AA?$AA@ 000000018004ffc8     libucrt:lcidtoname_downlevel.obj
 0002:0000efd8       ??_C@_1M@JILFNBIM@?$AAk?$AAa?$AA?9?$AAg?$AAe?$AA?$AA@ 000000018004ffd8     libucrt:lcidtoname_downlevel.obj
 0002:0000efe8       ??_C@_1M@PACPMGPH@?$AAk?$AAk?$AA?9?$AAk?$AAz?$AA?$AA@ 000000018004ffe8     libucrt:lcidtoname_downlevel.obj
 0002:0000eff8       ??_C@_1M@IELFGMHA@?$AAk?$AAn?$AA?9?$AAi?$AAn?$AA?$AA@ 000000018004fff8     libucrt:lcidtoname_downlevel.obj
 0002:0000f008       ??_C@_1O@IBBJHCH@?$AAk?$AAo?$AAk?$AA?9?$AAi?$AAn?$AA?$AA@ 0000000180050008     libucrt:lcidtoname_downlevel.obj
 0002:0000f018       ??_C@_1M@DMHAEOGC@?$AAk?$AAo?$AA?9?$AAk?$AAr?$AA?$AA@ 0000000180050018     libucrt:lcidtoname_downlevel.obj
 0002:0000f028       ??_C@_1M@HBAHBIGA@?$AAk?$AAy?$AA?9?$AAk?$AAg?$AA?$AA@ 0000000180050028     libucrt:lcidtoname_downlevel.obj
 0002:0000f038       ??_C@_1M@KPMILCJG@?$AAl?$AAt?$AA?9?$AAl?$AAt?$AA?$AA@ 0000000180050038     libucrt:lcidtoname_downlevel.obj
 0002:0000f048       ??_C@_1M@BDEKKCA@?$AAl?$AAv?$AA?9?$AAl?$AAv?$AA?$AA@ 0000000180050048     libucrt:lcidtoname_downlevel.obj
 0002:0000f058       ??_C@_1M@ELCKCCJJ@?$AAm?$AAi?$AA?9?$AAn?$AAz?$AA?$AA@ 0000000180050058     libucrt:lcidtoname_downlevel.obj
 0002:0000f068       ??_C@_1M@CBOOLAPA@?$AAm?$AAk?$AA?9?$AAm?$AAk?$AA?$AA@ 0000000180050068     libucrt:lcidtoname_downlevel.obj
 0002:0000f078       ??_C@_1M@GPHNBJKN@?$AAm?$AAl?$AA?9?$AAi?$AAn?$AA?$AA@ 0000000180050078     libucrt:lcidtoname_downlevel.obj
 0002:0000f088       ??_C@_1M@PABJILIG@?$AAm?$AAn?$AA?9?$AAm?$AAn?$AA?$AA@ 0000000180050088     libucrt:lcidtoname_downlevel.obj
 0002:0000f098       ??_C@_1M@FGBKKIPG@?$AAm?$AAr?$AA?9?$AAi?$AAn?$AA?$AA@ 0000000180050098     libucrt:lcidtoname_downlevel.obj
 0002:0000f0a8       ??_C@_1M@NDBPDDAL@?$AAm?$AAs?$AA?9?$AAb?$AAn?$AA?$AA@ 00000001800500a8     libucrt:lcidtoname_downlevel.obj
 0002:0000f0b8       ??_C@_1M@OPIHOOPI@?$AAm?$AAs?$AA?9?$AAm?$AAy?$AA?$AA@ 00000001800500b8     libucrt:lcidtoname_downlevel.obj
 0002:0000f0c8       ??_C@_1M@PPDBCNFM@?$AAm?$AAt?$AA?9?$AAm?$AAt?$AA?$AA@ 00000001800500c8     libucrt:lcidtoname_downlevel.obj
 0002:0000f0d8       ??_C@_1M@KDJDKMDD@?$AAn?$AAb?$AA?9?$AAn?$AAo?$AA?$AA@ 00000001800500d8     libucrt:lcidtoname_downlevel.obj
 0002:0000f0e8       ??_C@_1M@KFCFLMJP@?$AAn?$AAl?$AA?9?$AAb?$AAe?$AA?$AA@ 00000001800500e8     libucrt:lcidtoname_downlevel.obj
 0002:0000f0f8       ??_C@_1M@KPOPDDGO@?$AAn?$AAl?$AA?9?$AAn?$AAl?$AA?$AA@ 00000001800500f8     libucrt:lcidtoname_downlevel.obj
 0002:0000f108       ??_C@_1M@LJKPEMLN@?$AAn?$AAn?$AA?9?$AAn?$AAo?$AA?$AA@ 0000000180050108     libucrt:lcidtoname_downlevel.obj
 0002:0000f118       ??_C@_1M@BDGHHBFL@?$AAn?$AAs?$AA?9?$AAz?$AAa?$AA?$AA@ 0000000180050118     libucrt:lcidtoname_downlevel.obj
 0002:0000f128       ??_C@_1M@IDEHOAP@?$AAp?$AAa?$AA?9?$AAi?$AAn?$AA?$AA@ 0000000180050128     libucrt:lcidtoname_downlevel.obj
 0002:0000f138       ??_C@_1M@HDBKGOGH@?$AAp?$AAl?$AA?9?$AAp?$AAl?$AA?$AA@ 0000000180050138     libucrt:lcidtoname_downlevel.obj
 0002:0000f148       ??_C@_1M@LJLLCMEH@?$AAp?$AAt?$AA?9?$AAb?$AAr?$AA?$AA@ 0000000180050148     libucrt:lcidtoname_downlevel.obj
 0002:0000f158       ??_C@_1M@NCMONAAL@?$AAp?$AAt?$AA?9?$AAp?$AAt?$AA?$AA@ 0000000180050158     libucrt:lcidtoname_downlevel.obj
 0002:0000f168       ??_C@_1O@EAKMAJDN@?$AAq?$AAu?$AAz?$AA?9?$AAb?$AAo?$AA?$AA@ 0000000180050168     libucrt:lcidtoname_downlevel.obj
 0002:0000f178       ??_C@_1O@BHHPIGDN@?$AAq?$AAu?$AAz?$AA?9?$AAe?$AAc?$AA?$AA@ 0000000180050178     libucrt:lcidtoname_downlevel.obj
 0002:0000f188       ??_C@_1O@GBAPEKMJ@?$AAq?$AAu?$AAz?$AA?9?$AAp?$AAe?$AA?$AA@ 0000000180050188     libucrt:lcidtoname_downlevel.obj
 0002:0000f198       ??_C@_1M@CLGLEFBO@?$AAr?$AAo?$AA?9?$AAr?$AAo?$AA?$AA@ 0000000180050198     libucrt:lcidtoname_downlevel.obj
 0002:0000f1a8       ??_C@_1M@CEEDODME@?$AAr?$AAu?$AA?9?$AAr?$AAu?$AA?$AA@ 00000001800501a8     libucrt:lcidtoname_downlevel.obj
 0002:0000f1b8       ??_C@_1M@HPKKKMPP@?$AAs?$AAa?$AA?9?$AAi?$AAn?$AA?$AA@ 00000001800501b8     libucrt:lcidtoname_downlevel.obj
 0002:0000f1c8       ??_C@_1M@BKMAIGOJ@?$AAs?$AAe?$AA?9?$AAf?$AAi?$AA?$AA@ 00000001800501c8     libucrt:lcidtoname_downlevel.obj
 0002:0000f1d8       ??_C@_1M@NDPIFLFI@?$AAs?$AAe?$AA?9?$AAn?$AAo?$AA?$AA@ 00000001800501d8     libucrt:lcidtoname_downlevel.obj
 0002:0000f1e8       ??_C@_1M@DANKKHJ@?$AAs?$AAe?$AA?9?$AAs?$AAe?$AA?$AA@ 00000001800501e8     libucrt:lcidtoname_downlevel.obj
 0002:0000f1f8       ??_C@_1M@PNBLONPJ@?$AAs?$AAk?$AA?9?$AAs?$AAk?$AA?$AA@ 00000001800501f8     libucrt:lcidtoname_downlevel.obj
 0002:0000f208       ??_C@_1M@LFMODOAL@?$AAs?$AAl?$AA?9?$AAs?$AAi?$AA?$AA@ 0000000180050208     libucrt:lcidtoname_downlevel.obj
 0002:0000f218       ??_C@_1O@DFKOMPG@?$AAs?$AAm?$AAa?$AA?9?$AAn?$AAo?$AA?$AA@ 0000000180050218     libucrt:lcidtoname_downlevel.obj
 0002:0000f228       ??_C@_1O@NDKPBNNH@?$AAs?$AAm?$AAa?$AA?9?$AAs?$AAe?$AA?$AA@ 0000000180050228     libucrt:lcidtoname_downlevel.obj
 0002:0000f238       ??_C@_1O@PLLKBHAB@?$AAs?$AAm?$AAj?$AA?9?$AAn?$AAo?$AA?$AA@ 0000000180050238     libucrt:lcidtoname_downlevel.obj
 0002:0000f248       ??_C@_1O@CLEPOGCA@?$AAs?$AAm?$AAj?$AA?9?$AAs?$AAe?$AA?$AA@ 0000000180050248     libucrt:lcidtoname_downlevel.obj
 0002:0000f258       ??_C@_1O@DLGJGKMK@?$AAs?$AAm?$AAn?$AA?9?$AAf?$AAi?$AA?$AA@ 0000000180050258     libucrt:lcidtoname_downlevel.obj
 0002:0000f268       ??_C@_1O@OJDJGAJC@?$AAs?$AAm?$AAs?$AA?9?$AAf?$AAi?$AA?$AA@ 0000000180050268     libucrt:lcidtoname_downlevel.obj
 0002:0000f278       ??_C@_1M@BOFOGHPB@?$AAs?$AAq?$AA?9?$AAa?$AAl?$AA?$AA@ 0000000180050278     libucrt:lcidtoname_downlevel.obj
 0002:0000f288       ??_C@_1BG@LJBBIPGB@?$AAs?$AAr?$AA?9?$AAb?$AAa?$AA?9?$AAc?$AAy?$AAr?$AAl?$AA?$AA@ 0000000180050288     libucrt:lcidtoname_downlevel.obj
 0002:0000f2a0       ??_C@_1BG@JLBENFOE@?$AAs?$AAr?$AA?9?$AAb?$AAa?$AA?9?$AAl?$AAa?$AAt?$AAn?$AA?$AA@ 00000001800502a0     libucrt:lcidtoname_downlevel.obj
 0002:0000f2b8       ??_C@_1BG@KODPNHE@?$AAs?$AAr?$AA?9?$AAs?$AAp?$AA?9?$AAc?$AAy?$AAr?$AAl?$AA?$AA@ 00000001800502b8     libucrt:lcidtoname_downlevel.obj
 0002:0000f2d0       ??_C@_1BG@CIOGKHPB@?$AAs?$AAr?$AA?9?$AAs?$AAp?$AA?9?$AAl?$AAa?$AAt?$AAn?$AA?$AA@ 00000001800502d0     libucrt:lcidtoname_downlevel.obj
 0002:0000f2e8       ??_C@_1M@NGFJLMAC@?$AAs?$AAv?$AA?9?$AAf?$AAi?$AA?$AA@ 00000001800502e8     libucrt:lcidtoname_downlevel.obj
 0002:0000f2f8       ??_C@_1M@MPJEJAJC@?$AAs?$AAv?$AA?9?$AAs?$AAe?$AA?$AA@ 00000001800502f8     libucrt:lcidtoname_downlevel.obj
 0002:0000f308       ??_C@_1M@MPNDHLFK@?$AAs?$AAw?$AA?9?$AAk?$AAe?$AA?$AA@ 0000000180050308     libucrt:lcidtoname_downlevel.obj
 0002:0000f318       ??_C@_1O@KOHBJJI@?$AAs?$AAy?$AAr?$AA?9?$AAs?$AAy?$AA?$AA@ 0000000180050318     libucrt:lcidtoname_downlevel.obj
 0002:0000f328       ??_C@_1M@LDCEFHA@?$AAt?$AAa?$AA?9?$AAi?$AAn?$AA?$AA@ 0000000180050328     libucrt:lcidtoname_downlevel.obj
 0002:0000f338       ??_C@_1M@CNJOFAK@?$AAt?$AAe?$AA?9?$AAi?$AAn?$AA?$AA@ 0000000180050338     libucrt:lcidtoname_downlevel.obj
 0002:0000f348       ??_C@_1M@GNAECACD@?$AAt?$AAh?$AA?9?$AAt?$AAh?$AA?$AA@ 0000000180050348     libucrt:lcidtoname_downlevel.obj
 0002:0000f358       ??_C@_1M@CHBIHOJO@?$AAt?$AAn?$AA?9?$AAz?$AAa?$AA?$AA@ 0000000180050358     libucrt:lcidtoname_downlevel.obj
 0002:0000f368       ??_C@_1M@GCCMIGPJ@?$AAt?$AAr?$AA?9?$AAt?$AAr?$AA?$AA@ 0000000180050368     libucrt:lcidtoname_downlevel.obj
 0002:0000f378       ??_C@_1M@CELMCNBK@?$AAt?$AAt?$AA?9?$AAr?$AAu?$AA?$AA@ 0000000180050378     libucrt:lcidtoname_downlevel.obj
 0002:0000f388       ??_C@_1M@KLMCELGA@?$AAu?$AAk?$AA?9?$AAu?$AAa?$AA?$AA@ 0000000180050388     libucrt:lcidtoname_downlevel.obj
 0002:0000f398       ??_C@_1M@EPAJJAJF@?$AAu?$AAr?$AA?9?$AAp?$AAk?$AA?$AA@ 0000000180050398     libucrt:lcidtoname_downlevel.obj
 0002:0000f3a8       ??_C@_1BG@GEGPMCDJ@?$AAu?$AAz?$AA?9?$AAu?$AAz?$AA?9?$AAc?$AAy?$AAr?$AAl?$AA?$AA@ 00000001800503a8     libucrt:lcidtoname_downlevel.obj
 0002:0000f3c0       ??_C@_1BG@EGGKJILM@?$AAu?$AAz?$AA?9?$AAu?$AAz?$AA?9?$AAl?$AAa?$AAt?$AAn?$AA?$AA@ 00000001800503c0     libucrt:lcidtoname_downlevel.obj
 0002:0000f3d8       ??_C@_1M@GFOCLFF@?$AAv?$AAi?$AA?9?$AAv?$AAn?$AA?$AA@ 00000001800503d8     libucrt:lcidtoname_downlevel.obj
 0002:0000f3e8       ??_C@_1M@CPAMEDFI@?$AAx?$AAh?$AA?9?$AAz?$AAa?$AA?$AA@ 00000001800503e8     libucrt:lcidtoname_downlevel.obj
 0002:0000f3f8       ??_C@_1O@EBKIFIGN@?$AAz?$AAh?$AA?9?$AAc?$AAh?$AAs?$AA?$AA@ 00000001800503f8     libucrt:lcidtoname_downlevel.obj
 0002:0000f408       ??_C@_1O@NMHPGANE@?$AAz?$AAh?$AA?9?$AAc?$AAh?$AAt?$AA?$AA@ 0000000180050408     libucrt:lcidtoname_downlevel.obj
 0002:0000f418       ??_C@_1M@LPINJOMC@?$AAz?$AAh?$AA?9?$AAc?$AAn?$AA?$AA@ 0000000180050418     libucrt:lcidtoname_downlevel.obj
 0002:0000f428       ??_C@_1M@OCJEJODD@?$AAz?$AAh?$AA?9?$AAh?$AAk?$AA?$AA@ 0000000180050428     libucrt:lcidtoname_downlevel.obj
 0002:0000f438       ??_C@_1M@DNDLJINH@?$AAz?$AAh?$AA?9?$AAm?$AAo?$AA?$AA@ 0000000180050438     libucrt:lcidtoname_downlevel.obj
 0002:0000f448       ??_C@_1M@MBFDNDND@?$AAz?$AAh?$AA?9?$AAs?$AAg?$AA?$AA@ 0000000180050448     libucrt:lcidtoname_downlevel.obj
 0002:0000f458       ??_C@_1M@IMEPLEPE@?$AAz?$AAh?$AA?9?$AAt?$AAw?$AA?$AA@ 0000000180050458     libucrt:lcidtoname_downlevel.obj
 0002:0000f468       ??_C@_1M@BBGHNHJP@?$AAz?$AAu?$AA?9?$AAz?$AAa?$AA?$AA@ 0000000180050468     libucrt:lcidtoname_downlevel.obj
 0002:0000f474       ??_C@_00CNPNBAHC@?$AA@     0000000180050474     libucrt:mbrtowc.obj
 0002:0000f478       ??_C@_01GBGANLPD@0?$AA@    0000000180050478     libucrt:cfout.obj
 0002:0000f47c       ??_C@_05DNEBIAHO@1?$CDINF?$AA@ 000000018005047c     libucrt:cfout.obj
 0002:0000f484       ??_C@_06IMKFLFPG@1?$CDQNAN?$AA@ 0000000180050484     libucrt:cfout.obj
 0002:0000f48c       ??_C@_06PGGFOGJG@1?$CDSNAN?$AA@ 000000018005048c     libucrt:cfout.obj
 0002:0000f494       ??_C@_05PHHOCPM@1?$CDIND?$AA@ 0000000180050494     libucrt:cfout.obj
 0002:0000f4a0       _days                      00000001800504a0     libucrt:days.obj
 0002:0000f4d8       _lpdays                    00000001800504d8     libucrt:days.obj
 0002:0000f770       ??_C@_1BA@BALFACEM@?$AAC?$AAO?$AAN?$AAO?$AAU?$AAT?$AA$?$AA?$AA@ 0000000180050770     libucrt:initcon.obj
 0002:0000f780       __log10_256_lead           0000000180050780     libucrt:log10_256_lead_tail_table.obj
 0002:0000ff90       __log10_256_tail           0000000180050f90     libucrt:log10_256_lead_tail_table.obj
 0002:00010798       ??_C@_1BK@DBDEIDLH@?$AAK?$AAE?$AAR?$AAN?$AAE?$AAL?$AA3?$AA2?$AA?4?$AAD?$AAL?$AAL@ 0000000180051798     DelayImp:delayhlp.obj
 0002:000107b8       __pfnDliFailureHook2       00000001800517b8     DelayImp:delayhk1.obj
 0002:000107c0       _load_config_used          00000001800517c0     LIBCMT:loadcfg.obj
 0002:000108c0       ??_C@_07CIFAGBMG@unknown@  00000001800518c0     Backend.obj
 0002:000108c8       ??_C@_00CNPNBAHC@@         00000001800518c8     Backend.obj
 0002:000108d0       ??_C@_1DG@OKCGPKIB@?$AAp?$AAe?$AAr?$AAs?$AAi?$AAs?$AAt?$AAe?$AAn?$AAt?$AA?$CI?$AA?$CJ?$AA?4?$AAI?$AAs@ 00000001800518d0     Backend.obj
 0002:00010908       ??_C@_1CO@EGNPJLKI@?$AAp?$AAe?$AAr?$AAs?$AAi?$AAs?$AAt?$AAe?$AAn?$AAt?$AA?$CI?$AA?$CJ?$AA?4?$AAI?$AAs@ 0000000180051908     Backend.obj
 0002:00010938       ??_C@_1DA@FBGAEOIO@?$AA?$CB?$AAp?$AAe?$AAr?$AAs?$AAi?$AAs?$AAt?$AAe?$AAn?$AAt?$AA?$CI?$AA?$CJ?$AA?4?$AAI@ 0000000180051938     Backend.obj
 0002:00010968       ??_C@_1CO@JCKLEFMA@?$AA?$CB?$AAp?$AAe?$AAr?$AAs?$AAi?$AAs?$AAt?$AAe?$AAn?$AAt?$AA?$CI?$AA?$CJ?$AA?4?$AAI@ 0000000180051968     Backend.obj
 0002:00010998       ??_C@_1BE@GMLLOIPJ@?$AAr?$AAe?$AAf?$AAs?$AA_?$AA?5?$AA?$DO?$AA?5?$AA0@ 0000000180051998     Backend.obj
 0002:000109b0       ??_C@_1CC@GBFLAAPF@?$AAw?$AAr?$AAa?$AAp?$AA?9?$AA?$DO?$AAr?$AAe?$AAf?$AAs?$AA_?$AA?5?$AA?$DN?$AA?$DN?$AA?5@ 00000001800519b0     Backend.obj
 0002:000109d8       ??_C@_0BA@JFNIOLAK@string?5too?5long@ 00000001800519d8     Backend.obj
 0002:000109f0       ??_C@_1JE@CIDMAKPN@?$AAc?$AA?3?$AA?2?$AAp?$AAr?$AAo?$AAj?$AAe?$AAc?$AAt?$AAs?$AA?2?$AAn?$AAo?$AAd@ 00000001800519f0     Backend.obj
 0002:00010a90       ??_C@_1EC@MGGLMBLC@?$AAo?$AAb?$AAj?$AAe?$AAc?$AAt?$AA?9?$AA?$DO?$AAI?$AAn?$AAt?$AAe?$AAr?$AAn?$AAa@ 0000000180051a90     Backend.obj
 0002:00010ad8       ??_C@_1DI@ELDBKNAK@?$AAw?$AAr?$AAa?$AAp?$AA?9?$AA?$DO?$AAh?$AAa?$AAn?$AAd?$AAl?$AAe?$AA_?$AA?4?$AAI@ 0000000180051ad8     Backend.obj
 0002:00010b10       ??_7Backend@@6B@           0000000180051b10     Backend.obj
 0002:00010b50       ??_7ObjectWrap@Nan@@6B@    0000000180051b50     Backend.obj
 0002:00010b68       ??_C@_05NGOMGBBD@image@    0000000180051b68     ImageBackend.obj
 0002:00010b70       ??_C@_1JO@FOMOFAO@?$AAc?$AA?3?$AA?2?$AAp?$AAr?$AAo?$AAj?$AAe?$AAc?$AAt?$AAs?$AA?2?$AAn?$AAo?$AAd@ 0000000180051b70     ImageBackend.obj
 0002:00010c10       ??_C@_1BO@PHAHKBAH@?$AA?$CB?$AAt?$AAh?$AAi?$AAs?$AA?9?$AA?$DO?$AAs?$AAu?$AAr?$AAf?$AAa?$AAc?$AAe@ 0000000180051c10     ImageBackend.obj
 0002:00010c30       ??_C@_1BM@KKMLHDFH@?$AAt?$AAh?$AAi?$AAs?$AA?9?$AA?$DO?$AAs?$AAu?$AAr?$AAf?$AAa?$AAc?$AAe@ 0000000180051c30     ImageBackend.obj
 0002:00010c50       ??_C@_0N@KBCACLBD@ImageBackend@ 0000000180051c50     ImageBackend.obj
 0002:00010c60       ??_7ImageBackend@@6B@      0000000180051c60     ImageBackend.obj
 0002:00010ca0       ??_C@_03MJPNCPKC@pdf@      0000000180051ca0     PdfBackend.obj
 0002:00010ca8       ??_C@_0L@HCGIDJMC@PdfBackend@ 0000000180051ca8     PdfBackend.obj
 0002:00010cb8       ??_7PdfBackend@@6B@        0000000180051cb8     PdfBackend.obj
 0002:00010cf8       ??_C@_03NNPBMGBD@svg@      0000000180051cf8     SvgBackend.obj
 0002:00010d00       ??_C@_0L@NPKKBKFF@SvgBackend@ 0000000180051d00     SvgBackend.obj
 0002:00010d10       ??_7SvgBackend@@6B@        0000000180051d10     SvgBackend.obj
 0002:00010d50       ??_C@_08OMFJPINA@Backends@ 0000000180051d50     Backends.obj
 0002:00010d60       ??_C@_1KI@KKJEKCMK@?$AAc?$AA?3?$AA?2?$AAp?$AAr?$AAo?$AAj?$AAe?$AAc?$AAt?$AAs?$AA?2?$AAn?$AAo?$AAd@ 0000000180051d60     Canvas.obj
 0002:00010e10       ??_C@_1FK@CBGIJHDF@?$AAv?$AAa?$AAl?$AAu?$AAe?$AA?4?$AAs?$AAi?$AAz?$AAe?$AA?$CI?$AA?$CJ?$AA?5?$AA?$DM?$AA?$DN@ 0000000180051e10     Canvas.obj
 0002:00010e70       ??_C@_1HM@LFOCHONG@?$AAc?$AA?3?$AA?2?$AAp?$AAr?$AAo?$AAj?$AAe?$AAc?$AAt?$AAs?$AA?2?$AAn?$AAo?$AAd@ 0000000180051e70     Canvas.obj
 0002:00010ef0       ??_C@_1GA@PFOOBIAG@?$AAl?$AAe?$AAn?$AAg?$AAt?$AAh?$AA?5?$AA?$DM?$AA?$DN?$AA?5?$AAi?$AAm?$AAp?$AA?3?$AA?3@ 0000000180051ef0     Canvas.obj
 0002:00010f50       ??_C@_1FM@LOELJOFK@?$AAs?$AAi?$AAz?$AAe?$AA?5?$AA?$DM?$AA?$DN?$AA?5?$AAi?$AAm?$AAp?$AA?3?$AA?3?$AAk?$AAM@ 0000000180051f50     Canvas.obj
 0002:00010fb0       ??_C@_1BO@OPFMAOCA@?$AAl?$AAe?$AAn?$AA?5?$AA?$DM?$AA?$DN?$AA?5?$AAI?$AAN?$AAT?$AA_?$AAM?$AAA?$AAX@ 0000000180051fb0     Canvas.obj
 0002:00010fd0       ??_C@_1BE@CKDJNAPC@?$AAs?$AAt?$AAr?$AA_?$AA?5?$AA?$CB?$AA?$DN?$AA?5?$AA0@ 0000000180051fd0     Canvas.obj
 0002:00010fe4       ??_C@_06LLLBOGHF@1?46?435@ 0000000180051fe4     Canvas.obj
 0002:00010ff0       ??_C@_0CD@BOHAHBFM@canvas?3empty_closure_output_buf@ 0000000180051ff0     Canvas.obj
 0002:00011018       ??_C@_0CA@PKBJJIPN@canvas?3term_closure_destination@ 0000000180052018     Canvas.obj
 0002:00011038       ??_C@_06PBIJCONE@Canvas@   0000000180052038     Canvas.obj
 0002:00011040       ??_C@_08GOCDALDA@toBuffer@ 0000000180052040     Canvas.obj
 0002:00011050       ??_C@_0O@IOKOGJGN@streamPNGSync@ 0000000180052050     Canvas.obj
 0002:00011060       ??_C@_0O@OBICOFIG@streamPDFSync@ 0000000180052060     Canvas.obj
 0002:00011070       ??_C@_0P@GMDNPKGK@streamJPEGSync@ 0000000180052070     Canvas.obj
 0002:00011080       ??_C@_04GPMDFGEJ@type@     0000000180052080     Canvas.obj
 0002:00011088       ??_C@_06LNMIFCNI@stride@   0000000180052088     Canvas.obj
 0002:00011090       ??_C@_05IGKADHGO@width@    0000000180052090     Canvas.obj
 0002:00011098       ??_C@_06LNLHEAAG@height@   0000000180052098     Canvas.obj
 0002:000110a0       ??_C@_0P@DNOOAMCM@PNG_NO_FILTERS@ 00000001800520a0     Canvas.obj
 0002:000110b0       ??_C@_0BA@NECJFJGB@PNG_FILTER_NONE@ 00000001800520b0     Canvas.obj
 0002:000110c0       ??_C@_0P@ILKINAJE@PNG_FILTER_SUB@ 00000001800520c0     Canvas.obj
 0002:000110d0       ??_C@_0O@PHEANGBB@PNG_FILTER_UP@ 00000001800520d0     Canvas.obj
 0002:000110e0       ??_C@_0P@OIJAFJM@PNG_FILTER_AVG@ 00000001800520e0     Canvas.obj
 0002:000110f0       ??_C@_0BB@EOMICOFG@PNG_FILTER_PAETH@ 00000001800520f0     Canvas.obj
 0002:00011108       ??_C@_0BA@HBOOLNBH@PNG_ALL_FILTERS@ 0000000180052108     Canvas.obj
 0002:00011118       ??_C@_0O@KCCDDIBD@_registerFont@ 0000000180052118     Canvas.obj
 0002:00011128       ??_C@_0DD@NOKGMICM@Class?5constructors?5cannot?5be?5in@ 0000000180052128     Canvas.obj
 0002:00011160       ??_C@_0BC@PALKPJEA@Invalid?5arguments@ 0000000180052160     Canvas.obj
 0002:00011178       ??_C@_0BK@LEHHNKDG@canvas?3ToBufferAsyncAfter@ 0000000180052178     Canvas.obj
 0002:00011198       ??_C@_0BB@CHLGOGDL@compressionLevel@ 0000000180052198     Canvas.obj
 0002:000111b0       ??_C@_07LOIMJIII@filters@  00000001800521b0     Canvas.obj
 0002:000111b8       ??_C@_07JKIHKJOO@palette@  00000001800521b8     Canvas.obj
 0002:000111c0       ??_C@_0CI@BHLKFIE@Palette?5length?5must?5be?5a?5multip@ 00000001800521c0     Canvas.obj
 0002:000111e8       ??_C@_0BA@IGMJCIAO@backgroundIndex@ 00000001800521e8     Canvas.obj
 0002:000111f8       ??_C@_07DADGLCBN@quality@  00000001800521f8     Canvas.obj
 0002:00011200       ??_C@_0BC@PBNJDFOD@chromaSubsampling@ 0000000180052200     Canvas.obj
 0002:00011218       ??_C@_0M@BECHMDJA@progressive@ 0000000180052218     Canvas.obj
 0002:00011224       ??_C@_03DGOGAGNC@raw@      0000000180052224     Canvas.obj
 0002:00011228       ??_C@_09NGJJJBGE@image?1png@ 0000000180052228     Canvas.obj
 0002:00011238       ??_C@_0L@PJKHLKFB@image?1jpeg@ 0000000180052238     Canvas.obj
 0002:00011248       ??_C@_0BB@BCHOLLGI@canvas?3StreamPNG@ 0000000180052248     Canvas.obj
 0002:00011260       ??_C@_0BL@NEPODJIN@callback?5function?5required@ 0000000180052260     Canvas.obj
 0002:00011280       ??_C@_0BB@GPCAPPP@canvas?3StreamPDF@ 0000000180052280     Canvas.obj
 0002:00011298       ??_C@_0BC@FANAGBIP@wrong?5canvas?5type@ 0000000180052298     Canvas.obj
 0002:000112b0       ??_C@_0BE@BPOGMHI@Wrong?5argument?5type@ 00000001800522b0     Canvas.obj
 0002:000112d0       ??_C@_0KD@OFKOCKPC@The?5second?5argument?5to?5register@ 00000001800522d0     Canvas.obj
 0002:00011378       ??_C@_0BK@COFJPHCD@Could?5not?5parse?5font?5file@ 0000000180052378     Canvas.obj
 0002:00011394       ??_C@_06NBOBHOCP@family@   0000000180052394     Canvas.obj
 0002:0001139c       ??_C@_06CMCBKMCB@weight@   000000018005239c     Canvas.obj
 0002:000113a4       ??_C@_05IAKJCFIM@style@    00000001800523a4     Canvas.obj
 0002:000113ac       ??_C@_06IKLLLDHL@normal@   00000001800523ac     Canvas.obj
 0002:000113b8       ??_C@_0CO@PJJOAFFD@Could?5not?5load?5font?5to?5the?5syst@ 00000001800523b8     Canvas.obj
 0002:000113e8       ??_C@_06DAHKLION@italic@   00000001800523e8     Canvas.obj
 0002:000113f0       ??_C@_07PNBIOHPA@oblique@  00000001800523f0     Canvas.obj
 0002:000113f8       ??_C@_04PJDGFHHN@bold@     00000001800523f8     Canvas.obj
 0002:00011400       ??_C@_03GNABGMEE@100@      0000000180052400     Canvas.obj
 0002:00011404       ??_C@_03HPLEMDKK@200@      0000000180052404     Canvas.obj
 0002:00011408       ??_C@_03MHAIKEMP@300@      0000000180052408     Canvas.obj
 0002:0001140c       ??_C@_03FKNPJMHG@400@      000000018005240c     Canvas.obj
 0002:00011410       ??_C@_03OCGDPLBD@500@      0000000180052410     Canvas.obj
 0002:00011414       ??_C@_03PANGFEPN@600@      0000000180052414     Canvas.obj
 0002:00011418       ??_C@_03EIGKDDJI@700@      0000000180052418     Canvas.obj
 0002:0001141c       ??_C@_03BAAJCDMO@800@      000000018005241c     Canvas.obj
 0002:00011420       ??_C@_03KILFEEKL@900@      0000000180052420     Canvas.obj
 0002:00011424       ??_C@_01IHBHIGKO@?0@       0000000180052424     Canvas.obj
 0002:00011428       ??_C@_07JKKCBBMM@context@  0000000180052428     Canvas.obj
 0002:00011430       ??_C@_1KE@MMKGJPOD@?$AAc?$AA?3?$AA?2?$AAp?$AAr?$AAo?$AAj?$AAe?$AAc?$AAt?$AAs?$AA?2?$AAn?$AAo?$AAd@ 0000000180052430     Canvas.obj
 0002:000114e0       ??_C@_1GK@KNJIIFLH@?$AAr?$AAe?$AAi?$AAn?$AAt?$AAe?$AAr?$AAp?$AAr?$AAe?$AAt?$AA_?$AAc?$AAa?$AAs@ 00000001800524e0     Canvas.obj
 0002:00011550       ??_C@_1CE@LNAGEONJ@?$AA?$CB?$AAo?$AAb?$AAj?$AAe?$AAc?$AAt?$AA?4?$AAI?$AAs?$AAE?$AAm?$AAp?$AAt?$AAy@ 0000000180052550     Canvas.obj
 0002:00011578       ??_C@_0BD@OLBABOEK@vector?$DMT?$DO?5too?5long@ 0000000180052578     Canvas.obj
 0002:00011590       ??_7Canvas@@6B@            0000000180052590     Canvas.obj
 0002:000115a8       ??_C@_0P@CKNMLMDB@CanvasGradient@ 00000001800525a8     CanvasGradient.obj
 0002:000115b8       ??_C@_0N@FFOKKILE@addColorStop@ 00000001800525b8     CanvasGradient.obj
 0002:000115c8       ??_C@_0BC@KNPMEBHA@invalid?5arguments@ 00000001800525c8     CanvasGradient.obj
 0002:000115e0       ??_C@_0BA@ELGKPKEI@offset?5required@ 00000001800525e0     CanvasGradient.obj
 0002:000115f0       ??_C@_0BG@HHHCEBEM@color?5string?5required@ 00000001800525f0     CanvasGradient.obj
 0002:00011608       ??_C@_0BD@JKDEPLNJ@parse?5color?5failed@ 0000000180052608     CanvasGradient.obj
 0002:00011620       ??_7Gradient@@6B@          0000000180052620     CanvasGradient.obj
 0002:00011638       ??_C@_0O@KEPDKAFI@CanvasPattern@ 0000000180052638     CanvasPattern.obj
 0002:00011648       ??_C@_0CG@CKGIHBBA@Image?5given?5has?5not?5completed?5l@ 0000000180052648     CanvasPattern.obj
 0002:00011670       ??_C@_0BJ@NBALILEB@Image?5or?5Canvas?5expected@ 0000000180052670     CanvasPattern.obj
 0002:00011690       ??_C@_09OGFADPEI@no?9repeat@ 0000000180052690     CanvasPattern.obj
 0002:000116a0       ??_C@_08HMIFKPGE@repeat?9x@ 00000001800526a0     CanvasPattern.obj
 0002:000116b0       ??_C@_08GFJOJOCF@repeat?9y@ 00000001800526b0     CanvasPattern.obj
 0002:000116c0       ??_7Pattern@@6B@           00000001800526c0     CanvasPattern.obj
 0002:000116d8       ??_C@_0BJ@HOMNLOJF@CanvasRenderingContext2D@ 00000001800526d8     CanvasRenderingContext2d.obj
 0002:000116f8       ??_C@_09LANPKMCJ@drawImage@ 00000001800526f8     CanvasRenderingContext2d.obj
 0002:00011708       ??_C@_0N@HMHAOANH@putImageData@ 0000000180052708     CanvasRenderingContext2d.obj
 0002:00011718       ??_C@_0N@LJBMKNKJ@getImageData@ 0000000180052718     CanvasRenderingContext2d.obj
 0002:00011728       ??_C@_07IEJLLIOD@addPage@  0000000180052728     CanvasRenderingContext2d.obj
 0002:00011730       ??_C@_04EMMDIJJL@save@     0000000180052730     CanvasRenderingContext2d.obj
 0002:00011738       ??_C@_07HICINA@restore@    0000000180052738     CanvasRenderingContext2d.obj
 0002:00011740       ??_C@_06CEHMNFAL@rotate@   0000000180052740     CanvasRenderingContext2d.obj
 0002:00011748       ??_C@_09ODNGOEIO@translate@ 0000000180052748     CanvasRenderingContext2d.obj
 0002:00011758       ??_C@_09IFONHNKG@transform@ 0000000180052758     CanvasRenderingContext2d.obj
 0002:00011768       ??_C@_0P@KBHJLFLN@resetTransform@ 0000000180052768     CanvasRenderingContext2d.obj
 0002:00011778       ??_C@_0O@MDNHBEAB@isPointInPath@ 0000000180052778     CanvasRenderingContext2d.obj
 0002:00011788       ??_C@_05MHMEBBGO@scale@    0000000180052788     CanvasRenderingContext2d.obj
 0002:00011790       ??_C@_04POIGMEJN@clip@     0000000180052790     CanvasRenderingContext2d.obj
 0002:00011798       ??_C@_04OBAECEGJ@fill@     0000000180052798     CanvasRenderingContext2d.obj
 0002:000117a0       ??_C@_06JDPPEKDJ@stroke@   00000001800527a0     CanvasRenderingContext2d.obj
 0002:000117a8       ??_C@_08BKNBKKHP@fillText@ 00000001800527a8     CanvasRenderingContext2d.obj
 0002:000117b8       ??_C@_0L@NKNGGLJB@strokeText@ 00000001800527b8     CanvasRenderingContext2d.obj
 0002:000117c8       ??_C@_08IFOCBDEO@fillRect@ 00000001800527c8     CanvasRenderingContext2d.obj
 0002:000117d8       ??_C@_0L@EFOFNCKA@strokeRect@ 00000001800527d8     CanvasRenderingContext2d.obj
 0002:000117e8       ??_C@_09CADLENBP@clearRect@ 00000001800527e8     CanvasRenderingContext2d.obj
 0002:000117f4       ??_C@_04LHPFHFPH@rect@     00000001800527f4     CanvasRenderingContext2d.obj
 0002:00011800       ??_C@_0M@PDPLNFGN@measureText@ 0000000180052800     CanvasRenderingContext2d.obj
 0002:0001180c       ??_C@_06ICOKFDHB@moveTo@   000000018005280c     CanvasRenderingContext2d.obj
 0002:00011814       ??_C@_06KCFEGHJL@lineTo@   0000000180052814     CanvasRenderingContext2d.obj
 0002:00011820       ??_C@_0O@PAEGDEKM@bezierCurveTo@ 0000000180052820     CanvasRenderingContext2d.obj
 0002:00011830       ??_C@_0BB@NNCDNEFE@quadraticCurveTo@ 0000000180052830     CanvasRenderingContext2d.obj
 0002:00011848       ??_C@_09GMDIDHBP@beginPath@ 0000000180052848     CanvasRenderingContext2d.obj
 0002:00011858       ??_C@_09FFNFMCIM@closePath@ 0000000180052858     CanvasRenderingContext2d.obj
 0002:00011864       ??_C@_03EEIEDENP@arc@      0000000180052864     CanvasRenderingContext2d.obj
 0002:00011868       ??_C@_05KOMEJIOF@arcTo@    0000000180052868     CanvasRenderingContext2d.obj
 0002:00011870       ??_C@_07IANGJLLC@ellipse@  0000000180052870     CanvasRenderingContext2d.obj
 0002:00011878       ??_C@_0M@KIBHMOJH@setLineDash@ 0000000180052878     CanvasRenderingContext2d.obj
 0002:00011888       ??_C@_0M@KHAJBIBE@getLineDash@ 0000000180052888     CanvasRenderingContext2d.obj
 0002:00011898       ??_C@_08GCBDMPHE@_setFont@ 0000000180052898     CanvasRenderingContext2d.obj
 0002:000118a8       ??_C@_0O@LDAFEHIB@_setFillColor@ 00000001800528a8     CanvasRenderingContext2d.obj
 0002:000118b8       ??_C@_0BA@KNEOHGAJ@_setStrokeColor@ 00000001800528b8     CanvasRenderingContext2d.obj
 0002:000118c8       ??_C@_0BA@PBFLDAPN@_setFillPattern@ 00000001800528c8     CanvasRenderingContext2d.obj
 0002:000118d8       ??_C@_0BC@FDNPDMMP@_setStrokePattern@ 00000001800528d8     CanvasRenderingContext2d.obj
 0002:000118f0       ??_C@_0BB@CFGDFFJO@_setTextBaseline@ 00000001800528f0     CanvasRenderingContext2d.obj
 0002:00011908       ??_C@_0BC@FPEBGOFB@_setTextAlignment@ 0000000180052908     CanvasRenderingContext2d.obj
 0002:00011920       ??_C@_0L@PJBLMGHG@_getMatrix@ 0000000180052920     CanvasRenderingContext2d.obj
 0002:00011930       ??_C@_0M@GJLGNIPC@pixelFormat@ 0000000180052930     CanvasRenderingContext2d.obj
 0002:00011940       ??_C@_0P@HGKACBEG@patternQuality@ 0000000180052940     CanvasRenderingContext2d.obj
 0002:00011950       ??_C@_0BG@NBHIGNIP@imageSmoothingEnabled@ 0000000180052950     CanvasRenderingContext2d.obj
 0002:00011968       ??_C@_0BJ@KOAEPHEF@globalCompositeOperation@ 0000000180052968     CanvasRenderingContext2d.obj
 0002:00011988       ??_C@_0M@EJNLOLOE@globalAlpha@ 0000000180052988     CanvasRenderingContext2d.obj
 0002:00011998       ??_C@_0M@JPJLLJDB@shadowColor@ 0000000180052998     CanvasRenderingContext2d.obj
 0002:000119a8       ??_C@_09EGMCAAKI@fillColor@ 00000001800529a8     CanvasRenderingContext2d.obj
 0002:000119b8       ??_C@_0M@BLAMIBG@strokeColor@ 00000001800529b8     CanvasRenderingContext2d.obj
 0002:000119c8       ??_C@_0L@EFNIPLDK@miterLimit@ 00000001800529c8     CanvasRenderingContext2d.obj
 0002:000119d8       ??_C@_09PELAPJEH@lineWidth@ 00000001800529d8     CanvasRenderingContext2d.obj
 0002:000119e8       ??_C@_07IPBACFHB@lineCap@  00000001800529e8     CanvasRenderingContext2d.obj
 0002:000119f0       ??_C@_08CCMLJKBL@lineJoin@ 00000001800529f0     CanvasRenderingContext2d.obj
 0002:00011a00       ??_C@_0P@NNEFDNMM@lineDashOffset@ 0000000180052a00     CanvasRenderingContext2d.obj
 0002:00011a10       ??_C@_0O@FOAIOCIO@shadowOffsetX@ 0000000180052a10     CanvasRenderingContext2d.obj
 0002:00011a20       ??_C@_0O@EHBDNDMP@shadowOffsetY@ 0000000180052a20     CanvasRenderingContext2d.obj
 0002:00011a30       ??_C@_0L@FJBIPGOL@shadowBlur@ 0000000180052a30     CanvasRenderingContext2d.obj
 0002:00011a40       ??_C@_09BEIGEBLF@antialias@ 0000000180052a40     CanvasRenderingContext2d.obj
 0002:00011a50       ??_C@_0BA@GALDJJKL@textDrawingMode@ 0000000180052a50     CanvasRenderingContext2d.obj
 0002:00011a60       ??_C@_0BJ@OLEJJKDH@CanvasRenderingContext2d@ 0000000180052a60     CanvasRenderingContext2d.obj
 0002:00011a80       ??_C@_0L@NNKNDDLN@sans?5serif@ 0000000180052a80     CanvasRenderingContext2d.obj
 0002:00011a90       ??_C@_0BJ@MMHEOABP@Unexpected?5gradient?5type@ 0000000180052a90     CanvasRenderingContext2d.obj
 0002:00011ab0       ??_C@_0BN@FEKPFJFP@Failed?5to?5initialize?5context@ 0000000180052ab0     CanvasRenderingContext2d.obj
 0002:00011ad0       ??_C@_07NOFPBGJH@evenodd@  0000000180052ad0     CanvasRenderingContext2d.obj
 0002:00011ad8       ??_C@_0BA@IBFIJLCO@Canvas?5expected@ 0000000180052ad8     CanvasRenderingContext2d.obj
 0002:00011ae8       ??_C@_06OECNJAC@RGBA32@    0000000180052ae8     CanvasRenderingContext2d.obj
 0002:00011af0       ??_C@_05EIHACBEG@RGB24@    0000000180052af0     CanvasRenderingContext2d.obj
 0002:00011af8       ??_C@_02GGHJHNOB@A8@       0000000180052af8     CanvasRenderingContext2d.obj
 0002:00011b00       ??_C@_09FDIJCLOJ@RGB16_565@ 0000000180052b00     CanvasRenderingContext2d.obj
 0002:00011b0c       ??_C@_02LHLLMGKI@A1@       0000000180052b0c     CanvasRenderingContext2d.obj
 0002:00011b10       ??_C@_05IAEKHIAN@alpha@    0000000180052b10     CanvasRenderingContext2d.obj
 0002:00011b18       ??_C@_0CG@EHLCPGGB@only?5PDF?5canvases?5support?5?4next@ 0000000180052b18     CanvasRenderingContext2d.obj
 0002:00011b40       ??_C@_0BD@DJPHEEKJ@ImageData?5expected@ 0000000180052b40     CanvasRenderingContext2d.obj
 0002:00011b58       ??_C@_0DJ@CKCCPANE@putImageData?5for?5CANVAS_FORMAT_@ 0000000180052b58     CanvasRenderingContext2d.obj
 0002:00011b98       ??_C@_0BF@EKHJHFGA@Invalid?5pixel?5format@ 0000000180052b98     CanvasRenderingContext2d.obj
 0002:00011bb0       ??_C@_0CH@NDMGIAMG@IndexSizeError?3?5The?5source?5widt@ 0000000180052bb0     CanvasRenderingContext2d.obj
 0002:00011bd8       ??_C@_0CI@HDADGBDO@IndexSizeError?3?5The?5source?5heig@ 0000000180052bd8     CanvasRenderingContext2d.obj
 0002:00011c00       ??_C@_0BC@GJDMJLID@Canvas?5width?5is?50@ 0000000180052c00     CanvasRenderingContext2d.obj
 0002:00011c18       ??_C@_0BD@KPLINHKD@Canvas?5height?5is?50@ 0000000180052c18     CanvasRenderingContext2d.obj
 0002:00011c30       ??_C@_0DJ@DCIKNENI@getImageData?5for?5CANVAS_FORMAT_@ 0000000180052c30     CanvasRenderingContext2d.obj
 0002:00011c70       ??_C@_0CF@NIOBFMGH@The?5first?5argument?5must?5be?5an?5o@ 0000000180052c70     CanvasRenderingContext2d.obj
 0002:00011c98       ??_C@_0M@OABMHCHE@source?9over@ 0000000180052c98     CanvasRenderingContext2d.obj
 0002:00011ca4       ??_C@_05MEHLAELG@clear@    0000000180052ca4     CanvasRenderingContext2d.obj
 0002:00011cac       ??_C@_04COAGEIMF@copy@     0000000180052cac     CanvasRenderingContext2d.obj
 0002:00011cb8       ??_C@_0M@BLMAJMLK@destination@ 0000000180052cb8     CanvasRenderingContext2d.obj
 0002:00011cc8       ??_C@_0BB@CIGJAIPI@destination?9over@ 0000000180052cc8     CanvasRenderingContext2d.obj
 0002:00011ce0       ??_C@_09CMAEPNDN@source?9in@ 0000000180052ce0     CanvasRenderingContext2d.obj
 0002:00011cf0       ??_C@_0P@GAHJLNBO@destination?9in@ 0000000180052cf0     CanvasRenderingContext2d.obj
 0002:00011d00       ??_C@_0L@CGAPOHFD@source?9out@ 0000000180052d00     CanvasRenderingContext2d.obj
 0002:00011d10       ??_C@_0BA@IECEOLGB@destination?9out@ 0000000180052d10     CanvasRenderingContext2d.obj
 0002:00011d20       ??_C@_0M@MKIEODMK@source?9atop@ 0000000180052d20     CanvasRenderingContext2d.obj
 0002:00011d30       ??_C@_0BB@CPBJJEG@destination?9atop@ 0000000180052d30     CanvasRenderingContext2d.obj
 0002:00011d44       ??_C@_03COLCDPPJ@xor@      0000000180052d44     CanvasRenderingContext2d.obj
 0002:00011d48       ??_C@_07IEMLKEO@lighter@   0000000180052d48     CanvasRenderingContext2d.obj
 0002:00011d50       ??_C@_08MMOCDOEL@multiply@ 0000000180052d50     CanvasRenderingContext2d.obj
 0002:00011d5c       ??_C@_06LPLGMLP@screen@    0000000180052d5c     CanvasRenderingContext2d.obj
 0002:00011d68       ??_C@_07BJNHBMF@overlay@   0000000180052d68     CanvasRenderingContext2d.obj
 0002:00011d70       ??_C@_06EJFBIMH@darken@    0000000180052d70     CanvasRenderingContext2d.obj
 0002:00011d78       ??_C@_07OODLOHBD@lighten@  0000000180052d78     CanvasRenderingContext2d.obj
 0002:00011d80       ??_C@_0M@HJIFAOGP@color?9dodge@ 0000000180052d80     CanvasRenderingContext2d.obj
 0002:00011d90       ??_C@_0L@BNODHIAO@color?9burn@ 0000000180052d90     CanvasRenderingContext2d.obj
 0002:00011da0       ??_C@_0L@CEKGHIKD@hard?9light@ 0000000180052da0     CanvasRenderingContext2d.obj
 0002:00011db0       ??_C@_0L@DKCPCJMJ@soft?9light@ 0000000180052db0     CanvasRenderingContext2d.obj
 0002:00011dc0       ??_C@_0L@CHCOIIBP@difference@ 0000000180052dc0     CanvasRenderingContext2d.obj
 0002:00011dd0       ??_C@_09GJPEMMGJ@exclusion@ 0000000180052dd0     CanvasRenderingContext2d.obj
 0002:00011ddc       ??_C@_03GKJJMKFG@hue@      0000000180052ddc     CanvasRenderingContext2d.obj
 0002:00011de0       ??_C@_0L@MOLEDBMN@saturation@ 0000000180052de0     CanvasRenderingContext2d.obj
 0002:00011dec       ??_C@_05PEENBMOG@color@    0000000180052dec     CanvasRenderingContext2d.obj
 0002:00011df8       ??_C@_0L@MLCMHDMB@luminosity@ 0000000180052df8     CanvasRenderingContext2d.obj
 0002:00011e08       ??_C@_08MEKLKAIJ@saturate@ 0000000180052e08     CanvasRenderingContext2d.obj
 0002:00011e14       ??_C@_04LBNBHAJC@fast@     0000000180052e14     CanvasRenderingContext2d.obj
 0002:00011e1c       ??_C@_04DDJAGGFE@good@     0000000180052e1c     CanvasRenderingContext2d.obj
 0002:00011e24       ??_C@_04MLDDEBAF@best@     0000000180052e24     CanvasRenderingContext2d.obj
 0002:00011e30       ??_C@_07NHJEPDMH@nearest@  0000000180052e30     CanvasRenderingContext2d.obj
 0002:00011e38       ??_C@_08LJMMPFJO@bilinear@ 0000000180052e38     CanvasRenderingContext2d.obj
 0002:00011e44       ??_C@_04CGFJFPFD@none@     0000000180052e44     CanvasRenderingContext2d.obj
 0002:00011e4c       ??_C@_04GEBBKIAA@gray@     0000000180052e4c     CanvasRenderingContext2d.obj
 0002:00011e58       ??_C@_08JOJOGLJH@subpixel@ 0000000180052e58     CanvasRenderingContext2d.obj
 0002:00011e68       ??_C@_07DLHCIBDH@default@  0000000180052e68     CanvasRenderingContext2d.obj
 0002:00011e70       ??_C@_04LNEJFJGI@path@     0000000180052e70     CanvasRenderingContext2d.obj
 0002:00011e78       ??_C@_05OIOMJNBL@glyph@    0000000180052e78     CanvasRenderingContext2d.obj
 0002:00011e80       ??_C@_05JDNDNKBA@bevel@    0000000180052e80     CanvasRenderingContext2d.obj
 0002:00011e88       ??_C@_05MIMAKCN@round@     0000000180052e88     CanvasRenderingContext2d.obj
 0002:00011e90       ??_C@_05NJDNHCJA@miter@    0000000180052e90     CanvasRenderingContext2d.obj
 0002:00011e98       ??_C@_06ICDKOIFG@square@   0000000180052e98     CanvasRenderingContext2d.obj
 0002:00011ea0       ??_C@_04JOGFAABP@butt@     0000000180052ea0     CanvasRenderingContext2d.obj
 0002:00011ea8       ??_C@_0BN@MEBGIMHG@Gradient?5or?5Pattern?5expected@ 0000000180052ea8     CanvasRenderingContext2d.obj
 0002:00011ec8       ??_C@_0BG@IGICBKHO@actualBoundingBoxLeft@ 0000000180052ec8     CanvasRenderingContext2d.obj
 0002:00011ee0       ??_C@_0BH@KNMENBEI@actualBoundingBoxRight@ 0000000180052ee0     CanvasRenderingContext2d.obj
 0002:00011ef8       ??_C@_0BI@NBNJEOJE@actualBoundingBoxAscent@ 0000000180052ef8     CanvasRenderingContext2d.obj
 0002:00011f10       ??_C@_0BJ@LKCIMDON@actualBoundingBoxDescent@ 0000000180052f10     CanvasRenderingContext2d.obj
 0002:00011f30       ??_C@_0P@FGHEPLGI@emHeightAscent@ 0000000180052f30     CanvasRenderingContext2d.obj
 0002:00011f40       ??_C@_0BA@OKENAGP@emHeightDescent@ 0000000180052f40     CanvasRenderingContext2d.obj
 0002:00011f50       ??_C@_0BD@NGFBNEGE@alphabeticBaseline@ 0000000180052f50     CanvasRenderingContext2d.obj
 0002:00011f68       ??_C@_0BE@JONHPENG@map?1set?$DMT?$DO?5too?5long@ 0000000180052f68     CanvasRenderingContext2d.obj
 0002:00011f80       ??_7Context2d@@6B@         0000000180052f80     CanvasRenderingContext2d.obj
 0002:00011f98       ??_C@_0M@CEEDCJLA@transparent@ 0000000180052f98     color.obj
 0002:00011fa8       ??_C@_09GNHGKALJ@aliceblue@ 0000000180052fa8     color.obj
 0002:00011fb8       ??_C@_0N@OJFLMGEJ@antiquewhite@ 0000000180052fb8     color.obj
 0002:00011fc8       ??_C@_04GANAGBLL@aqua@     0000000180052fc8     color.obj
 0002:00011fd0       ??_C@_0L@MOKEMMG@aquamarine@ 0000000180052fd0     color.obj
 0002:00011fdc       ??_C@_05CNOJAJLP@azure@    0000000180052fdc     color.obj
 0002:00011fe4       ??_C@_05EJOPPCPO@beige@    0000000180052fe4     color.obj
 0002:00011fec       ??_C@_06HGAAELGA@bisque@   0000000180052fec     color.obj
 0002:00011ff4       ??_C@_05BIMBDNDC@black@    0000000180052ff4     color.obj
 0002:00012000       ??_C@_0P@CMCBOAOE@blanchedalmond@ 0000000180053000     color.obj
 0002:00012010       ??_C@_04OBGPFBCN@blue@     0000000180053010     color.obj
 0002:00012018       ??_C@_0L@LKLKALMM@blueviolet@ 0000000180053018     color.obj
 0002:00012024       ??_C@_05EBJGJMAL@brown@    0000000180053024     color.obj
 0002:00012030       ??_C@_09JHLANABP@burlywood@ 0000000180053030     color.obj
 0002:00012040       ??_C@_09KIJDGGAG@cadetblue@ 0000000180053040     color.obj
 0002:00012050       ??_C@_0L@CHNAEACO@chartreuse@ 0000000180053050     color.obj
 0002:00012060       ??_C@_09BPADAHOC@chocolate@ 0000000180053060     color.obj
 0002:0001206c       ??_C@_05JKFECOJP@coral@    000000018005306c     color.obj
 0002:00012078       ??_C@_0P@KLMOGGLK@cornflowerblue@ 0000000180053078     color.obj
 0002:00012088       ??_C@_08DECOJLB@cornsilk@  0000000180053088     color.obj
 0002:00012098       ??_C@_07DAGIGOOE@crimson@  0000000180053098     color.obj
 0002:000120a0       ??_C@_04EDBDANFH@cyan@     00000001800530a0     color.obj
 0002:000120a8       ??_C@_08MFEOPMII@darkblue@ 00000001800530a8     color.obj
 0002:000120b8       ??_C@_08GHDCKAPC@darkcyan@ 00000001800530b8     color.obj
 0002:000120c8       ??_C@_0O@GGJPBKNE@darkgoldenrod@ 00000001800530c8     color.obj
 0002:000120d8       ??_C@_08EADAAFKF@darkgray@ 00000001800530d8     color.obj
 0002:000120e8       ??_C@_09MHNMOMAI@darkgreen@ 00000001800530e8     color.obj
 0002:000120f8       ??_C@_08EHDJKNHJ@darkgrey@ 00000001800530f8     color.obj
 0002:00012108       ??_C@_09FAPDIPMK@darkkhaki@ 0000000180053108     color.obj
 0002:00012118       ??_C@_0M@MEEFECHN@darkmagenta@ 0000000180053118     color.obj
 0002:00012128       ??_C@_0P@BGCLDNDK@darkolivegreen@ 0000000180053128     color.obj
 0002:00012138       ??_C@_0L@ICJJPBF@darkorange@ 0000000180053138     color.obj
 0002:00012148       ??_C@_0L@EEAHIPOC@darkorchid@ 0000000180053148     color.obj
 0002:00012158       ??_C@_07MFAOOMGP@darkred@  0000000180053158     color.obj
 0002:00012160       ??_C@_0L@CKNHPKLG@darksalmon@ 0000000180053160     color.obj
 0002:00012170       ??_C@_0N@FBOCOPGH@darkseagreen@ 0000000180053170     color.obj
 0002:00012180       ??_C@_0O@PABAFENG@darkslateblue@ 0000000180053180     color.obj
 0002:00012190       ??_C@_0O@HFGOKNPL@darkslategray@ 0000000180053190     color.obj
 0002:000121a0       ??_C@_0O@HCGHAFCH@darkslategrey@ 00000001800531a0     color.obj
 0002:000121b0       ??_C@_0O@HKLGOIEA@darkturquoise@ 00000001800531b0     color.obj
 0002:000121c0       ??_C@_0L@NGBKDFME@darkviolet@ 00000001800531c0     color.obj
 0002:000121d0       ??_C@_08CJGCPHKF@deeppink@ 00000001800531d0     color.obj
 0002:000121e0       ??_C@_0M@BGGBNDNG@deepskyblue@ 00000001800531e0     color.obj
 0002:000121f0       ??_C@_07DJPEDLIH@dimgray@  00000001800531f0     color.obj
 0002:000121f8       ??_C@_07DOPNJDFL@dimgrey@  00000001800531f8     color.obj
 0002:00012200       ??_C@_0L@MIOOBLBJ@dodgerblue@ 0000000180053200     color.obj
 0002:00012210       ??_C@_09ELCPEDIM@firebrick@ 0000000180053210     color.obj
 0002:00012220       ??_C@_0M@FFMCAIP@floralwhite@ 0000000180053220     color.obj
 0002:00012230       ??_C@_0M@HBKAKFBN@forestgreen@ 0000000180053230     color.obj
 0002:00012240       ??_C@_07FHEBJCGF@fuchsia@  0000000180053240     color.obj
 0002:00012248       ??_C@_09MIGKOGAO@gainsboro@ 0000000180053248     color.obj
 0002:00012258       ??_C@_0L@CELMEDAA@ghostwhite@ 0000000180053258     color.obj
 0002:00012264       ??_C@_04DBNGNIAN@gold@     0000000180053264     color.obj
 0002:00012270       ??_C@_09KJDOAGJL@goldenrod@ 0000000180053270     color.obj
 0002:0001227c       ??_C@_05GBEEJKMC@green@    000000018005327c     color.obj
 0002:00012288       ??_C@_0M@LFPLFELJ@greenyellow@ 0000000180053288     color.obj
 0002:00012294       ??_C@_04GDBIAANM@grey@     0000000180053294     color.obj
 0002:000122a0       ??_C@_08BKNCNHLL@honeydew@ 00000001800532a0     color.obj
 0002:000122b0       ??_C@_07PCCOEED@hotpink@   00000001800532b0     color.obj
 0002:000122b8       ??_C@_09IELIJPNO@indianred@ 00000001800532b8     color.obj
 0002:000122c4       ??_C@_06MLCCIEFE@indigo@   00000001800532c4     color.obj
 0002:000122cc       ??_C@_05NNJJIMHF@ivory@    00000001800532cc     color.obj
 0002:000122d4       ??_C@_05PGGLPJAA@khaki@    00000001800532d4     color.obj
 0002:000122e0       ??_C@_08KJDCPJPL@lavender@ 00000001800532e0     color.obj
 0002:000122f0       ??_C@_0O@CCCMFNCK@lavenderblush@ 00000001800532f0     color.obj
 0002:00012300       ??_C@_09MONDINDP@lawngreen@ 0000000180053300     color.obj
 0002:00012310       ??_C@_0N@ICDCAEHK@lemonchiffon@ 0000000180053310     color.obj
 0002:00012320       ??_C@_09NBIPJLA@lightblue@ 0000000180053320     color.obj
 0002:00012330       ??_C@_0L@BEAGLGMO@lightcoral@ 0000000180053330     color.obj
 0002:00012340       ??_C@_09KPGEKFMK@lightcyan@ 0000000180053340     color.obj
 0002:00012350       ??_C@_0BF@PJADCIND@lightgoldenrodyellow@ 0000000180053350     color.obj
 0002:00012368       ??_C@_09IIGGAAJN@lightgray@ 0000000180053368     color.obj
 0002:00012378       ??_C@_0L@OPBGACJD@lightgreen@ 0000000180053378     color.obj
 0002:00012388       ??_C@_09IPGPKIEB@lightgrey@ 0000000180053388     color.obj
 0002:00012398       ??_C@_09KOBGKMHP@lightpink@ 0000000180053398     color.obj
 0002:000123a8       ??_C@_0M@ENCCHKJE@lightsalmon@ 00000001800533a8     color.obj
 0002:000123b8       ??_C@_0O@BLOIENJC@lightseagreen@ 00000001800533b8     color.obj
 0002:000123c8       ??_C@_0N@JIFIFCAN@lightskyblue@ 00000001800533c8     color.obj
 0002:000123d8       ??_C@_0P@LIPDKBMK@lightslategray@ 00000001800533d8     color.obj
 0002:000123e8       ??_C@_0P@LPPKAJBG@lightslategrey@ 00000001800533e8     color.obj
 0002:000123f8       ??_C@_0P@EIHJHAMG@lightsteelblue@ 00000001800533f8     color.obj
 0002:00012408       ??_C@_0M@FBHPKJLB@lightyellow@ 0000000180053408     color.obj
 0002:00012414       ??_C@_04HLLEONLG@lime@     0000000180053414     color.obj
 0002:00012420       ??_C@_09JKHHFGDO@limegreen@ 0000000180053420     color.obj
 0002:0001242c       ??_C@_05MLLCELJD@linen@    000000018005342c     color.obj
 0002:00012438       ??_C@_07EMDGAPCI@magenta@  0000000180053438     color.obj
 0002:00012440       ??_C@_06BDPIEPJF@maroon@   0000000180053440     color.obj
 0002:00012448       ??_C@_0BB@HHCOFKIC@mediumaquamarine@ 0000000180053448     color.obj
 0002:00012460       ??_C@_0L@CEFFILOH@mediumblue@ 0000000180053460     color.obj
 0002:00012470       ??_C@_0N@GIADPNAO@mediumorchid@ 0000000180053470     color.obj
 0002:00012480       ??_C@_0N@DDGNBDHJ@mediumpurple@ 0000000180053480     color.obj
 0002:00012490       ??_C@_0P@BNCCGPJD@mediumseagreen@ 0000000180053490     color.obj
 0002:000124a0       ??_C@_0BA@EKIMKCFD@mediumslateblue@ 00000001800534a0     color.obj
 0002:000124b0       ??_C@_0BC@POGDBPNO@mediumspringgreen@ 00000001800534b0     color.obj
 0002:000124c8       ??_C@_0BA@MACKBOMF@mediumturquoise@ 00000001800534c8     color.obj
 0002:000124d8       ??_C@_0BA@PNNCDMHM@mediumvioletred@ 00000001800534d8     color.obj
 0002:000124e8       ??_C@_0N@PJDKAOHK@midnightblue@ 00000001800534e8     color.obj
 0002:000124f8       ??_C@_09INCGBEJA@mintcream@ 00000001800534f8     color.obj
 0002:00012508       ??_C@_09HABDAMOF@mistyrose@ 0000000180053508     color.obj
 0002:00012518       ??_C@_08OIIPPDDA@moccasin@ 0000000180053518     color.obj
 0002:00012528       ??_C@_0M@OKLAMJCL@navajowhite@ 0000000180053528     color.obj
 0002:00012534       ??_C@_04DCMEIHPF@navy@     0000000180053534     color.obj
 0002:00012540       ??_C@_07MBCGBJON@oldlace@  0000000180053540     color.obj
 0002:00012548       ??_C@_05OFIFEKBG@olive@    0000000180053548     color.obj
 0002:00012550       ??_C@_09CNLBGLAE@olivedrab@ 0000000180053550     color.obj
 0002:0001255c       ??_C@_06HDDOCMMN@orange@   000000018005355c     color.obj
 0002:00012568       ??_C@_09OPJMLMBK@orangered@ 0000000180053568     color.obj
 0002:00012574       ??_C@_06DPBADMDK@orchid@   0000000180053574     color.obj
 0002:00012580       ??_C@_0O@KONOLMEH@palegoldenrod@ 0000000180053580     color.obj
 0002:00012590       ??_C@_09NAJHJFNO@palegreen@ 0000000180053590     color.obj
 0002:000125a0       ??_C@_0O@LCPHEOND@paleturquoise@ 00000001800535a0     color.obj
 0002:000125b0       ??_C@_0O@IPAPGMGK@palevioletred@ 00000001800535b0     color.obj
 0002:000125c0       ??_C@_0L@NPJMDDDD@papayawhip@ 00000001800535c0     color.obj
 0002:000125d0       ??_C@_09GELOGGEC@peachpuff@ 00000001800535d0     color.obj
 0002:000125dc       ??_C@_04MJMKNOJB@peru@     00000001800535dc     color.obj
 0002:000125e4       ??_C@_04ECGBAEOC@pink@     00000001800535e4     color.obj
 0002:000125ec       ??_C@_04DDJGBPMH@plum@     00000001800535ec     color.obj
 0002:000125f8       ??_C@_0L@MNADNFAH@powderblue@ 00000001800535f8     color.obj
 0002:00012604       ??_C@_06GEHONCEN@purple@   0000000180053604     color.obj
 0002:00012610       ??_C@_0O@JGOBAAIL@rebeccapurple@ 0000000180053610     color.obj
 0002:00012620       ??_C@_03FAAAOPJM@red@      0000000180053620     color.obj
 0002:00012628       ??_C@_09DJJHENIF@rosybrown@ 0000000180053628     color.obj
 0002:00012638       ??_C@_09FEEJNHFN@royalblue@ 0000000180053638     color.obj
 0002:00012648       ??_C@_0M@MOEGEDCP@saddlebrown@ 0000000180053648     color.obj
 0002:00012654       ??_C@_06FBMAEJGO@salmon@   0000000180053654     color.obj
 0002:00012660       ??_C@_0L@HLMGLGHH@sandybrown@ 0000000180053660     color.obj
 0002:00012670       ??_C@_08EKGLDJFB@seagreen@ 0000000180053670     color.obj
 0002:00012680       ??_C@_08MFJLKPPC@seashell@ 0000000180053680     color.obj
 0002:0001268c       ??_C@_06CEGMHAGE@sienna@   000000018005368c     color.obj
 0002:00012694       ??_C@_06NBGLMDBG@silver@   0000000180053694     color.obj
 0002:000126a0       ??_C@_07MFCMKLDM@skyblue@  00000001800536a0     color.obj
 0002:000126a8       ??_C@_09DPLBEIJJ@slateblue@ 00000001800536a8     color.obj
 0002:000126b8       ??_C@_09LKMPLBLE@slategray@ 00000001800536b8     color.obj
 0002:000126c8       ??_C@_09LNMGBJGI@slategrey@ 00000001800536c8     color.obj
 0002:000126d4       ??_C@_04HPKDHBOB@snow@     00000001800536d4     color.obj
 0002:000126e0       ??_C@_0M@IPKJFOEB@springgreen@ 00000001800536e0     color.obj
 0002:000126f0       ??_C@_09EKEFGALI@steelblue@ 00000001800536f0     color.obj
 0002:000126fc       ??_C@_03IIINPABG@tan@      00000001800536fc     color.obj
 0002:00012700       ??_C@_04LJCKMMGA@teal@     0000000180053700     color.obj
 0002:00012708       ??_C@_07CGANODJO@thistle@  0000000180053708     color.obj
 0002:00012710       ??_C@_06NALDPNEI@tomato@   0000000180053710     color.obj
 0002:00012718       ??_C@_09LFBHPEAP@turquoise@ 0000000180053718     color.obj
 0002:00012724       ??_C@_06KNANIGBM@violet@   0000000180053724     color.obj
 0002:0001272c       ??_C@_05PPOGEFHN@wheat@    000000018005372c     color.obj
 0002:00012734       ??_C@_05PMAELIEO@white@    0000000180053734     color.obj
 0002:00012740       ??_C@_0L@FDFMBGNF@whitesmoke@ 0000000180053740     color.obj
 0002:0001274c       ??_C@_06ENJNJKEL@yellow@   000000018005374c     color.obj
 0002:00012758       ??_C@_0M@GCLLLGON@yellowgreen@ 0000000180053758     color.obj
 0002:00012768       ??_C@_0O@CAFKCKKM@?$CD?$CF?42x?$CF?42x?$CF?42x@ 0000000180053768     color.obj
 0002:00012778       ??_C@_0BH@IMKFBGII@rgba?$CI?$CFd?0?5?$CFd?0?5?$CFd?0?5?$CF?42f?$CJ@ 0000000180053778     color.obj
 0002:00012790       ??_C@_04KDAMFBD@rgb?$CI@   0000000180053790     color.obj
 0002:00012798       ??_C@_05KGKCGJPO@rgba?$CI@ 0000000180053798     color.obj
 0002:000127a0       ??_C@_05HBFAAOHC@hsla?$CI@ 00000001800537a0     color.obj
 0002:000127a8       ??_C@_04PFIFKHPC@hsl?$CI@  00000001800537a8     color.obj
 0002:000127b0       ??_C@_04CLILDBFP@rgba@     00000001800537b0     color.obj
 0002:000127b8       ??_C@_03FNOJMHE@rgb@       00000001800537b8     color.obj
 0002:000127bc       ??_C@_04NEDOFDLO@hsla@     00000001800537bc     color.obj
 0002:000127c4       ??_C@_03LPNGANKN@hsl@      00000001800537c4     color.obj
 0002:000127c8       ??_C@_05NBEAGECF@Image@    00000001800537c8     Image.obj
 0002:000127d0       ??_C@_08IPNIAGNA@complete@ 00000001800537d0     Image.obj
 0002:000127e0       ??_C@_0N@KIMBCBLK@naturalWidth@ 00000001800537e0     Image.obj
 0002:000127f0       ??_C@_0O@DMCHDHNN@naturalHeight@ 00000001800537f0     Image.obj
 0002:00012800       ??_C@_09FICAHAJH@getSource@ 0000000180053800     Image.obj
 0002:00012810       ??_C@_09HGGFFBAF@setSource@ 0000000180053810     Image.obj
 0002:00012820       ??_C@_08ELMFDEKI@dataMode@ 0000000180053820     Image.obj
 0002:00012830       ??_C@_0L@ICMMJJAL@MODE_IMAGE@ 0000000180053830     Image.obj
 0002:00012840       ??_C@_09IDBFNFDI@MODE_MIME@ 0000000180053840     Image.obj
 0002:0001284c       ??_C@_06FKJAAAAK@onload@   000000018005384c     Image.obj
 0002:00012858       ??_C@_07MAAHHAB@onerror@   0000000180053858     Image.obj
 0002:00012860       ??_C@_0BH@DEJIGAIG@Unsupported?5image?5type@ 0000000180053860     Image.obj
 0002:00012878       ??_C@_02JDPG@rb@           0000000180053878     Image.obj
 0002:0001287c       ??_C@_05FFKPLNPJ@fopen@    000000018005387c     Image.obj
 0002:00012884       ??_C@_06GLDDLHNF@malloc@   0000000180053884     Image.obj
 0002:00012890       ??_C@_0BK@DBBCPGCH@Unsupported?5JPEG?5encoding@ 0000000180053890     Image.obj
 0002:00012910       ??_7Image@@6B@             0000000180053910     Image.obj
 0002:00012958       ??_7ImageData@@6B@         0000000180053958     ImageData.obj
 0002:00012970       ??_C@_09NIGIGFDC@ImageData@ 0000000180053970     ImageData.obj
 0002:00012980       ??_C@_0BK@BFELGOEH@The?5source?5width?5is?5zero?4@ 0000000180053980     ImageData.obj
 0002:000129a0       ??_C@_0BL@EMOEEHOI@The?5source?5height?5is?5zero?4@ 00000001800539a0     ImageData.obj
 0002:000129c0       ??_C@_0CH@IEOMAMPI@The?5input?5data?5has?5a?5zero?5byte?5@ 00000001800539c0     ImageData.obj
 0002:000129f0       ??_C@_0GB@KDECOCKL@Expected?5?$CIUint8ClampedArray?0?5wi@ 00000001800539f0     ImageData.obj
 0002:00012a54       ??_C@_04PJOLNDGD@data@     0000000180053a54     ImageData.obj
 0002:00012a60       ??_C@_0N@OGDOEBIM@cairoVersion@ 0000000180053a60     init.obj
 0002:00012a70       ??_C@_02DPKJAMEF@?$CFd@    0000000180053a70     init.obj
 0002:00012a78       ??_C@_0M@PLCFBBDI@jpegVersion@ 0000000180053a78     init.obj
 0002:00012a88       ??_C@_08FOJKHHJA@?$CFd?4?$CFd?4?$CFd@ 0000000180053a88     init.obj
 0002:00012a98       ??_C@_0L@KDJIMHFH@gifVersion@ 0000000180053a98     init.obj
 0002:00012aa8       ??_C@_0BA@MCPGPJBI@freetypeVersion@ 0000000180053aa8     init.obj
 0002:00012ab8       ??_C@_0DP@OPJMFDEC@c?3?2projects?2node?9canvas?9prebuil@ 0000000180053ab8     init.obj
 0002:00012af8       ??_C@_06DODEBHEI@canvas@   0000000180053af8     init.obj
 0002:00012b00       ??_C@_03BNMJFLDC@MAC@      0000000180053b00     register_font.obj
 0002:00012b08       ??_C@_08NLKHJAFK@UTF?916BE@ 0000000180053b08     register_font.obj
 0002:00012b14       ??_C@_05EGJIMALK@UTF?98@   0000000180053b14     register_font.obj
 0002:00012b20       ??_C@_08HCOMDCCD@iojs?4exe@ 0000000180053b20     win_delay_load_hook.obj
 0002:00012b30       ??_C@_08JDDNMFDB@node?4exe@ 0000000180053b30     win_delay_load_hook.obj
 0002:00012b40       __pfnDliNotifyHook2        0000000180053b40     win_delay_load_hook.obj
 0002:00012bc0       __real@3a800000            0000000180053bc0     CanvasRenderingContext2d.obj
 0002:00012bc4       __real@3dcccccd            0000000180053bc4     color.obj
 0002:00012bc8       __real@3f000000            0000000180053bc8     CanvasRenderingContext2d.obj
 0002:00012bcc       __real@3f13cd36            0000000180053bcc     CanvasRenderingContext2d.obj
 0002:00012bd0       __real@3f50000000000000    0000000180053bd0     CanvasRenderingContext2d.obj
 0002:00012bd8       __real@3f800000            0000000180053bd8     color.obj
 0002:00012be0       __real@3fe0000000000000    0000000180053be0     CanvasRenderingContext2d.obj
 0002:00012be8       __real@3fe5555555555555    0000000180053be8     CanvasRenderingContext2d.obj
 0002:00012bf0       __real@3ff0000000000000    0000000180053bf0     CanvasRenderingContext2d.obj
 0002:00012bf8       __real@3ff6666666666666    0000000180053bf8     CanvasRenderingContext2d.obj
 0002:00012c00       __real@40000000            0000000180053c00     color.obj
 0002:00012c08       __real@4000000000000000    0000000180053c08     Image.obj
 0002:00012c10       __real@400921fb54442d18    0000000180053c10     CanvasRenderingContext2d.obj
 0002:00012c18       __real@401921fb54442d18    0000000180053c18     CanvasRenderingContext2d.obj
 0002:00012c20       __real@40400000            0000000180053c20     color.obj
 0002:00012c28       __real@4043af5f6fd21ff3    0000000180053c28     Canvas.obj
 0002:00012c30       __real@4059000000000000    0000000180053c30     Canvas.obj
 0002:00012c38       __real@406fe00000000000    0000000180053c38     color.obj
 0002:00012c40       __real@40800000            0000000180053c40     color.obj
 0002:00012c48       __real@4090000000000000    0000000180053c48     CanvasRenderingContext2d.obj
 0002:00012c50       __real@40c00000            0000000180053c50     color.obj
 0002:00012c58       __real@40c4000000000000    0000000180053c58     CanvasRenderingContext2d.obj
 0002:00012c60       __real@41200000            0000000180053c60     color.obj
 0002:00012c64       __real@42c80000            0000000180053c64     color.obj
 0002:00012c68       __real@437f0000            0000000180053c68     color.obj
 0002:00012c6c       __real@43b40000            0000000180053c6c     color.obj
 0002:00012c70       __real@477fff00            0000000180053c70     CanvasRenderingContext2d.obj
 0002:00012c78       __real@7ff0000000000000    0000000180053c78     CanvasRenderingContext2d.obj
 0002:00012c80       __real@bff0000000000000    0000000180053c80     Canvas.obj
 0002:00012c88       __real@c0c00000            0000000180053c88     color.obj
 0002:00012c90       __real@fff0000000000000    0000000180053c90     CanvasRenderingContext2d.obj
 0002:00012ca0       __xmm@000000000000000f0000000000000000 0000000180053ca0     Backend.obj
 0002:00012cb0       __xmm@3ff00000000000000000000000000000 0000000180053cb0     CanvasRenderingContext2d.obj
 0002:00012cc0       __xmm@80000000000000008000000000000000 0000000180053cc0     CanvasRenderingContext2d.obj
 0002:00012cd0       __xmm@80000000800000008000000080000000 0000000180053cd0     CanvasRenderingContext2d.obj
 0002:00013cb0       __real@3c91a62633145c07    0000000180054cb0     libucrt:acos.obj
 0002:00013cb8       __real@3f0951665d321061    0000000180054cb8     libucrt:acos.obj
 0002:00013cc0       __real@3f51e5f887a62135    0000000180054cc0     libucrt:acos.obj
 0002:00013cc8       __real@3fac28d390c29690    0000000180054cc8     libucrt:acos.obj
 0002:00013cd0       __real@3fbb1a422982ce76    0000000180054cd0     libucrt:acos.obj
 0002:00013cd8       __real@3fcd1e4180029834    0000000180054cd8     libucrt:acos.obj
 0002:00013ce0       __real@3fd1a2bec1b7ef59    0000000180054ce0     libucrt:acos.obj
 0002:00013ce8       __real@3fdc7b297e269eac    0000000180054ce8     libucrt:acos.obj
 0002:00013cf0       __real@3fee324ab418f78d    0000000180054cf0     libucrt:acos.obj
 0002:00013cf8       __real@3ff5d6b12001f228    0000000180054cf8     libucrt:acos.obj
 0002:00013d00       __real@3ff921fb54442d18    0000000180054d00     libucrt:acos.obj
 0002:00013d08       __real@40062021571dccfc    0000000180054d08     libucrt:acos.obj
 0002:00013d10       __real@400a4646f903cdea    0000000180054d10     libucrt:acos.obj
 0002:00013d18       ??_C@_05FFFCHCED@acosf?$AA@ 0000000180054d18     libucrt:acosf.obj
 0002:00013d20       __real@3b81ce6b            0000000180054d20     libucrt:acosf.obj
 0002:00013d24       __real@3d678bdd            0000000180054d24     libucrt:acosf.obj
 0002:00013d28       __real@3e3c94dc            0000000180054d28     libucrt:acosf.obj
 0002:00013d2c       __real@3f561f0d            0000000180054d2c     libucrt:acosf.obj
 0002:00013d30       __real@3f8d6fa5            0000000180054d30     libucrt:acosf.obj
 0002:00013d34       __real@3fc90fdb            0000000180054d34     libucrt:acosf.obj
 0002:00013d38       __real@40490fdb            0000000180054d38     libucrt:acosf.obj
 0002:00013d3c       __real@bc5b3fe1            0000000180054d3c     libucrt:acosf.obj
 0002:00013d40       __real@bf800000            0000000180054d40     libucrt:acosf.obj
 0002:00013d44       ??_C@_05OOAOEJGP@fmodf?$AA@ 0000000180054d44     libucrt:fmodf.obj
 0002:00013d4c       ??_C@_05KGFAIMPG@sqrtf?$AA@ 0000000180054d4c     libucrt:sqrtf.obj
 0002:00014210       __L_2_by_pi_bits           0000000180055210     libucrt:l2_by_pi_bits.obj
 0002:00014320       ??_R4exception@std@@6B@    0000000180055320     libcpmt:xonce.obj
 0002:00014348       ??_R3exception@std@@8      0000000180055348     libcpmt:xonce.obj
 0002:00014360       ??_R2exception@std@@8      0000000180055360     libcpmt:xonce.obj
 0002:00014370       ??_R1A@?0A@EA@exception@std@@8 0000000180055370     libcpmt:xonce.obj
 0002:00014398       ??_R4bad_alloc@std@@6B@    0000000180055398     libcpmt:xthrow.obj
 0002:000143c0       ??_R3bad_alloc@std@@8      00000001800553c0     libcpmt:xthrow.obj
 0002:000143d8       ??_R2bad_alloc@std@@8      00000001800553d8     libcpmt:xthrow.obj
 0002:000143f0       ??_R1A@?0A@EA@bad_alloc@std@@8 00000001800553f0     libcpmt:xthrow.obj
 0002:00014418       ??_R4logic_error@std@@6B@  0000000180055418     libcpmt:xthrow.obj
 0002:00014440       ??_R3logic_error@std@@8    0000000180055440     libcpmt:xthrow.obj
 0002:00014458       ??_R2logic_error@std@@8    0000000180055458     libcpmt:xthrow.obj
 0002:00014470       ??_R1A@?0A@EA@logic_error@std@@8 0000000180055470     libcpmt:xthrow.obj
 0002:00014498       ??_R4length_error@std@@6B@ 0000000180055498     libcpmt:xthrow.obj
 0002:000144c0       ??_R3length_error@std@@8   00000001800554c0     libcpmt:xthrow.obj
 0002:000144d8       ??_R2length_error@std@@8   00000001800554d8     libcpmt:xthrow.obj
 0002:000144f8       ??_R1A@?0A@EA@length_error@std@@8 00000001800554f8     libcpmt:xthrow.obj
 0002:00014520       ??_R4bad_function_call@std@@6B@ 0000000180055520     libcpmt:xthrow.obj
 0002:00014548       ??_R3bad_function_call@std@@8 0000000180055548     libcpmt:xthrow.obj
 0002:00014560       ??_R2bad_function_call@std@@8 0000000180055560     libcpmt:xthrow.obj
 0002:00014578       ??_R1A@?0A@EA@bad_function_call@std@@8 0000000180055578     libcpmt:xthrow.obj
 0002:000145a0       ??_R4type_info@@6B@        00000001800555a0     LIBCMT:std_type_info_static.obj
 0002:000145c8       ??_R3type_info@@8          00000001800555c8     LIBCMT:std_type_info_static.obj
 0002:000145e0       ??_R2type_info@@8          00000001800555e0     LIBCMT:std_type_info_static.obj
 0002:000145f0       ??_R1A@?0A@EA@type_info@@8 00000001800555f0     LIBCMT:std_type_info_static.obj
 0002:00014618       ??_R4bad_array_new_length@std@@6B@ 0000000180055618     LIBCMT:throw_bad_alloc.obj
 0002:00014640       ??_R3bad_array_new_length@std@@8 0000000180055640     LIBCMT:throw_bad_alloc.obj
 0002:00014658       ??_R2bad_array_new_length@std@@8 0000000180055658     LIBCMT:throw_bad_alloc.obj
 0002:00014678       ??_R1A@?0A@EA@bad_array_new_length@std@@8 0000000180055678     LIBCMT:throw_bad_alloc.obj
 0002:000146a0       ??_R4bad_exception@std@@6B@ 00000001800556a0     libvcruntime:frame.obj
 0002:000146c8       ??_R3bad_exception@std@@8  00000001800556c8     libvcruntime:frame.obj
 0002:000146e0       ??_R2bad_exception@std@@8  00000001800556e0     libvcruntime:frame.obj
 0002:000146f8       ??_R1A@?0A@EA@bad_exception@std@@8 00000001800556f8     libvcruntime:frame.obj
 0002:00014b48       __rtc_iaa                  0000000180055b48     LIBCMT:_initsect_.obj
 0002:00014b50       __rtc_izz                  0000000180055b50     LIBCMT:_initsect_.obj
 0002:00014b58       __rtc_taa                  0000000180055b58     LIBCMT:_initsect_.obj
 0002:00014b60       __rtc_tzz                  0000000180055b60     LIBCMT:_initsect_.obj
 0002:000194c0       _CT??_R0?AVexception@std@@@8??0exception@std@@QEAA@AEBV01@@Z24 000000018005a4c0     libcpmt:xonce.obj
 0002:000194e8       _TI2?AVbad_alloc@std@@     000000018005a4e8     libcpmt:xthrow.obj
 0002:00019508       _CTA2?AVbad_alloc@std@@    000000018005a508     libcpmt:xthrow.obj
 0002:00019520       _CT??_R0?AVbad_alloc@std@@@8??0bad_alloc@std@@QEAA@AEBV01@@Z24 000000018005a520     libcpmt:xthrow.obj
 0002:00019548       _CT??_R0?AVlogic_error@std@@@8??0logic_error@std@@QEAA@AEBV01@@Z24 000000018005a548     libcpmt:xthrow.obj
 0002:00019570       _TI3?AVlength_error@std@@  000000018005a570     libcpmt:xthrow.obj
 0002:00019590       _CTA3?AVlength_error@std@@ 000000018005a590     libcpmt:xthrow.obj
 0002:000195b0       _CT??_R0?AVlength_error@std@@@8??0length_error@std@@QEAA@AEBV01@@Z24 000000018005a5b0     libcpmt:xthrow.obj
 0002:000195d8       _TI2?AVbad_function_call@std@@ 000000018005a5d8     libcpmt:xthrow.obj
 0002:000195f8       _CTA2?AVbad_function_call@std@@ 000000018005a5f8     libcpmt:xthrow.obj
 0002:00019610       _CT??_R0?AVbad_function_call@std@@@8??0bad_function_call@std@@QEAA@AEBV01@@Z24 000000018005a610     libcpmt:xthrow.obj
 0002:00019638       _TI3?AVbad_array_new_length@std@@ 000000018005a638     LIBCMT:throw_bad_alloc.obj
 0002:00019658       _CTA3?AVbad_array_new_length@std@@ 000000018005a658     LIBCMT:throw_bad_alloc.obj
 0002:00019678       _CT??_R0?AVbad_array_new_length@std@@@8??0bad_array_new_length@std@@QEAA@AEBV01@@Z24 000000018005a678     LIBCMT:throw_bad_alloc.obj
 0002:000196a0       _TI2?AVbad_exception@std@@ 000000018005a6a0     libvcruntime:frame.obj
 0002:000196c0       _CTA2?AVbad_exception@std@@ 000000018005a6c0     libvcruntime:frame.obj
 0002:000196d8       _CT??_R0?AVbad_exception@std@@@8??0bad_exception@std@@QEAA@AEBV01@@Z24 000000018005a6d8     libvcruntime:frame.obj
 0002:00019700       _CT??_R0?AW4_cairo_status@@@84 000000018005a700     Canvas.obj
 0002:00019728       _TI1?AW4_cairo_status@@    000000018005a728     Canvas.obj
 0002:00019748       _CTA2PEAD                  000000018005a748     Canvas.obj
 0002:00019760       _CT??_R0PEAD@88            000000018005a760     Canvas.obj
 0002:00019788       _TI2PEAD                   000000018005a788     Canvas.obj
 0002:000197a8       _CT??_R0PEAX@88            000000018005a7a8     Canvas.obj
 0002:000197d0       _CTA1?AW4_cairo_status@@   000000018005a7d0     Canvas.obj
 0002:000197dc       __DELAY_IMPORT_DESCRIPTOR_node_exe 000000018005a7dc     node:node.exe
 0002:000197fc       __NULL_DELAY_IMPORT_DESCRIPTOR 000000018005a7fc     node:node.exe
 0002:00019b58       \177node_NULL_THUNK_DATA_DLN 000000018005ab58     node:node.exe
 0002:0001b708       \177node_NULL_THUNK_DATA_DLB 000000018005c708     node:node.exe
 0002:0001bc90       __IMPORT_DESCRIPTOR_KERNEL32 000000018005cc90     kernel32:KERNEL32.dll
 0002:0001bca4       __IMPORT_DESCRIPTOR_GDI32  000000018005cca4     gdi32:GDI32.dll
 0002:0001bcb8       _head_C__msys64_mingw64_lib_libcairo_2_lib 000000018005ccb8     libcairo-2:dszbh.o
 0002:0001bccc       _head_C__msys64_mingw64_lib_libpng16_16_lib 000000018005cccc     libpng16-16:dquh.o
 0002:0001bce0       _head_C__msys64_mingw64_lib_libjpeg_8_lib 000000018005cce0     libjpeg-8:dmagh.o
 0002:0001bcf4       _head_C__msys64_mingw64_lib_libpango_1_0_0_lib 000000018005ccf4     libpango-1.0-0:dwleh.o
 0002:0001bd08       _head_C__msys64_mingw64_lib_libpangocairo_1_0_0_lib 000000018005cd08     libpangocairo-1.0-0:dohdh.o
 0002:0001bd1c       _head_C__msys64_mingw64_lib_libgobject_2_0_0_lib 000000018005cd1c     libgobject-2.0-0:dgdeh.o
 0002:0001bd30       _head_C__msys64_mingw64_lib_libglib_2_0_0_lib 000000018005cd30     libglib-2.0-0:dwtdh.o
 0002:0001bd44       _head_C__msys64_mingw64_lib_libgif_7_lib 000000018005cd44     libgif-7:dkjbh.o
 0002:0001bd58       _head_C__msys64_mingw64_lib_libfreetype_6_lib 000000018005cd58     libfreetype-6:dwrbh.o
 0002:0001bd6c       _head_C__msys64_mingw64_lib_librsvg_2_2_lib 000000018005cd6c     librsvg-2-2:duceh.o
 0002:0001bd80       __NULL_IMPORT_DESCRIPTOR   000000018005cd80     kernel32:KERNEL32.dll
 0002:0001e2d0       __C__msys64_mingw64_lib_libcairo_2_lib_iname 000000018005f2d0     libcairo-2:dszbt.o
 0002:0001e340       __C__msys64_mingw64_lib_libpng16_16_lib_iname 000000018005f340     libpng16-16:dqut.o
 0002:0001e39c       __C__msys64_mingw64_lib_libjpeg_8_lib_iname 000000018005f39c     libjpeg-8:dmagt.o
 0002:0001e414       __C__msys64_mingw64_lib_libpango_1_0_0_lib_iname 000000018005f414     libpango-1.0-0:dwlet.o
 0002:0001e43c       __C__msys64_mingw64_lib_libpangocairo_1_0_0_lib_iname 000000018005f43c     libpangocairo-1.0-0:dohdt.o
 0002:0001e458       __C__msys64_mingw64_lib_libgobject_2_0_0_lib_iname 000000018005f458     libgobject-2.0-0:dgdet.o
 0002:0001e4c0       __C__msys64_mingw64_lib_libglib_2_0_0_lib_iname 000000018005f4c0     libglib-2.0-0:dwtdt.o
 0002:0001e4e0       __C__msys64_mingw64_lib_libgif_7_lib_iname 000000018005f4e0     libgif-7:dkjbt.o
 0002:0001e50c       __C__msys64_mingw64_lib_libfreetype_6_lib_iname 000000018005f50c     libfreetype-6:dwrbt.o
 0002:0001e52c       __C__msys64_mingw64_lib_librsvg_2_2_lib_iname 000000018005f52c     librsvg-2-2:ducet.o
 0003:00000004       ?_Sync@ios_base@std@@0_NA  0000000180060004     libcpmt:ios.obj
 0003:00000010       ?_PJP_CPP_Copyright@@3PADA 0000000180060010     libcpmt:iosptrs.obj
 0003:00000070       __scrt_native_dllmain_reason 0000000180060070     LIBCMT:utility.obj
 0003:00000078       __security_cookie_complement 0000000180060078     LIBCMT:gs_cookie.obj
 0003:00000080       __security_cookie          0000000180060080     LIBCMT:gs_cookie.obj
 0003:00000088       _fltused                   0000000180060088     LIBCMT:fltused.obj
 0003:00000090       __isa_available            0000000180060090     LIBCMT:_cpu_disp_.obj
 0003:00000094       __isa_enabled              0000000180060094     LIBCMT:_cpu_disp_.obj
 0003:00000098       __memcpy_nt_iters          0000000180060098     LIBCMT:_cpu_disp_.obj
 0003:000000b0       __abort_behavior           00000001800600b0     libucrt:abort.obj
 0003:000000c0       _iob                       00000001800600c0     libucrt:_file.obj
 0003:000001d0       _pwctype                   00000001800601d0     libucrt:ctype.obj
 0003:000001e0       __acrt_lconv_c             00000001800601e0     libucrt:localeconv.obj
 0003:00000278       __acrt_lconv_static_decimal 0000000180060278     libucrt:localeconv.obj
 0003:0000027c       __acrt_lconv_static_W_decimal 000000018006027c     libucrt:localeconv.obj
 0003:00000290       __badioinfo                0000000180060290     libucrt:ioinit.obj
 0003:000002e0       __acrt_initial_locale_data 00000001800602e0     libucrt:nlsdata.obj
 0003:00000438       __acrt_initial_locale_pointers 0000000180060438     libucrt:nlsdata.obj
 0003:00000448       __acrt_wide_c_locale_string 0000000180060448     libucrt:nlsdata.obj
 0003:00000450       _lookuptrailbytes          0000000180060450     libucrt:read.obj
 0003:00000550       __globallocalestatus       0000000180060550     libucrt:glstatus.obj
 0003:00000920       __acrt_initial_multibyte_data 0000000180060920     libucrt:mbctype.obj
 0003:00000ba0       ??_R0?AVexception@std@@@8  0000000180060ba0     libcpmt:xonce.obj
 0003:00000bc8       ??_R0?AVbad_alloc@std@@@8  0000000180060bc8     libcpmt:xthrow.obj
 0003:00000bf0       ??_R0?AVlogic_error@std@@@8 0000000180060bf0     libcpmt:xthrow.obj
 0003:00000c18       ??_R0?AVlength_error@std@@@8 0000000180060c18     libcpmt:xthrow.obj
 0003:00000c40       ??_R0?AVbad_function_call@std@@@8 0000000180060c40     libcpmt:xthrow.obj
 0003:00000c70       ??_R0?AVtype_info@@@8      0000000180060c70     LIBCMT:std_type_info_static.obj
 0003:00000c90       ??_R0?AVbad_array_new_length@std@@@8 0000000180060c90     LIBCMT:throw_bad_alloc.obj
 0003:00000cc0       ??_R0?AVbad_exception@std@@@8 0000000180060cc0     libvcruntime:frame.obj
 0003:00000ce8       ??_R0?AW4_cairo_status@@@8 0000000180060ce8     Canvas.obj
 0003:00000d10       ??_R0PEAD@8                0000000180060d10     Canvas.obj
 0003:00000d28       ??_R0PEAX@8                0000000180060d28     Canvas.obj
 0003:00000e00       __imp_?GetCurrentContext@Isolate@v8@@QEAA?AV?$Local@VContext@v8@@@2@XZ 0000000180060e00     node:node.exe
 0003:00000e08       __imp_?GetCurrent@Isolate@v8@@SAPEAV12@XZ 0000000180060e08     node:node.exe
 0003:00000e10       __imp_??1HandleScope@v8@@QEAA@XZ 0000000180060e10     node:node.exe
 0003:00000e18       __imp_??0HandleScope@v8@@QEAA@PEAVIsolate@1@@Z 0000000180060e18     node:node.exe
 0003:00000e20       __imp_?ClearWeak@V8@v8@@CAPEAXPEAPEAVObject@internal@2@@Z 0000000180060e20     node:node.exe
 0003:00000e28       __imp_?MakeWeak@V8@v8@@CAXPEAPEAVObject@internal@2@PEAXP6AXAEBV?$WeakCallbackInfo@X@2@@ZW4WeakCallbackType@2@@Z 0000000180060e28     node:node.exe
 0003:00000e30       __imp_?DisposeGlobal@V8@v8@@CAXPEAPEAVObject@internal@2@@Z 0000000180060e30     node:node.exe
 0003:00000e38       __imp_?GlobalizeReference@V8@v8@@CAPEAPEAVObject@internal@2@PEAVIsolate@42@PEAPEAV342@@Z 0000000180060e38     node:node.exe
 0003:00000e40       __imp_?Uint32Value@Value@v8@@QEBA?AV?$Maybe@I@2@V?$Local@VContext@v8@@@2@@Z 0000000180060e40     node:node.exe
 0003:00000e48       __imp_?IsNumber@Value@v8@@QEBA_NXZ 0000000180060e48     node:node.exe
 0003:00000e50       __imp_?SetAlignedPointerInInternalField@Object@v8@@QEAAXHPEAX@Z 0000000180060e50     node:node.exe
 0003:00000e58       __imp_?InternalFieldCount@Object@v8@@QEAAHXZ 0000000180060e58     node:node.exe
 0003:00000e60       __imp_?Value@External@v8@@QEBAPEAXXZ 0000000180060e60     node:node.exe
 0003:00000e68       __imp_?New@External@v8@@SA?AV?$Local@VExternal@v8@@@2@PEAVIsolate@2@PEAX@Z 0000000180060e68     node:node.exe
 0003:00000e70       __imp_?CheckMemoryPressure@Isolate@v8@@AEAAXXZ 0000000180060e70     node:node.exe
 0003:00000e78       __imp_?ReportExternalAllocationLimitReached@Isolate@v8@@AEAAXXZ 0000000180060e78     node:node.exe
 0003:00000e80       __imp_?CreateHandle@HandleScope@v8@@KAPEAPEAVObject@internal@2@PEAVIsolate@42@PEAV342@@Z 0000000180060e80     node:node.exe
 0003:00000e88       __imp_?CreateHandle@HandleScope@v8@@CAPEAPEAVObject@internal@2@PEAVNeverReadOnlySpaceObject@42@PEAV342@@Z 0000000180060e88     node:node.exe
 0003:00000e90       __imp_?SetClassName@FunctionTemplate@v8@@QEAAXV?$Local@VString@v8@@@2@@Z 0000000180060e90     node:node.exe
 0003:00000e98       __imp_?InstanceTemplate@FunctionTemplate@v8@@QEAA?AV?$Local@VObjectTemplate@v8@@@2@XZ 0000000180060e98     node:node.exe
 0003:00000ea0       __imp_?GetFunction@FunctionTemplate@v8@@QEAA?AV?$Local@VFunction@v8@@@2@XZ 0000000180060ea0     node:node.exe
 0003:00000ea8       __imp_?New@FunctionTemplate@v8@@SA?AV?$Local@VFunctionTemplate@v8@@@2@PEAVIsolate@2@P6AXAEBV?$FunctionCallbackInfo@VValue@v8@@@2@@ZV?$Local@VValue@v8@@@2@V?$Local@VSignature@v8@@@2@HW4ConstructorBehavior@2@W4SideEffectType@2@@Z 0000000180060ea8     node:node.exe
 0003:00000eb0       __imp_?ToLocalEmpty@V8@v8@@CAXXZ 0000000180060eb0     node:node.exe
 0003:00000eb8       __imp_?Escape@EscapableHandleScope@v8@@AEAAPEAPEAVObject@internal@2@PEAPEAV342@@Z 0000000180060eb8     node:node.exe
 0003:00000ec0       __imp_??0EscapableHandleScope@v8@@QEAA@PEAVIsolate@1@@Z 0000000180060ec0     node:node.exe
 0003:00000ec8       __imp_?NewFromUtf8@String@v8@@SA?AV?$MaybeLocal@VString@v8@@@2@PEAVIsolate@2@PEBDW4NewStringType@2@H@Z 0000000180060ec8     node:node.exe
 0003:00000ed0       __imp_?SlowGetInternalField@Object@v8@@AEAA?AV?$Local@VValue@v8@@@2@H@Z 0000000180060ed0     node:node.exe
 0003:00000ed8       __imp_?SetInternalField@Object@v8@@QEAAXHV?$Local@VValue@v8@@@2@@Z 0000000180060ed8     node:node.exe
 0003:00000ee0       __imp_?Set@Object@v8@@QEAA_NV?$Local@VValue@v8@@@2@0@Z 0000000180060ee0     node:node.exe
 0003:00000ee8       __imp_?SetInternalFieldCount@ObjectTemplate@v8@@QEAAXH@Z 0000000180060ee8     node:node.exe
 0003:00000ef0       __imp_?NewInstance@ObjectTemplate@v8@@QEAA?AV?$MaybeLocal@VObject@v8@@@2@V?$Local@VContext@v8@@@2@@Z 0000000180060ef0     node:node.exe
 0003:00000ef8       __imp_?New@ObjectTemplate@v8@@SA?AV?$Local@VObjectTemplate@v8@@@2@PEAVIsolate@2@V?$Local@VFunctionTemplate@v8@@@2@@Z 0000000180060ef8     node:node.exe
 0003:00000f00       __imp_??1EscapableHandleScope@v8@@QEAA@XZ 0000000180060f00     node:node.exe
 0003:00000f08       __imp_?New@Object@v8@@SA?AV?$Local@VObject@v8@@@2@PEAVIsolate@2@@Z 0000000180060f08     node:node.exe
 0003:00000f10       __imp_uv_queue_work        0000000180060f10     node:node.exe
 0003:00000f18       __imp_?Global@Context@v8@@QEAA?AV?$Local@VObject@v8@@@2@XZ 0000000180060f18     node:node.exe
 0003:00000f20       __imp_?NewFromUnsigned@Integer@v8@@SA?AV?$Local@VInteger@v8@@@2@PEAVIsolate@2@I@Z 0000000180060f20     node:node.exe
 0003:00000f28       __imp_?New@Signature@v8@@SA?AV?$Local@VSignature@v8@@@2@PEAVIsolate@2@V?$Local@VFunctionTemplate@v8@@@2@@Z 0000000180060f28     node:node.exe
 0003:00000f30       __imp_?ThrowException@Isolate@v8@@QEAA?AV?$Local@VValue@v8@@@2@V32@@Z 0000000180060f30     node:node.exe
 0003:00000f38       __imp_?Length@TypedArray@v8@@QEAA_KXZ 0000000180060f38     node:node.exe
 0003:00000f40       __imp_?Set@Template@v8@@QEAAXV?$Local@VName@v8@@@2@V?$Local@VData@v8@@@2@W4PropertyAttribute@2@@Z 0000000180060f40     node:node.exe
 0003:00000f48       __imp_?ByteLength@ArrayBufferView@v8@@QEAA_KXZ 0000000180060f48     node:node.exe
 0003:00000f50       __imp_?ByteOffset@ArrayBufferView@v8@@QEAA_KXZ 0000000180060f50     node:node.exe
 0003:00000f58       __imp_?Buffer@ArrayBufferView@v8@@QEAA?AV?$Local@VArrayBuffer@v8@@@2@XZ 0000000180060f58     node:node.exe
 0003:00000f60       __imp_?Error@Exception@v8@@SA?AV?$Local@VValue@v8@@@2@V?$Local@VString@v8@@@2@@Z 0000000180060f60     node:node.exe
 0003:00000f68       __imp_?TypeError@Exception@v8@@SA?AV?$Local@VValue@v8@@@2@V?$Local@VString@v8@@@2@@Z 0000000180060f68     node:node.exe
 0003:00000f70       __imp_?New@AccessorSignature@v8@@SA?AV?$Local@VAccessorSignature@v8@@@2@PEAVIsolate@2@V?$Local@VFunctionTemplate@v8@@@2@@Z 0000000180060f70     node:node.exe
 0003:00000f78       __imp_?HasInstance@FunctionTemplate@v8@@QEAA_NV?$Local@VValue@v8@@@2@@Z 0000000180060f78     node:node.exe
 0003:00000f80       __imp_?PrototypeTemplate@FunctionTemplate@v8@@QEAA?AV?$Local@VObjectTemplate@v8@@@2@XZ 0000000180060f80     node:node.exe
 0003:00000f88       __imp_?GetContents@ArrayBuffer@v8@@QEAA?AVContents@12@XZ 0000000180060f88     node:node.exe
 0003:00000f90       __imp_?StrictEquals@Value@v8@@QEBA_NV?$Local@VValue@v8@@@2@@Z 0000000180060f90     node:node.exe
 0003:00000f98       __imp_?NumberValue@Value@v8@@QEBA?AV?$Maybe@N@2@V?$Local@VContext@v8@@@2@@Z 0000000180060f98     node:node.exe
 0003:00000fa0       __imp_?BooleanValue@Value@v8@@QEBA?AV?$Maybe@_N@2@V?$Local@VContext@v8@@@2@@Z 0000000180060fa0     node:node.exe
 0003:00000fa8       __imp_?ToUint32@Value@v8@@QEBA?AV?$MaybeLocal@VUint32@v8@@@2@V?$Local@VContext@v8@@@2@@Z 0000000180060fa8     node:node.exe
 0003:00000fb0       __imp_?ToObject@Value@v8@@QEBA?AV?$MaybeLocal@VObject@v8@@@2@V?$Local@VContext@v8@@@2@@Z 0000000180060fb0     node:node.exe
 0003:00000fb8       __imp_?ToString@Value@v8@@QEBA?AV?$Local@VString@v8@@@2@PEAVIsolate@2@@Z 0000000180060fb8     node:node.exe
 0003:00000fc0       __imp_?IsUint8ClampedArray@Value@v8@@QEBA_NXZ 0000000180060fc0     node:node.exe
 0003:00000fc8       __imp_?IsArrayBufferView@Value@v8@@QEBA_NXZ 0000000180060fc8     node:node.exe
 0003:00000fd0       __imp_?IsUint32@Value@v8@@QEBA_NXZ 0000000180060fd0     node:node.exe
 0003:00000fd8       __imp_?IsBoolean@Value@v8@@QEBA_NXZ 0000000180060fd8     node:node.exe
 0003:00000fe0       __imp_?IsObject@Value@v8@@QEBA_NXZ 0000000180060fe0     node:node.exe
 0003:00000fe8       __imp_?IsFunction@Value@v8@@QEBA_NXZ 0000000180060fe8     node:node.exe
 0003:00000ff0       __imp_?ReThrow@TryCatch@v8@@QEAA?AV?$Local@VValue@v8@@@2@XZ 0000000180060ff0     node:node.exe
 0003:00000ff8       __imp_?HasCaught@TryCatch@v8@@QEBA_NXZ 0000000180060ff8     node:node.exe
 0003:00001000       __imp_??1TryCatch@v8@@QEAA@XZ 0000000180061000     node:node.exe
 0003:00001008       __imp_??0TryCatch@v8@@QEAA@PEAVIsolate@1@@Z 0000000180061008     node:node.exe
 0003:00001010       __imp_?WriteUtf8@String@v8@@QEBAHPEAVIsolate@2@PEADHPEAHH@Z 0000000180061010     node:node.exe
 0003:00001018       __imp_?Length@String@v8@@QEBAHXZ 0000000180061018     node:node.exe
 0003:00001020       __imp_?New@Number@v8@@SA?AV?$Local@VNumber@v8@@@2@PEAVIsolate@2@N@Z 0000000180061020     node:node.exe
 0003:00001028       __imp_?SlowGetAlignedPointerFromInternalField@Object@v8@@AEAAPEAXH@Z 0000000180061028     node:node.exe
 0003:00001030       __imp_?Get@Object@v8@@QEAA?AV?$Local@VValue@v8@@@2@V32@@Z 0000000180061030     node:node.exe
 0003:00001038       __imp_?Set@Object@v8@@QEAA?AV?$Maybe@_N@2@V?$Local@VContext@v8@@@2@V?$Local@VValue@v8@@@2@1@Z 0000000180061038     node:node.exe
 0003:00001040       __imp_?Call@Function@v8@@QEAA?AV?$MaybeLocal@VValue@v8@@@2@V?$Local@VContext@v8@@@2@V?$Local@VValue@v8@@@2@HQEAV52@@Z 0000000180061040     node:node.exe
 0003:00001048       __imp_?SetAccessor@ObjectTemplate@v8@@QEAAXV?$Local@VName@v8@@@2@P6AX0AEBV?$PropertyCallbackInfo@VValue@v8@@@2@@ZP6AX0V?$Local@VValue@v8@@@2@AEBV?$PropertyCallbackInfo@X@2@@Z3W4AccessControl@2@W4PropertyAttribute@2@V?$Local@VAccessorSignature@v8@@@2@W4SideEffectType@2@@Z 0000000180061048     node:node.exe
 0003:00001050       __imp_?EmitAsyncDestroy@node@@YAXPEAVIsolate@v8@@Uasync_context@1@@Z 0000000180061050     node:node.exe
 0003:00001058       __imp_?New@Buffer@node@@YA?AV?$MaybeLocal@VObject@v8@@@v8@@PEAVIsolate@4@PEAD_KP6AX1PEAX@Z3@Z 0000000180061058     node:node.exe
 0003:00001060       __imp_?New@Buffer@node@@YA?AV?$MaybeLocal@VObject@v8@@@v8@@PEAVIsolate@4@PEAD_K@Z 0000000180061060     node:node.exe
 0003:00001068       __imp_?Copy@Buffer@node@@YA?AV?$MaybeLocal@VObject@v8@@@v8@@PEAVIsolate@4@PEBD_K@Z 0000000180061068     node:node.exe
 0003:00001070       __imp_?MakeCallback@node@@YA?AV?$MaybeLocal@VValue@v8@@@v8@@PEAVIsolate@3@V?$Local@VObject@v8@@@3@V?$Local@VFunction@v8@@@3@HPEAV?$Local@VValue@v8@@@3@Uasync_context@1@@Z 0000000180061070     node:node.exe
 0003:00001078       __imp_?EmitAsyncInit@node@@YA?AUasync_context@1@PEAVIsolate@v8@@V?$Local@VObject@v8@@@4@V?$Local@VString@v8@@@4@N@Z 0000000180061078     node:node.exe
 0003:00001080       __imp_uv_default_loop      0000000180061080     node:node.exe
 0003:00001088       __imp_?New@Uint8ClampedArray@v8@@SA?AV?$Local@VUint8ClampedArray@v8@@@2@V?$Local@VArrayBuffer@v8@@@2@_K1@Z 0000000180061088     node:node.exe
 0003:00001090       __imp_?New@Integer@v8@@SA?AV?$Local@VInteger@v8@@@2@PEAVIsolate@2@H@Z 0000000180061090     node:node.exe
 0003:00001098       __imp_?New@Array@v8@@SA?AV?$Local@VArray@v8@@@2@PEAVIsolate@2@H@Z 0000000180061098     node:node.exe
 0003:000010a0       __imp_?Length@Array@v8@@QEBAIXZ 00000001800610a0     node:node.exe
 0003:000010a8       __imp_?GetFunction@FunctionTemplate@v8@@QEAA?AV?$MaybeLocal@VFunction@v8@@@2@V?$Local@VContext@v8@@@2@@Z 00000001800610a8     node:node.exe
 0003:000010b0       __imp_?New@ArrayBuffer@v8@@SA?AV?$Local@VArrayBuffer@v8@@@2@PEAVIsolate@2@_K@Z 00000001800610b0     node:node.exe
 0003:000010b8       __imp_?Int32Value@Value@v8@@QEBA?AV?$Maybe@H@2@V?$Local@VContext@v8@@@2@@Z 00000001800610b8     node:node.exe
 0003:000010c0       __imp_?ToInt32@Value@v8@@QEBA?AV?$MaybeLocal@VInt32@v8@@@2@V?$Local@VContext@v8@@@2@@Z 00000001800610c0     node:node.exe
 0003:000010c8       __imp_?ToString@Value@v8@@QEBA?AV?$MaybeLocal@VString@v8@@@2@V?$Local@VContext@v8@@@2@@Z 00000001800610c8     node:node.exe
 0003:000010d0       __imp_?IsInt32@Value@v8@@QEBA_NXZ 00000001800610d0     node:node.exe
 0003:000010d8       __imp_?IsArray@Value@v8@@QEBA_NXZ 00000001800610d8     node:node.exe
 0003:000010e0       __imp_?New@Uint16Array@v8@@SA?AV?$Local@VUint16Array@v8@@@2@V?$Local@VArrayBuffer@v8@@@2@_K1@Z 00000001800610e0     node:node.exe
 0003:000010e8       __imp_?Get@Object@v8@@QEAA?AV?$Local@VValue@v8@@@2@I@Z 00000001800610e8     node:node.exe
 0003:000010f0       __imp_?NewInstance@Function@v8@@QEBA?AV?$MaybeLocal@VObject@v8@@@2@V?$Local@VContext@v8@@@2@HQEAV?$Local@VValue@v8@@@2@@Z 00000001800610f0     node:node.exe
 0003:000010f8       __imp_?Call@Function@v8@@QEAA?AV?$Local@VValue@v8@@@2@V32@HQEAV32@@Z 00000001800610f8     node:node.exe
 0003:00001100       __imp_?HasInstance@Buffer@node@@YA_NV?$Local@VValue@v8@@@v8@@@Z 0000000180061100     node:node.exe
 0003:00001108       __imp_?Data@Buffer@node@@YAPEADV?$Local@VObject@v8@@@v8@@@Z 0000000180061108     node:node.exe
 0003:00001110       __imp_?Length@Buffer@node@@YA_KV?$Local@VObject@v8@@@v8@@@Z 0000000180061110     node:node.exe
 0003:00001118       __imp_?ErrnoException@node@@YA?AV?$Local@VValue@v8@@@v8@@PEAVIsolate@3@HPEBD11@Z 0000000180061118     node:node.exe
 0003:00001120       __imp_?RangeError@Exception@v8@@SA?AV?$Local@VValue@v8@@@2@V?$Local@VString@v8@@@2@@Z 0000000180061120     node:node.exe
 0003:00001128       __imp_?IsUint16Array@Value@v8@@QEBA_NXZ 0000000180061128     node:node.exe
 0003:00001130       __imp_node_module_register 0000000180061130     node:node.exe
 0003:00001138       \177node_NULL_THUNK_DATA_DLA 0000000180061138     node:node.exe
 0003:00001140       __hmod__node_exe           0000000180061140     node:node.exe
 0003:000012a0       ?_Id_cnt@id@locale@std@@0HA 00000001800612a0     libcpmt:locale0.obj
 0003:000012a8       ?_Clocptr@_Locimp@locale@std@@0PEAV123@EA 00000001800612a8     libcpmt:locale0.obj
 0003:000012b0       ?id@?$ctype@_W@std@@2V0locale@2@A 00000001800612b0     libcpmt:locale0.obj
 0003:000012b8       ?id@?$ctype@D@std@@2V0locale@2@A 00000001800612b8     libcpmt:locale0.obj
 0003:000012c0       ?id@?$codecvt@GDU_Mbstatet@@@std@@2V0locale@2@A 00000001800612c0     libcpmt:locale0.obj
 0003:000012c8       ?id@?$ctype@G@std@@2V0locale@2@A 00000001800612c8     libcpmt:locale0.obj
 0003:000012e0       ?id@?$codecvt@_WDU_Mbstatet@@@std@@2V0locale@2@A 00000001800612e0     libcpmt:locale0.obj
 0003:00001300       ?_Index@ios_base@std@@0HA  0000000180061300     libcpmt:ios.obj
 0003:00001370       ?_Raise_handler@std@@3P6AXAEBVexception@stdext@@@ZEA 0000000180061370     libcpmt:raisehan.obj
 0003:00001380       __encodedKERNEL32Functions 0000000180061380     libcpmt:winapisupp.obj
 0003:000014c0       ?id@?$num_get@DV?$istreambuf_iterator@DU?$char_traits@D@std@@@std@@@std@@2V0locale@2@A 00000001800614c0     libcpmt:locale.obj
 0003:000014c8       ?id@?$num_put@DV?$ostreambuf_iterator@DU?$char_traits@D@std@@@std@@@std@@2V0locale@2@A 00000001800614c8     libcpmt:locale.obj
 0003:000014d0       ?id@?$numpunct@D@std@@2V0locale@2@A 00000001800614d0     libcpmt:locale.obj
 0003:000014d8       ?id@?$codecvt@DDU_Mbstatet@@@std@@2V0locale@2@A 00000001800614d8     libcpmt:locale.obj
 0003:000014e0       ?_Ptr_cin@std@@3PEAV?$basic_istream@DU?$char_traits@D@std@@@1@EA 00000001800614e0     libcpmt:iosptrs.obj
 0003:000014e8       ?_Ptr_cout@std@@3PEAV?$basic_ostream@DU?$char_traits@D@std@@@1@EA 00000001800614e8     libcpmt:iosptrs.obj
 0003:000014f0       ?_Ptr_cerr@std@@3PEAV?$basic_ostream@DU?$char_traits@D@std@@@1@EA 00000001800614f0     libcpmt:iosptrs.obj
 0003:000014f8       ?_Ptr_clog@std@@3PEAV?$basic_ostream@DU?$char_traits@D@std@@@1@EA 00000001800614f8     libcpmt:iosptrs.obj
 0003:00001500       ?_Ptr_wcin@std@@3PEAV?$basic_istream@_WU?$char_traits@_W@std@@@1@EA 0000000180061500     libcpmt:iosptrs.obj
 0003:00001508       ?_Ptr_wcout@std@@3PEAV?$basic_ostream@_WU?$char_traits@_W@std@@@1@EA 0000000180061508     libcpmt:iosptrs.obj
 0003:00001510       ?_Ptr_wcerr@std@@3PEAV?$basic_ostream@_WU?$char_traits@_W@std@@@1@EA 0000000180061510     libcpmt:iosptrs.obj
 0003:00001518       ?_Ptr_wclog@std@@3PEAV?$basic_ostream@_WU?$char_traits@_W@std@@@1@EA 0000000180061518     libcpmt:iosptrs.obj
 0003:00001580       ?id@?$time_put@_WV?$ostreambuf_iterator@_WU?$char_traits@_W@std@@@std@@@std@@2V0locale@2@A 0000000180061580     libcpmt:wlocale.obj
 0003:00001588       ?id@?$num_get@_WV?$istreambuf_iterator@_WU?$char_traits@_W@std@@@std@@@std@@2V0locale@2@A 0000000180061588     libcpmt:wlocale.obj
 0003:00001590       ?id@?$num_put@_WV?$ostreambuf_iterator@_WU?$char_traits@_W@std@@@std@@@std@@2V0locale@2@A 0000000180061590     libcpmt:wlocale.obj
 0003:00001598       ?id@?$numpunct@_W@std@@2V0locale@2@A 0000000180061598     libcpmt:wlocale.obj
 0003:000015a0       ?id@?$collate@_W@std@@2V0locale@2@A 00000001800615a0     libcpmt:wlocale.obj
 0003:000015a8       ?id@?$messages@_W@std@@2V0locale@2@A 00000001800615a8     libcpmt:wlocale.obj
 0003:000015b0       ?id@?$money_get@_WV?$istreambuf_iterator@_WU?$char_traits@_W@std@@@std@@@std@@2V0locale@2@A 00000001800615b0     libcpmt:wlocale.obj
 0003:000015b8       ?id@?$money_put@_WV?$ostreambuf_iterator@_WU?$char_traits@_W@std@@@std@@@std@@2V0locale@2@A 00000001800615b8     libcpmt:wlocale.obj
 0003:000015c0       ?id@?$moneypunct@_W$0A@@std@@2V0locale@2@A 00000001800615c0     libcpmt:wlocale.obj
 0003:000015c8       ?id@?$moneypunct@_W$00@std@@2V0locale@2@A 00000001800615c8     libcpmt:wlocale.obj
 0003:000015d0       ?id@?$time_get@_WV?$istreambuf_iterator@_WU?$char_traits@_W@std@@@std@@@std@@2V0locale@2@A 00000001800615d0     libcpmt:wlocale.obj
 0003:000015d8       ?id@?$num_get@GV?$istreambuf_iterator@GU?$char_traits@G@std@@@std@@@std@@2V0locale@2@A 00000001800615d8     libcpmt:wlocale.obj
 0003:000015e0       ?id@?$num_put@GV?$ostreambuf_iterator@GU?$char_traits@G@std@@@std@@@std@@2V0locale@2@A 00000001800615e0     libcpmt:wlocale.obj
 0003:000015e8       ?id@?$numpunct@G@std@@2V0locale@2@A 00000001800615e8     libcpmt:wlocale.obj
 0003:000015f0       ?id@?$collate@G@std@@2V0locale@2@A 00000001800615f0     libcpmt:wlocale.obj
 0003:000015f8       ?id@?$messages@G@std@@2V0locale@2@A 00000001800615f8     libcpmt:wlocale.obj
 0003:00001600       ?id@?$money_get@GV?$istreambuf_iterator@GU?$char_traits@G@std@@@std@@@std@@2V0locale@2@A 0000000180061600     libcpmt:wlocale.obj
 0003:00001608       ?id@?$money_put@GV?$ostreambuf_iterator@GU?$char_traits@G@std@@@std@@@std@@2V0locale@2@A 0000000180061608     libcpmt:wlocale.obj
 0003:00001610       ?id@?$moneypunct@G$0A@@std@@2V0locale@2@A 0000000180061610     libcpmt:wlocale.obj
 0003:00001618       ?id@?$moneypunct@G$00@std@@2V0locale@2@A 0000000180061618     libcpmt:wlocale.obj
 0003:00001620       ?id@?$time_get@GV?$istreambuf_iterator@GU?$char_traits@G@std@@@std@@@std@@2V0locale@2@A 0000000180061620     libcpmt:wlocale.obj
 0003:00001628       ?id@?$time_put@GV?$ostreambuf_iterator@GU?$char_traits@G@std@@@std@@@std@@2V0locale@2@A 0000000180061628     libcpmt:wlocale.obj
 0003:00001630       ?id@?$collate@D@std@@2V0locale@2@A 0000000180061630     libcpmt:xlocale.obj
 0003:00001638       ?id@?$messages@D@std@@2V0locale@2@A 0000000180061638     libcpmt:xlocale.obj
 0003:00001640       ?id@?$money_get@DV?$istreambuf_iterator@DU?$char_traits@D@std@@@std@@@std@@2V0locale@2@A 0000000180061640     libcpmt:xlocale.obj
 0003:00001648       ?id@?$money_put@DV?$ostreambuf_iterator@DU?$char_traits@D@std@@@std@@@std@@2V0locale@2@A 0000000180061648     libcpmt:xlocale.obj
 0003:00001650       ?id@?$moneypunct@D$0A@@std@@2V0locale@2@A 0000000180061650     libcpmt:xlocale.obj
 0003:00001658       ?id@?$moneypunct@D$00@std@@2V0locale@2@A 0000000180061658     libcpmt:xlocale.obj
 0003:00001660       ?id@?$time_get@DV?$istreambuf_iterator@DU?$char_traits@D@std@@@std@@@std@@2V0locale@2@A 0000000180061660     libcpmt:xlocale.obj
 0003:00001668       ?id@?$time_put@DV?$ostreambuf_iterator@DU?$char_traits@D@std@@@std@@@std@@2V0locale@2@A 0000000180061668     libcpmt:xlocale.obj
 0003:00001670       __scrt_current_native_startup_state 0000000180061670     LIBCMT:utility.obj
 0003:00001678       __scrt_native_startup_lock 0000000180061678     LIBCMT:utility.obj
 0003:00001c30       __favor                    0000000180061c30     LIBCMT:_cpu_disp_.obj
 0003:00001c34       __scrt_debugger_hook_flag  0000000180061c34     LIBCMT:utility_desktop.obj
 0003:00001c40       ?__type_info_root_node@@3U__type_info_node@@A 0000000180061c40     LIBCMT:tncleanup.obj
 0003:00001c50       ?_OptionsStorage@?1??__local_stdio_scanf_options@@9@4_KA 0000000180061c50     LIBCMT:default_local_stdio_options.obj
 0003:00001c58       ?__WinRTOutOfMemoryExceptionCallback@@3P6APEAXXZEA 0000000180061c58     libvcruntime:ehhelpers.obj
 0003:00001cf0       __pPurecall                0000000180061cf0     libvcruntime:purevirt_data.obj
 0003:00001d68       ?pArgList@UnDecorator@@0PEAVReplicator@@EA 0000000180061d68     libvcruntime:undname.obj
 0003:00001d70       ?pZNameList@UnDecorator@@0PEAVReplicator@@EA 0000000180061d70     libvcruntime:undname.obj
 0003:00001d78       ?pTemplateArgList@UnDecorator@@0PEAVReplicator@@EA 0000000180061d78     libvcruntime:undname.obj
 0003:00001d80       ?gName@UnDecorator@@0PEBDEB 0000000180061d80     libvcruntime:undname.obj
 0003:00001d88       ?name@UnDecorator@@0PEBDEB 0000000180061d88     libvcruntime:undname.obj
 0003:00001d90       ?disableFlags@UnDecorator@@0KA 0000000180061d90     libvcruntime:undname.obj
 0003:00001d94       ?fExplicitTemplateParams@UnDecorator@@0_NA 0000000180061d94     libvcruntime:undname.obj
 0003:00001d95       ?fGetTemplateArgumentList@UnDecorator@@0_NA 0000000180061d95     libvcruntime:undname.obj
 0003:00001d98       ?m_pGetParameter@UnDecorator@@0P6APEADJ@ZEA 0000000180061d98     libvcruntime:undname.obj
 0003:00001da0       ?m_CHPENameOffset@UnDecorator@@0KA 0000000180061da0     libvcruntime:undname.obj
 0003:00001da4       ?m_recursionLevel@UnDecorator@@0KA 0000000180061da4     libvcruntime:undname.obj
 0003:00001dd8       _nstream                   0000000180061dd8     libucrt:_file.obj
 0003:00001de0       __piob                     0000000180061de0     libucrt:_file.obj
 0003:00001de8       _cflush                    0000000180061de8     libucrt:_file.obj
 0003:00002024       __acrt_lconv_static_null   0000000180062024     libucrt:localeconv.obj
 0003:00002028       __acrt_lconv_static_W_null 0000000180062028     libucrt:localeconv.obj
 0003:00002048       ?c_exit_complete@?1???R<lambda_6e4b09c48022b2350581041d5f6b0c4c>@@QEBA@XZ@4_NA 0000000180062048     libucrt:exit.obj
 0003:00002158       _environ_table             0000000180062158     libucrt:environment_initialization.obj
 0003:00002160       _wenviron_table            0000000180062160     libucrt:environment_initialization.obj
 0003:00002168       __dcrt_initial_wide_environment 0000000180062168     libucrt:environment_initialization.obj
 0003:00002170       __dcrt_initial_narrow_environment 0000000180062170     libucrt:environment_initialization.obj
 0003:00002178       __acrt_atexit_table        0000000180062178     libucrt:onexit.obj
 0003:00002190       __acrt_at_quick_exit_table 0000000180062190     libucrt:onexit.obj
 0003:00002380       __pioinfo                  0000000180062380     libucrt:ioinit.obj
 0003:00002780       _nhandle                   0000000180062780     libucrt:ioinit.obj
 0003:00002784       __acrt_locale_changed_data 0000000180062784     libucrt:wsetlocale.obj
 0003:00002788       __acrt_current_locale_data 0000000180062788     libucrt:nlsdata.obj
 0003:000027a0       __acrt_stdout_buffer       00000001800627a0     libucrt:_sftbuf.obj
 0003:000027a8       __acrt_stderr_buffer       00000001800627a8     libucrt:_sftbuf.obj
 0003:000027b0       __fma3_is_available        00000001800627b0     libucrt:fma3_available.obj
 0003:000027b4       __use_fma3_lib             00000001800627b4     libucrt:fma3_available.obj
 0003:000027b8       ?_timezone@@3V?$dual_state_global@J@__crt_state_management@@A 00000001800627b8     libucrt:timeset.obj
 0003:000027bc       ?_daylight@@3V?$dual_state_global@H@__crt_state_management@@A 00000001800627bc     libucrt:timeset.obj
 0003:000027c0       ?_dstbias@@3V?$dual_state_global@J@__crt_state_management@@A 00000001800627c0     libucrt:timeset.obj
 0003:000028a8       _mbctype                   00000001800628a8     libucrt:mbctype.obj
 0003:000028b0       _mbcasemap                 00000001800628b0     libucrt:mbctype.obj
 0003:000028b8       __acrt_current_multibyte_data 00000001800628b8     libucrt:mbctype.obj
 0003:000028c8       _pgmptr                    00000001800628c8     libucrt:argv_data.obj
 0003:000028d0       __argc                     00000001800628d0     libucrt:argv_data.obj
 0003:000028d8       __argv                     00000001800628d8     libucrt:argv_data.obj
 0003:000028e0       __wargv                    00000001800628e0     libucrt:argv_data.obj
 0003:000028e8       _acmdln                    00000001800628e8     libucrt:argv_data.obj
 0003:000028f0       _wcmdln                    00000001800628f0     libucrt:argv_data.obj
 0003:000028f8       __acrt_heap                00000001800628f8     libucrt:heap_handle.obj
 0003:0000290c       _commode                   000000018006290c     libucrt:ncommode.obj
 0003:00002918       _umaskval                  0000000180062918     libucrt:umask.obj
 0003:0000291c       _fmode                     000000018006291c     libucrt:txtmode.obj
 0003:00002920       ?DloadKernel32@@3PEAUHINSTANCE__@@EA 0000000180062920     DelayImp:delayhlp.obj
 0003:00002928       ?DloadAcquireSRWLockExclusive@@3P6AXPEA_K@ZEA 0000000180062928     DelayImp:delayhlp.obj
 0003:00002930       ?DloadReleaseSRWLockExclusive@@3P6AXPEA_K@ZEA 0000000180062930     DelayImp:delayhlp.obj
 0003:00002938       ?DloadSrwLock@@3_KA        0000000180062938     DelayImp:delayhlp.obj
 0003:00002940       ?DloadSectionLockCount@@3KA 0000000180062940     DelayImp:delayhlp.obj
 0003:00002944       ?DloadSectionOldProtection@@3KA 0000000180062944     DelayImp:delayhlp.obj
 0003:00002948       ?DloadSectionCommitPermanent@@3KA 0000000180062948     DelayImp:delayhlp.obj
 0003:00002950       ?pattern_repeat_key@@3PEBU_cairo_user_data_key@@EB 0000000180062950     CanvasPattern.obj
 0003:00002958       ?constructor@ImageBackend@@2V?$Persistent@VFunctionTemplate@v8@@V?$NonCopyablePersistentTraits@VFunctionTemplate@v8@@@2@@Nan@@A 0000000180062958     ImageBackend.obj
 0003:00002960       ?constructor@PdfBackend@@2V?$Persistent@VFunctionTemplate@v8@@V?$NonCopyablePersistentTraits@VFunctionTemplate@v8@@@2@@Nan@@A 0000000180062960     PdfBackend.obj
 0003:00002968       ?constructor@SvgBackend@@2V?$Persistent@VFunctionTemplate@v8@@V?$NonCopyablePersistentTraits@VFunctionTemplate@v8@@@2@@Nan@@A 0000000180062968     SvgBackend.obj
 0003:00002970       ?constructor@Canvas@@2V?$Persistent@VFunctionTemplate@v8@@V?$NonCopyablePersistentTraits@VFunctionTemplate@v8@@@2@@Nan@@A 0000000180062970     Canvas.obj
 0003:00002978       ?_font_face_list@Canvas@@0V?$vector@VFontFace@@V?$allocator@VFontFace@@@std@@@std@@A 0000000180062978     Canvas.obj
 0003:00002990       ?constructor@Gradient@@2V?$Persistent@VFunctionTemplate@v8@@V?$NonCopyablePersistentTraits@VFunctionTemplate@v8@@@2@@Nan@@A 0000000180062990     CanvasGradient.obj
 0003:00002998       ?constructor@Pattern@@2V?$Persistent@VFunctionTemplate@v8@@V?$NonCopyablePersistentTraits@VFunctionTemplate@v8@@@2@@Nan@@A 0000000180062998     CanvasPattern.obj
 0003:000029a0       ?constructor@Context2d@@2V?$Persistent@VFunctionTemplate@v8@@V?$NonCopyablePersistentTraits@VFunctionTemplate@v8@@@2@@Nan@@A 00000001800629a0     CanvasRenderingContext2d.obj
 0003:000029b8       ?constructor@Image@@2V?$Persistent@VFunctionTemplate@v8@@V?$NonCopyablePersistentTraits@VFunctionTemplate@v8@@@2@@Nan@@A 00000001800629b8     Image.obj
 0003:000029c0       ?constructor@ImageData@@2V?$Persistent@VFunctionTemplate@v8@@V?$NonCopyablePersistentTraits@VFunctionTemplate@v8@@@2@@Nan@@A 00000001800629c0     ImageData.obj
 0003:000029c8       ?_OptionsStorage@?1??__local_stdio_printf_options@@9@4_KA 00000001800629c8     color.obj
 0003:000029d0       __dyn_tls_init_callback    00000001800629d0     <common>
 0003:000029d8       __scrt_ucrt_dll_is_in_use  00000001800629d8     <common>

 entry point at        0001:0001e9a0

 Static symbols

 0000:fff98000       .debug$S                   0000000180000000     kernel32:KERNEL32.dll
 0000:fff98000       .debug$S                   0000000180000000     gdi32:GDI32.dll
 0000:fff98000       .debug$S                   0000000180000000     node:node.exe
 0000:fff98000       .debug$S                   0000000180000000     node:node.exe
 0000:fff98000       .debug$S                   0000000180000000     node:node.exe
 0000:fff98000       .debug$S                   0000000180000000     node:node.exe
 0000:fff98000       .debug$S                   0000000180000000     node:node.exe
 0000:fff98000       .debug$S                   0000000180000000     node:node.exe
 0000:fff98000       .debug$S                   0000000180000000     node:node.exe
 0000:fff98000       .debug$S                   0000000180000000     node:node.exe
 0000:fff98000       .debug$S                   0000000180000000     node:node.exe
 0000:fff98000       .debug$S                   0000000180000000     node:node.exe
 0000:fff98000       .debug$S                   0000000180000000     node:node.exe
 0000:fff98000       .debug$S                   0000000180000000     node:node.exe
 0000:fff98000       .debug$S                   0000000180000000     node:node.exe
 0000:fff98000       .debug$S                   0000000180000000     node:node.exe
 0000:fff98000       .debug$S                   0000000180000000     node:node.exe
 0000:fff98000       .debug$S                   0000000180000000     node:node.exe
 0000:fff98000       .debug$S                   0000000180000000     node:node.exe
 0000:fff98000       .debug$S                   0000000180000000     node:node.exe
 0000:fff98000       .debug$S                   0000000180000000     node:node.exe
 0000:fff98000       .debug$S                   0000000180000000     node:node.exe
 0000:fff98000       .debug$S                   0000000180000000     node:node.exe
 0000:fff98000       .debug$S                   0000000180000000     node:node.exe
 0000:fff98000       .debug$S                   0000000180000000     node:node.exe
 0000:fff98000       .debug$S                   0000000180000000     node:node.exe
 0000:fff98000       .debug$S                   0000000180000000     node:node.exe
 0000:fff98000       .debug$S                   0000000180000000     node:node.exe
 0000:fff98000       .debug$S                   0000000180000000     node:node.exe
 0000:fff98000       .debug$S                   0000000180000000     node:node.exe
 0000:fff98000       .debug$S                   0000000180000000     node:node.exe
 0000:fff98000       .debug$S                   0000000180000000     node:node.exe
 0000:fff98000       .debug$S                   0000000180000000     node:node.exe
 0000:fff98000       .debug$S                   0000000180000000     node:node.exe
 0000:fff98000       .debug$S                   0000000180000000     node:node.exe
 0000:fff98000       .debug$S                   0000000180000000     node:node.exe
 0000:fff98000       .debug$S                   0000000180000000     node:node.exe
 0000:fff98000       .debug$S                   0000000180000000     node:node.exe
 0000:fff98000       .debug$S                   0000000180000000     node:node.exe
 0000:fff98000       .debug$S                   0000000180000000     node:node.exe
 0000:fff98000       .debug$S                   0000000180000000     node:node.exe
 0000:fff98000       .debug$S                   0000000180000000     node:node.exe
 0000:fff98000       .debug$S                   0000000180000000     node:node.exe
 0000:fff98000       .debug$S                   0000000180000000     node:node.exe
 0000:fff98000       .debug$S                   0000000180000000     node:node.exe
 0000:fff98000       .debug$S                   0000000180000000     node:node.exe
 0000:fff98000       .debug$S                   0000000180000000     node:node.exe
 0000:fff98000       .debug$S                   0000000180000000     node:node.exe
 0000:fff98000       .debug$S                   0000000180000000     node:node.exe
 0000:fff98000       .debug$S                   0000000180000000     node:node.exe
 0000:fff98000       .debug$S                   0000000180000000     node:node.exe
 0000:fff98000       .debug$S                   0000000180000000     node:node.exe
 0000:fff98000       .debug$S                   0000000180000000     node:node.exe
 0000:fff98000       .debug$S                   0000000180000000     node:node.exe
 0000:fff98000       .debug$S                   0000000180000000     node:node.exe
 0000:fff98000       .debug$S                   0000000180000000     node:node.exe
 0000:fff98000       .debug$S                   0000000180000000     node:node.exe
 0000:fff98000       .debug$S                   0000000180000000     node:node.exe
 0000:fff98000       .debug$S                   0000000180000000     node:node.exe
 0000:fff98000       .debug$S                   0000000180000000     node:node.exe
 0000:fff98000       .debug$S                   0000000180000000     node:node.exe
 0000:fff98000       .debug$S                   0000000180000000     node:node.exe
 0000:fff98000       .debug$S                   0000000180000000     node:node.exe
 0000:fff98000       .debug$S                   0000000180000000     node:node.exe
 0000:fff98000       .debug$S                   0000000180000000     node:node.exe
 0000:fff98000       .debug$S                   0000000180000000     node:node.exe
 0000:fff98000       .debug$S                   0000000180000000     node:node.exe
 0000:fff98000       .debug$S                   0000000180000000     node:node.exe
 0000:fff98000       .debug$S                   0000000180000000     node:node.exe
 0000:fff98000       .debug$S                   0000000180000000     node:node.exe
 0000:fff98000       .debug$S                   0000000180000000     node:node.exe
 0000:fff98000       .debug$S                   0000000180000000     node:node.exe
 0000:fff98000       .debug$S                   0000000180000000     node:node.exe
 0000:fff98000       .debug$S                   0000000180000000     node:node.exe
 0000:fff98000       .debug$S                   0000000180000000     node:node.exe
 0000:fff98000       .debug$S                   0000000180000000     node:node.exe
 0000:fff98000       .debug$S                   0000000180000000     node:node.exe
 0000:fff98000       .debug$S                   0000000180000000     node:node.exe
 0000:fff98000       .debug$S                   0000000180000000     node:node.exe
 0000:fff98000       .debug$S                   0000000180000000     node:node.exe
 0000:fff98000       .debug$S                   0000000180000000     node:node.exe
 0000:fff98000       .debug$S                   0000000180000000     node:node.exe
 0000:fff98000       .debug$S                   0000000180000000     node:node.exe
 0000:fff98000       .debug$S                   0000000180000000     node:node.exe
 0000:fff98000       .debug$S                   0000000180000000     node:node.exe
 0000:fff98000       .debug$S                   0000000180000000     node:node.exe
 0000:fff98000       .debug$S                   0000000180000000     node:node.exe
 0000:fff98000       .debug$S                   0000000180000000     node:node.exe
 0000:fff98000       .debug$S                   0000000180000000     node:node.exe
 0000:fff98000       .debug$S                   0000000180000000     node:node.exe
 0000:fff98000       .debug$S                   0000000180000000     node:node.exe
 0000:fff98000       .debug$S                   0000000180000000     node:node.exe
 0000:fff98000       .debug$S                   0000000180000000     node:node.exe
 0000:fff98000       .debug$S                   0000000180000000     node:node.exe
 0000:fff98000       .debug$S                   0000000180000000     node:node.exe
 0000:fff98000       .debug$S                   0000000180000000     node:node.exe
 0000:fff98000       .debug$S                   0000000180000000     node:node.exe
 0000:fff98000       .debug$S                   0000000180000000     node:node.exe
 0000:fff98000       .debug$S                   0000000180000000     node:node.exe
 0000:fff98000       .debug$S                   0000000180000000     node:node.exe
 0000:fff98000       .debug$S                   0000000180000000     node:node.exe
 0000:fff98000       .debug$S                   0000000180000000     node:node.exe
 0000:fff98000       .debug$S                   0000000180000000     node:node.exe
 0000:fff98000       .debug$S                   0000000180000000     node:node.exe
 0000:fff98000       .debug$S                   0000000180000000     node:node.exe
 0000:fff98000       .debug$S                   0000000180000000     node:node.exe
 0000:fff98000       .debug$S                   0000000180000000     node:node.exe
 0000:fff98000       .debug$S                   0000000180000000     node:node.exe
 0000:fff98000       .debug$S                   0000000180000000     node:node.exe
 0000:fff98000       .debug$S                   0000000180000000     node:node.exe
 0000:fff98000       .debug$S                   0000000180000000     node:node.exe
 0000:fff98000       .debug$S                   0000000180000000     node:node.exe
 0000:fff98000       .debug$S                   0000000180000000     node:node.exe
 0000:fff98000       .debug$S                   0000000180000000     canvas.exp
 0000:fff98000       .debug$S                   0000000180000000     node:node.exe
 0000:fff98000       .debug$S                   0000000180000000     node:node.exe
 0000:fff98000       .debug$S                   0000000180000000     node:node.exe
 0000:fff98000       .debug$S                   0000000180000000     node:node.exe
 0000:fff98000       .debug$S                   0000000180000000     node:node.exe
 0000:fff98000       .debug$S                   0000000180000000     node:node.exe
 0000:fff98000       .debug$S                   0000000180000000     node:node.exe
 0000:fff98000       .debug$S                   0000000180000000     node:node.exe
 0000:fff98000       .debug$S                   0000000180000000     node:node.exe
 0000:fff98000       .debug$S                   0000000180000000     node:node.exe
 0000:fff98000       .debug$S                   0000000180000000     node:node.exe
 0000:fff98000       .debug$S                   0000000180000000     kernel32:KERNEL32.dll
 0000:fff98000       .debug$S                   0000000180000000     kernel32:KERNEL32.dll
 0000:fff98000       .debug$S                   0000000180000000     kernel32:KERNEL32.dll
 0000:fff98000       .debug$S                   0000000180000000     kernel32:KERNEL32.dll
 0000:fff98000       .debug$S                   0000000180000000     kernel32:KERNEL32.dll
 0000:fff98000       .debug$S                   0000000180000000     kernel32:KERNEL32.dll
 0000:fff98000       .debug$S                   0000000180000000     kernel32:KERNEL32.dll
 0000:fff98000       .debug$S                   0000000180000000     kernel32:KERNEL32.dll
 0000:fff98000       .debug$S                   0000000180000000     kernel32:KERNEL32.dll
 0000:fff98000       .debug$S                   0000000180000000     kernel32:KERNEL32.dll
 0000:fff98000       .debug$S                   0000000180000000     kernel32:KERNEL32.dll
 0000:fff98000       .debug$S                   0000000180000000     kernel32:KERNEL32.dll
 0000:fff98000       .debug$S                   0000000180000000     kernel32:KERNEL32.dll
 0000:fff98000       .debug$S                   0000000180000000     kernel32:KERNEL32.dll
 0000:fff98000       .debug$S                   0000000180000000     kernel32:KERNEL32.dll
 0000:fff98000       .debug$S                   0000000180000000     kernel32:KERNEL32.dll
 0000:fff98000       .debug$S                   0000000180000000     kernel32:KERNEL32.dll
 0000:fff98000       .debug$S                   0000000180000000     kernel32:KERNEL32.dll
 0000:fff98000       .debug$S                   0000000180000000     kernel32:KERNEL32.dll
 0000:fff98000       .debug$S                   0000000180000000     kernel32:KERNEL32.dll
 0000:fff98000       .debug$S                   0000000180000000     kernel32:KERNEL32.dll
 0000:fff98000       .debug$S                   0000000180000000     kernel32:KERNEL32.dll
 0000:fff98000       .debug$S                   0000000180000000     kernel32:KERNEL32.dll
 0000:fff98000       .debug$S                   0000000180000000     kernel32:KERNEL32.dll
 0000:fff98000       .debug$S                   0000000180000000     kernel32:KERNEL32.dll
 0000:fff98000       .debug$S                   0000000180000000     kernel32:KERNEL32.dll
 0000:fff98000       .debug$S                   0000000180000000     kernel32:KERNEL32.dll
 0000:fff98000       .debug$S                   0000000180000000     kernel32:KERNEL32.dll
 0000:fff98000       .debug$S                   0000000180000000     kernel32:KERNEL32.dll
 0000:fff98000       .debug$S                   0000000180000000     kernel32:KERNEL32.dll
 0000:fff98000       .debug$S                   0000000180000000     kernel32:KERNEL32.dll
 0000:fff98000       .debug$S                   0000000180000000     kernel32:KERNEL32.dll
 0000:fff98000       .debug$S                   0000000180000000     kernel32:KERNEL32.dll
 0000:fff98000       .debug$S                   0000000180000000     kernel32:KERNEL32.dll
 0000:fff98000       .debug$S                   0000000180000000     kernel32:KERNEL32.dll
 0000:fff98000       .debug$S                   0000000180000000     kernel32:KERNEL32.dll
 0000:fff98000       .debug$S                   0000000180000000     kernel32:KERNEL32.dll
 0000:fff98000       .debug$S                   0000000180000000     kernel32:KERNEL32.dll
 0000:fff98000       .debug$S                   0000000180000000     kernel32:KERNEL32.dll
 0000:fff98000       .debug$S                   0000000180000000     kernel32:KERNEL32.dll
 0000:fff98000       .debug$S                   0000000180000000     kernel32:KERNEL32.dll
 0000:fff98000       .debug$S                   0000000180000000     kernel32:KERNEL32.dll
 0000:fff98000       .debug$S                   0000000180000000     kernel32:KERNEL32.dll
 0000:fff98000       .debug$S                   0000000180000000     kernel32:KERNEL32.dll
 0000:fff98000       .debug$S                   0000000180000000     kernel32:KERNEL32.dll
 0000:fff98000       .debug$S                   0000000180000000     kernel32:KERNEL32.dll
 0000:fff98000       .debug$S                   0000000180000000     kernel32:KERNEL32.dll
 0000:fff98000       .debug$S                   0000000180000000     kernel32:KERNEL32.dll
 0000:fff98000       .debug$S                   0000000180000000     kernel32:KERNEL32.dll
 0000:fff98000       .debug$S                   0000000180000000     kernel32:KERNEL32.dll
 0000:fff98000       .debug$S                   0000000180000000     kernel32:KERNEL32.dll
 0000:fff98000       .debug$S                   0000000180000000     kernel32:KERNEL32.dll
 0000:fff98000       .debug$S                   0000000180000000     kernel32:KERNEL32.dll
 0000:fff98000       .debug$S                   0000000180000000     kernel32:KERNEL32.dll
 0000:fff98000       .debug$S                   0000000180000000     kernel32:KERNEL32.dll
 0000:fff98000       .debug$S                   0000000180000000     kernel32:KERNEL32.dll
 0000:fff98000       .debug$S                   0000000180000000     kernel32:KERNEL32.dll
 0000:fff98000       .debug$S                   0000000180000000     kernel32:KERNEL32.dll
 0000:fff98000       .debug$S                   0000000180000000     kernel32:KERNEL32.dll
 0000:fff98000       .debug$S                   0000000180000000     kernel32:KERNEL32.dll
 0000:fff98000       .debug$S                   0000000180000000     kernel32:KERNEL32.dll
 0000:fff98000       .debug$S                   0000000180000000     kernel32:KERNEL32.dll
 0000:fff98000       .debug$S                   0000000180000000     kernel32:KERNEL32.dll
 0000:fff98000       .debug$S                   0000000180000000     kernel32:KERNEL32.dll
 0000:fff98000       .debug$S                   0000000180000000     kernel32:KERNEL32.dll
 0000:fff98000       .debug$S                   0000000180000000     kernel32:KERNEL32.dll
 0000:fff98000       .debug$S                   0000000180000000     kernel32:KERNEL32.dll
 0000:fff98000       .debug$S                   0000000180000000     kernel32:KERNEL32.dll
 0000:fff98000       .debug$S                   0000000180000000     kernel32:KERNEL32.dll
 0000:fff98000       .debug$S                   0000000180000000     kernel32:KERNEL32.dll
 0000:fff98000       .debug$S                   0000000180000000     kernel32:KERNEL32.dll
 0000:fff98000       .debug$S                   0000000180000000     kernel32:KERNEL32.dll
 0000:fff98000       .debug$S                   0000000180000000     kernel32:KERNEL32.dll
 0000:fff98000       .debug$S                   0000000180000000     kernel32:KERNEL32.dll
 0000:fff98000       .debug$S                   0000000180000000     kernel32:KERNEL32.dll
 0000:fff98000       .debug$S                   0000000180000000     kernel32:KERNEL32.dll
 0000:fff98000       .debug$S                   0000000180000000     kernel32:KERNEL32.dll
 0000:fff98000       .debug$S                   0000000180000000     kernel32:KERNEL32.dll
 0000:fff98000       .debug$S                   0000000180000000     kernel32:KERNEL32.dll
 0000:fff98000       .debug$S                   0000000180000000     kernel32:KERNEL32.dll
 0000:fff98000       .debug$S                   0000000180000000     kernel32:KERNEL32.dll
 0000:fff98000       .debug$S                   0000000180000000     kernel32:KERNEL32.dll
 0000:fff98000       .debug$S                   0000000180000000     kernel32:KERNEL32.dll
 0000:fff98000       .debug$S                   0000000180000000     kernel32:KERNEL32.dll
 0000:fff98000       .debug$S                   0000000180000000     kernel32:KERNEL32.dll
 0000:fff98000       .debug$S                   0000000180000000     kernel32:KERNEL32.dll
 0000:fff98000       .debug$S                   0000000180000000     kernel32:KERNEL32.dll
 0000:fff98000       .debug$S                   0000000180000000     kernel32:KERNEL32.dll
 0000:fff98000       .debug$S                   0000000180000000     kernel32:KERNEL32.dll
 0000:fff98000       .debug$S                   0000000180000000     kernel32:KERNEL32.dll
 0000:fff98000       .debug$S                   0000000180000000     kernel32:KERNEL32.dll
 0000:fff98000       .debug$S                   0000000180000000     kernel32:KERNEL32.dll
 0000:fff98000       .debug$S                   0000000180000000     kernel32:KERNEL32.dll
 0000:fff98000       .debug$S                   0000000180000000     kernel32:KERNEL32.dll
 0000:fff98000       .debug$S                   0000000180000000     kernel32:KERNEL32.dll
 0000:fff98000       .debug$S                   0000000180000000     kernel32:KERNEL32.dll
 0000:fff98000       .debug$S                   0000000180000000     kernel32:KERNEL32.dll
 0000:fff98000       .debug$S                   0000000180000000     kernel32:KERNEL32.dll
 0000:fff98000       .debug$S                   0000000180000000     kernel32:KERNEL32.dll
 0000:fff98000       .debug$S                   0000000180000000     kernel32:KERNEL32.dll
 0000:fff98000       .debug$S                   0000000180000000     kernel32:KERNEL32.dll
 0000:fff98000       .debug$S                   0000000180000000     kernel32:KERNEL32.dll
 0000:fff98000       .debug$S                   0000000180000000     kernel32:KERNEL32.dll
 0001:00000000       .text                      0000000180001000     libcairo-2:dszbs00305.o
 0001:00000008       .text                      0000000180001008     libcairo-2:dszbs00296.o
 0001:00000010       .text                      0000000180001010     libcairo-2:dszbs00338.o
 0001:00000018       .text                      0000000180001018     libcairo-2:dszbs00105.o
 0001:00000020       .text                      0000000180001020     libcairo-2:dszbs00099.o
 0001:00000028       .text                      0000000180001028     libcairo-2:dszbs00107.o
 0001:00000030       .text                      0000000180001030     libcairo-2:dszbs00106.o
 0001:00000038       .text                      0000000180001038     libcairo-2:dszbs00306.o
 0001:00000040       .text                      0000000180001040     libcairo-2:dszbs00103.o
 0001:00000048       .text                      0000000180001048     libcairo-2:dszbs00180.o
 0001:00000050       .text                      0000000180001050     libcairo-2:dszbs00176.o
 0001:00000058       .text                      0000000180001058     libcairo-2:dszbs00345.o
 0001:00000060       .text                      0000000180001060     libcairo-2:dszbs00104.o
 0001:00000068       .text                      0000000180001068     libcairo-2:dszbs00014.o
 0001:00000070       .text                      0000000180001070     libcairo-2:dszbs00307.o
 0001:00000078       .text                      0000000180001078     libcairo-2:dszbs00280.o
 0001:00000080       .text                      0000000180001080     libcairo-2:dszbs00011.o
 0001:00000088       .text                      0000000180001088     libcairo-2:dszbs00146.o
 0001:00000090       .text                      0000000180001090     libcairo-2:dszbs00150.o
 0001:00000098       .text                      0000000180001098     libcairo-2:dszbs00148.o
 0001:000000a0       .text                      00000001800010a0     libcairo-2:dszbs00154.o
 0001:000000a8       .text                      00000001800010a8     libcairo-2:dszbs00171.o
 0001:000000b0       .text                      00000001800010b0     libcairo-2:dszbs00166.o
 0001:000000b8       .text                      00000001800010b8     libcairo-2:dszbs00147.o
 0001:000000c0       .text                      00000001800010c0     libcairo-2:dszbs00143.o
 0001:000000c8       .text                      00000001800010c8     libcairo-2:dszbs00109.o
 0001:000000d0       .text                      00000001800010d0     libcairo-2:dszbs00283.o
 0001:000000d8       .text                      00000001800010d8     libcairo-2:dszbs00159.o
 0001:000000e0       .text                      00000001800010e0     libcairo-2:dszbs00321.o
 0001:000000e8       .text                      00000001800010e8     libcairo-2:dszbs00243.o
 0001:000000f0       .text                      00000001800010f0     libcairo-2:dszbs00084.o
 0001:000000f8       .text                      00000001800010f8     libcairo-2:dszbs00002.o
 0001:00000100       .text                      0000000180001100     libcairo-2:dszbs00299.o
 0001:00000108       .text                      0000000180001108     libcairo-2:dszbs00211.o
 0001:00000110       .text                      0000000180001110     libcairo-2:dszbs00279.o
 0001:00000118       .text                      0000000180001118     libcairo-2:dszbs00158.o
 0001:00000120       .text                      0000000180001120     libcairo-2:dszbs00288.o
 0001:00000128       .text                      0000000180001128     libcairo-2:dszbs00295.o
 0001:00000130       .text                      0000000180001130     libcairo-2:dszbs00035.o
 0001:00000138       .text                      0000000180001138     libcairo-2:dszbs00278.o
 0001:00000140       .text                      0000000180001140     libcairo-2:dszbs00089.o
 0001:00000148       .text                      0000000180001148     libcairo-2:dszbs00113.o
 0001:00000150       .text                      0000000180001150     libcairo-2:dszbs00169.o
 0001:00000158       .text                      0000000180001158     libcairo-2:dszbs00036.o
 0001:00000160       .text                      0000000180001160     libcairo-2:dszbs00292.o
 0001:00000168       .text                      0000000180001168     libcairo-2:dszbs00241.o
 0001:00000170       .text                      0000000180001170     libcairo-2:dszbs00111.o
 0001:00000178       .text                      0000000180001178     libcairo-2:dszbs00273.o
 0001:00000180       .text                      0000000180001180     libcairo-2:dszbs00141.o
 0001:00000188       .text                      0000000180001188     libcairo-2:dszbs00196.o
 0001:00000190       .text                      0000000180001190     libcairo-2:dszbs00297.o
 0001:00000198       .text                      0000000180001198     libcairo-2:dszbs00138.o
 0001:000001a0       .text                      00000001800011a0     libcairo-2:dszbs00081.o
 0001:000001a8       .text                      00000001800011a8     libcairo-2:dszbs00168.o
 0001:000001b0       .text                      00000001800011b0     libcairo-2:dszbs00086.o
 0001:000001b8       .text                      00000001800011b8     libcairo-2:dszbs00003.o
 0001:000001c0       .text                      00000001800011c0     libcairo-2:dszbs00072.o
 0001:000001c8       .text                      00000001800011c8     libcairo-2:dszbs00287.o
 0001:000001d0       .text                      00000001800011d0     libcairo-2:dszbs00010.o
 0001:000001d8       .text                      00000001800011d8     libcairo-2:dszbs00285.o
 0001:000001e0       .text                      00000001800011e0     libcairo-2:dszbs00244.o
 0001:000001e8       .text                      00000001800011e8     libcairo-2:dszbs00376.o
 0001:000001f0       .text                      00000001800011f0     libcairo-2:dszbs00155.o
 0001:000001f8       .text                      00000001800011f8     libcairo-2:dszbs00281.o
 0001:00000200       .text                      0000000180001200     libcairo-2:dszbs00320.o
 0001:00000208       .text                      0000000180001208     libcairo-2:dszbs00037.o
 0001:00000210       .text                      0000000180001210     libcairo-2:dszbs00164.o
 0001:00000218       .text                      0000000180001218     libcairo-2:dszbs00242.o
 0001:00000220       .text                      0000000180001220     libcairo-2:dszbs00298.o
 0001:00000228       .text                      0000000180001228     libcairo-2:dszbs00114.o
 0001:00000230       .text                      0000000180001230     libcairo-2:dszbs00184.o
 0001:00000238       .text                      0000000180001238     libcairo-2:dszbs00074.o
 0001:00000240       .text                      0000000180001240     libcairo-2:dszbs00085.o
 0001:00000248       .text                      0000000180001248     libcairo-2:dszbs00156.o
 0001:00000250       .text                      0000000180001250     libcairo-2:dszbs00000.o
 0001:00000258       .text                      0000000180001258     libcairo-2:dszbs00139.o
 0001:00000260       .text                      0000000180001260     libcairo-2:dszbs00098.o
 0001:00000268       .text                      0000000180001268     libcairo-2:dszbs00082.o
 0001:00000270       .text                      0000000180001270     libcairo-2:dszbs00110.o
 0001:00000278       .text                      0000000180001278     libcairo-2:dszbs00142.o
 0001:00000280       .text                      0000000180001280     libcairo-2:dszbs00271.o
 0001:00000288       .text                      0000000180001288     libcairo-2:dszbs00075.o
 0001:00000290       .text                      0000000180001290     libcairo-2:dszbs00272.o
 0001:00000298       .text                      0000000180001298     libcairo-2:dszbs00364.o
 0001:000002a0       .text                      00000001800012a0     libcairo-2:dszbs00006.o
 0001:000002a8       .text                      00000001800012a8     libcairo-2:dszbs00001.o
 0001:000002b0       .text                      00000001800012b0     libcairo-2:dszbs00083.o
 0001:000002b8       .text                      00000001800012b8     libcairo-2:dszbs00165.o
 0001:000002c0       .text                      00000001800012c0     libcairo-2:dszbs00005.o
 0001:000002c8       .text                      00000001800012c8     libcairo-2:dszbs00282.o
 0001:000002d0       .text                      00000001800012d0     libcairo-2:dszbs00073.o
 0001:000002d8       .text                      00000001800012d8     libcairo-2:dszbs00365.o
 0001:000002e0       .text                      00000001800012e0     libcairo-2:dszbs00161.o
 0001:000002e8       .text                      00000001800012e8     libcairo-2:dszbs00012.o
 0001:000002f0       .text                      00000001800012f0     libcairo-2:dszbs00063.o
 0001:000002f8       .text                      00000001800012f8     libcairo-2:dszbs00101.o
 0001:00000300       .text                      0000000180001300     libcairo-2:dszbs00102.o
 0001:00000308       .text                      0000000180001308     libcairo-2:dszbs00100.o
 0001:00000310       .text                      0000000180001310     libcairo-2:dszbs00335.o
 0001:00000318       .text                      0000000180001318     libcairo-2:dszbs00378.o
 0001:00000320       .text                      0000000180001320     libpng16-16:dqus00019.o
 0001:00000328       .text                      0000000180001328     libpng16-16:dqus00155.o
 0001:00000330       .text                      0000000180001330     libpng16-16:dqus00247.o
 0001:00000338       .text                      0000000180001338     libpng16-16:dqus00233.o
 0001:00000340       .text                      0000000180001340     libpng16-16:dqus00204.o
 0001:00000348       .text                      0000000180001348     libpng16-16:dqus00198.o
 0001:00000350       .text                      0000000180001350     libpng16-16:dqus00129.o
 0001:00000358       .text                      0000000180001358     libpng16-16:dqus00058.o
 0001:00000360       .text                      0000000180001360     libpng16-16:dqus00260.o
 0001:00000368       .text                      0000000180001368     libpng16-16:dqus00206.o
 0001:00000370       .text                      0000000180001370     libpng16-16:dqus00259.o
 0001:00000378       .text                      0000000180001378     libpng16-16:dqus00044.o
 0001:00000380       .text                      0000000180001380     libpng16-16:dqus00205.o
 0001:00000388       .text                      0000000180001388     libpng16-16:dqus00150.o
 0001:00000390       .text                      0000000180001390     libpng16-16:dqus00181.o
 0001:00000398       .text                      0000000180001398     libpng16-16:dqus00016.o
 0001:000003a0       .text                      00000001800013a0     libpng16-16:dqus00168.o
 0001:000003a8       .text                      00000001800013a8     libpng16-16:dqus00149.o
 0001:000003b0       .text                      00000001800013b0     libpng16-16:dqus00245.o
 0001:000003b8       .text                      00000001800013b8     libpng16-16:dqus00011.o
 0001:000003c0       .text                      00000001800013c0     libpng16-16:dqus00180.o
 0001:000003c8       .text                      00000001800013c8     libpng16-16:dqus00255.o
 0001:000003d0       .text                      00000001800013d0     libpng16-16:dqus00020.o
 0001:000003d8       .text                      00000001800013d8     libpng16-16:dqus00015.o
 0001:000003e0       .text                      00000001800013e0     libjpeg-8:dmags00091.o
 0001:000003e8       .text                      00000001800013e8     libjpeg-8:dmags00072.o
 0001:000003f0       .text                      00000001800013f0     libjpeg-8:dmags00090.o
 0001:000003f8       .text                      00000001800013f8     libjpeg-8:dmags00029.o
 0001:00000400       .text                      0000000180001400     libjpeg-8:dmags00096.o
 0001:00000408       .text                      0000000180001408     libjpeg-8:dmags00046.o
 0001:00000410       .text                      0000000180001410     libjpeg-8:dmags00087.o
 0001:00000418       .text                      0000000180001418     libjpeg-8:dmags00052.o
 0001:00000420       .text                      0000000180001420     libjpeg-8:dmags00106.o
 0001:00000428       .text                      0000000180001428     libjpeg-8:dmags00093.o
 0001:00000430       .text                      0000000180001430     libjpeg-8:dmags00030.o
 0001:00000438       .text                      0000000180001438     libjpeg-8:dmags00047.o
 0001:00000440       .text                      0000000180001440     libjpeg-8:dmags00080.o
 0001:00000448       .text                      0000000180001448     libjpeg-8:dmags00094.o
 0001:00000450       .text                      0000000180001450     libjpeg-8:dmags00098.o
 0001:00000458       .text                      0000000180001458     libjpeg-8:dmags00053.o
 0001:00000460       .text                      0000000180001460     libjpeg-8:dmags00033.o
 0001:00000468       .text                      0000000180001468     libjpeg-8:dmags00074.o
 0001:00000470       .text                      0000000180001470     libjpeg-8:dmags00083.o
 0001:00000480       .text                      0000000180001480     libpango-1.0-0:dwles00107.o
 0001:00000488       .text                      0000000180001488     libpango-1.0-0:dwles00134.o
 0001:00000490       .text                      0000000180001490     libpango-1.0-0:dwles00138.o
 0001:00000498       .text                      0000000180001498     libpango-1.0-0:dwles00110.o
 0001:000004a0       .text                      00000001800014a0     libpango-1.0-0:dwles00127.o
 0001:000004a8       .text                      00000001800014a8     libpango-1.0-0:dwles00111.o
 0001:000004b0       .text                      00000001800014b0     libpango-1.0-0:dwles00113.o
 0001:000004b8       .text                      00000001800014b8     libpango-1.0-0:dwles00129.o
 0001:000004c0       .text                      00000001800014c0     libpango-1.0-0:dwles00130.o
 0001:000004c8       .text                      00000001800014c8     libpango-1.0-0:dwles00108.o
 0001:000004d0       .text                      00000001800014d0     libpango-1.0-0:dwles00249.o
 0001:000004d8       .text                      00000001800014d8     libpango-1.0-0:dwles00071.o
 0001:000004e0       .text                      00000001800014e0     libpango-1.0-0:dwles00312.o
 0001:000004e8       .text                      00000001800014e8     libpango-1.0-0:dwles00245.o
 0001:000004f0       .text                      00000001800014f0     libpango-1.0-0:dwles00248.o
 0001:000004f8       .text                      00000001800014f8     libpango-1.0-0:dwles00298.o
 0001:00000500       .text                      0000000180001500     libpango-1.0-0:dwles00112.o
 0001:00000508       .text                      0000000180001508     libpango-1.0-0:dwles00261.o
 0001:00000510       .text                      0000000180001510     libpango-1.0-0:dwles00128.o
 0001:00000518       .text                      0000000180001518     libpango-1.0-0:dwles00069.o
 0001:00000520       .text                      0000000180001520     libpango-1.0-0:dwles00178.o
 0001:00000528       .text                      0000000180001528     libpango-1.0-0:dwles00243.o
 0001:00000530       .text                      0000000180001530     libpango-1.0-0:dwles00321.o
 0001:00000538       .text                      0000000180001538     libpango-1.0-0:dwles00254.o
 0001:00000540       .text                      0000000180001540     libpango-1.0-0:dwles00169.o
 0001:00000548       .text                      0000000180001548     libpango-1.0-0:dwles00133.o
 0001:00000550       .text                      0000000180001550     libpangocairo-1.0-0:dohds00029.o
 0001:00000558       .text                      0000000180001558     libpangocairo-1.0-0:dohds00032.o
 0001:00000560       .text                      0000000180001560     libpangocairo-1.0-0:dohds00024.o
 0001:00000568       .text                      0000000180001568     libpangocairo-1.0-0:dohds00007.o
 0001:00000570       .text                      0000000180001570     libpangocairo-1.0-0:dohds00020.o
 0001:00000580       .text                      0000000180001580     libgobject-2.0-0:dgdes00160.o
 0001:00000590       .text                      0000000180001590     libglib-2.0-0:dwtds01255.o
 0001:00000598       .text                      0000000180001598     libglib-2.0-0:dwtds01262.o
 0001:000005a0       .text                      00000001800015a0     libglib-2.0-0:dwtds00441.o
 0001:000005a8       .text                      00000001800015a8     libglib-2.0-0:dwtds01236.o
 0001:000005b0       .text                      00000001800015b0     libglib-2.0-0:dwtds01215.o
 0001:000005b8       .text                      00000001800015b8     libglib-2.0-0:dwtds00025.o
 0001:000005c0       .text                      00000001800015c0     libglib-2.0-0:dwtds01288.o
 0001:000005c8       .text                      00000001800015c8     libglib-2.0-0:dwtds00408.o
 0001:000005d0       .text                      00000001800015d0     libglib-2.0-0:dwtds00463.o
 0001:000005d8       .text                      00000001800015d8     libglib-2.0-0:dwtds01235.o
 0001:000005e0       .text                      00000001800015e0     libglib-2.0-0:dwtds01212.o
 0001:000005e8       .text                      00000001800015e8     libglib-2.0-0:dwtds00456.o
 0001:000005f0       .text                      00000001800015f0     libglib-2.0-0:dwtds01229.o
 0001:000005f8       .text                      00000001800015f8     libglib-2.0-0:dwtds00458.o
 0001:00000600       .text                      0000000180001600     libglib-2.0-0:dwtds00624.o
 0001:00000608       .text                      0000000180001608     libglib-2.0-0:dwtds00623.o
 0001:00000610       .text                      0000000180001610     libglib-2.0-0:dwtds00506.o
 0001:00000618       .text                      0000000180001618     libglib-2.0-0:dwtds00504.o
 0001:00000620       .text                      0000000180001620     libglib-2.0-0:dwtds00631.o
 0001:00000628       .text                      0000000180001628     libglib-2.0-0:dwtds00625.o
 0001:00000630       .text                      0000000180001630     libgif-7:dkjbs00012.o
 0001:00000638       .text                      0000000180001638     libgif-7:dkjbs00016.o
 0001:00000640       .text                      0000000180001640     libgif-7:dkjbs00000.o
 0001:00000650       .text                      0000000180001650     libfreetype-6:dwrbs00083.o
 0001:00000658       .text                      0000000180001658     libfreetype-6:dwrbs00121.o
 0001:00000660       .text                      0000000180001660     libfreetype-6:dwrbs00034.o
 0001:00000668       .text                      0000000180001668     libfreetype-6:dwrbs00033.o
 0001:00000670       .text                      0000000180001670     libfreetype-6:dwrbs00082.o
 0001:00000678       .text                      0000000180001678     libfreetype-6:dwrbs00103.o
 0001:00000680       .text                      0000000180001680     libfreetype-6:dwrbs00081.o
 0001:00000690       .text                      0000000180001690     librsvg-2-2:duces00084.o
 0001:00000698       .text                      0000000180001698     librsvg-2-2:duces00078.o
 0001:000006a0       .text                      00000001800016a0     librsvg-2-2:duces00067.o
 0001:000006b0       ??__E?constructor@ImageBackend@@2V?$Persistent@VFunctionTemplate@v8@@V?$NonCopyablePersistentTraits@VFunctionTemplate@v8@@@2@@Nan@@A@@YAXXZ 00000001800016b0 f   ImageBackend.obj
 0001:000006c0       ??__E?constructor@PdfBackend@@2V?$Persistent@VFunctionTemplate@v8@@V?$NonCopyablePersistentTraits@VFunctionTemplate@v8@@@2@@Nan@@A@@YAXXZ 00000001800016c0 f   PdfBackend.obj
 0001:000006d0       ??__E?constructor@SvgBackend@@2V?$Persistent@VFunctionTemplate@v8@@V?$NonCopyablePersistentTraits@VFunctionTemplate@v8@@@2@@Nan@@A@@YAXXZ 00000001800016d0 f   SvgBackend.obj
 0001:000006e0       ??__E?constructor@Canvas@@2V?$Persistent@VFunctionTemplate@v8@@V?$NonCopyablePersistentTraits@VFunctionTemplate@v8@@@2@@Nan@@A@@YAXXZ 00000001800016e0 f   Canvas.obj
 0001:000006f0       ??__E?_font_face_list@Canvas@@0V?$vector@VFontFace@@V?$allocator@VFontFace@@@std@@@std@@A@@YAXXZ 00000001800016f0 f   Canvas.obj
 0001:00000700       ??__E?constructor@Gradient@@2V?$Persistent@VFunctionTemplate@v8@@V?$NonCopyablePersistentTraits@VFunctionTemplate@v8@@@2@@Nan@@A@@YAXXZ 0000000180001700 f   CanvasGradient.obj
 0001:00000710       ??__E?constructor@Pattern@@2V?$Persistent@VFunctionTemplate@v8@@V?$NonCopyablePersistentTraits@VFunctionTemplate@v8@@@2@@Nan@@A@@YAXXZ 0000000180001710 f   CanvasPattern.obj
 0001:00000720       ??__E?constructor@Context2d@@2V?$Persistent@VFunctionTemplate@v8@@V?$NonCopyablePersistentTraits@VFunctionTemplate@v8@@@2@@Nan@@A@@YAXXZ 0000000180001720 f   CanvasRenderingContext2d.obj
 0001:00000730       ??__Enamed_colors@@YAXXZ   0000000180001730 f   color.obj
 0001:00002220       ??__E?constructor@Image@@2V?$Persistent@VFunctionTemplate@v8@@V?$NonCopyablePersistentTraits@VFunctionTemplate@v8@@@2@@Nan@@A@@YAXXZ 0000000180003220 f   Image.obj
 0001:00002230       ??__E?constructor@ImageData@@2V?$Persistent@VFunctionTemplate@v8@@V?$NonCopyablePersistentTraits@VFunctionTemplate@v8@@@2@@Nan@@A@@YAXXZ 0000000180003230 f   ImageData.obj
 0001:0000223c       ??__Einitlocks@std@@YAXXZ  000000018000323c f   libcpmt:xlock.obj
 0001:0000225c       ??__E_Fac_tidy_reg@std@@YAXXZ 000000018000325c f   libcpmt:locale0.obj
 0001:00002268       ??__Eclassic_locale@std@@YAXXZ 0000000180003268 f   libcpmt:locale0.obj
 0001:00002274       ??__Einit_atexit@@YAXXZ    0000000180003274 f   libcpmt:iosptrs.obj
 0001:00002280       ??__Einitlocks@std@@YAXXZ  0000000180003280 f   libcpmt:iosptrs.obj
 0001:00002c90       ?FunctionCallbackWrapper@imp@Nan@@YAXAEBV?$FunctionCallbackInfo@VValue@v8@@@v8@@@Z 0000000180003c90 f   ImageBackend.obj
 0001:00003bf0       ?GetterCallbackWrapper@imp@Nan@@YAXV?$Local@VName@v8@@@v8@@AEBV?$PropertyCallbackInfo@VValue@v8@@@4@@Z 0000000180004bf0 f   Canvas.obj
 0001:00003ce0       ?SetterCallbackWrapper@imp@Nan@@YAXV?$Local@VName@v8@@@v8@@V?$Local@VValue@v8@@@4@AEBV?$PropertyCallbackInfo@X@4@@Z 0000000180004ce0 f   Canvas.obj
 0001:00004390       ?canvas_png_flush@@YAXPEAUpng_struct_def@@@Z 0000000180005390 f   Canvas.obj
 0001:000043a0       ?canvas_convert_data_to_bytes@@YAXPEAUpng_struct_def@@PEAUpng_row_info_struct@@PEAE@Z 00000001800053a0 f   Canvas.obj
 0001:000043e0       ?canvas_unpremultiply_data@@YAXPEAUpng_struct_def@@PEAUpng_row_info_struct@@PEAE@Z 00000001800053e0 f   Canvas.obj
 0001:000044a0       ?canvas_convert_565_to_888@@YAXPEAUpng_struct_def@@PEAUpng_row_info_struct@@PEAE@Z 00000001800054a0 f   Canvas.obj
 0001:00004570       ?canvas_write_png@@YA?AW4_cairo_status@@PEAU_cairo_surface@@P6AXPEAUpng_struct_def@@PEAE_K@ZPEAUcanvas_png_write_closure_t@@@Z 0000000180005570 f   Canvas.obj
 0001:000049e0       ?canvas_stream_write_func@@YAXPEAUpng_struct_def@@PEAE_K@Z 00000001800059e0 f   Canvas.obj
 0001:00006b00       ?parsePNGArgs@@YAXV?$Local@VValue@v8@@@v8@@AEAUPngClosure@@@Z 0000000180007b00 f   Canvas.obj
 0001:00006e50       ?parseJPEGArgs@@YAXV?$Local@VValue@v8@@@v8@@AEAUJpegClosure@@@Z 0000000180007e50 f   Canvas.obj
 0001:00008010       ?streamPNG@@YA?AW4_cairo_status@@PEAXPEBEI@Z 0000000180009010 f   Canvas.obj
 0001:00008650       ?streamPDF@@YA?AW4_cairo_status@@PEAXPEBEI@Z 0000000180009650 f   Canvas.obj
 0001:0000b020       ?checkArgs@@YA_NAEBV?$FunctionCallbackInfo@VValue@v8@@@Nan@@PEANHH@Z 000000018000c020 f   CanvasRenderingContext2d.obj
 0001:0000fcb8       $LN77                      0000000180010cb8     CanvasRenderingContext2d.obj
 0001:00017250       ?h@@YAHD@Z                 0000000180018250 f   color.obj
 0001:0001728c       $LN9                       000000018001828c     color.obj
 0001:0001729c       $LN8                       000000018001829c     color.obj
 0001:000172e0       ?hue_to_rgb@@YAMMMM@Z      00000001800182e0 f   color.obj
 0001:00017360       ?rgba_from_hsla@@YAHMMMM@Z 0000000180018360 f   color.obj
 0001:000174d0       ?rgba_from_rgb_string@@YAHPEBDPEAF@Z 00000001800184d0 f   color.obj
 0001:000176f0       ?rgba_from_rgba_string@@YAHPEBDPEAF@Z 00000001800186f0 f   color.obj
 0001:000179b0       ?rgba_from_hsla_string@@YAHPEBDPEAF@Z 00000001800189b0 f   color.obj
 0001:00017bf0       ?rgba_from_hex_string@@YAHPEBDPEAF@Z 0000000180018bf0 f   color.obj
 0001:00017e20       ?rgba_from_name_string@@YAHPEBDPEAF@Z 0000000180018e20 f   color.obj
 0001:00018630       ??$parse_css_number@M@@YA_NPEAPEBDPEAM@Z 0000000180019630 f   color.obj
 0001:0001b630       ?canvas_jpeg_error_exit@@YAXPEAUjpeg_common_struct@@@Z 000000018001c630 f   Image.obj
 0001:0001b650       ?canvas_jpeg_output_message@@YAXPEAUjpeg_common_struct@@@Z 000000018001c650 f   Image.obj
 0001:0001bfa0       ?_Delete_this@?$_Func_impl_no_alloc@V<lambda_943025469893224c00d6d2268cc9a208>@@IPEAE@std@@EEAAX_N@Z 000000018001cfa0 f   Image.obj
 0001:0001bfa0       ?_Delete_this@?$_Func_impl_no_alloc@V<lambda_9765b0d2b9eef0d40a4f4ca0aa039d39>@@IPEAE@std@@EEAAX_N@Z 000000018001cfa0 f   Image.obj
 0001:0001bfa0       ?_Delete_this@?$_Func_impl_no_alloc@V<lambda_e30b72adce6e2103a6154189b6a4ebe4>@@IPEAE@std@@EEAAX_N@Z 000000018001cfa0 f   Image.obj
 0001:0001bfb0       ?_Get@?$_Func_impl_no_alloc@V<lambda_943025469893224c00d6d2268cc9a208>@@IPEAE@std@@EEBAPEBXXZ 000000018001cfb0 f   Image.obj
 0001:0001bfb0       ?_Get@?$_Func_impl_no_alloc@V<lambda_e30b72adce6e2103a6154189b6a4ebe4>@@IPEAE@std@@EEBAPEBXXZ 000000018001cfb0 f   Image.obj
 0001:0001bfb0       ?_Get@?$_Func_impl_no_alloc@V<lambda_9765b0d2b9eef0d40a4f4ca0aa039d39>@@IPEAE@std@@EEBAPEBXXZ 000000018001cfb0 f   Image.obj
 0001:0001bfc0       ?_Target_type@?$_Func_impl_no_alloc@V<lambda_943025469893224c00d6d2268cc9a208>@@IPEAE@std@@EEBAAEBVtype_info@@XZ 000000018001cfc0 f   Image.obj
 0001:0001bfd0       ?_Move@?$_Func_impl_no_alloc@V<lambda_943025469893224c00d6d2268cc9a208>@@IPEAE@std@@EEAAPEAV?$_Func_base@IPEAE@2@PEAX@Z 000000018001cfd0 f   Image.obj
 0001:0001bfd0       ?_Copy@?$_Func_impl_no_alloc@V<lambda_943025469893224c00d6d2268cc9a208>@@IPEAE@std@@EEBAPEAV?$_Func_base@IPEAE@2@PEAX@Z 000000018001cfd0 f   Image.obj
 0001:0001bfe0       ?_Target_type@?$_Func_impl_no_alloc@V<lambda_9765b0d2b9eef0d40a4f4ca0aa039d39>@@IPEAE@std@@EEBAAEBVtype_info@@XZ 000000018001cfe0 f   Image.obj
 0001:0001bff0       ?_Move@?$_Func_impl_no_alloc@V<lambda_9765b0d2b9eef0d40a4f4ca0aa039d39>@@IPEAE@std@@EEAAPEAV?$_Func_base@IPEAE@2@PEAX@Z 000000018001cff0 f   Image.obj
 0001:0001bff0       ?_Copy@?$_Func_impl_no_alloc@V<lambda_9765b0d2b9eef0d40a4f4ca0aa039d39>@@IPEAE@std@@EEBAPEAV?$_Func_base@IPEAE@2@PEAX@Z 000000018001cff0 f   Image.obj
 0001:0001c000       ?_Target_type@?$_Func_impl_no_alloc@V<lambda_e30b72adce6e2103a6154189b6a4ebe4>@@IPEAE@std@@EEBAAEBVtype_info@@XZ 000000018001d000 f   Image.obj
 0001:0001c010       ?_Move@?$_Func_impl_no_alloc@V<lambda_e30b72adce6e2103a6154189b6a4ebe4>@@IPEAE@std@@EEAAPEAV?$_Func_base@IPEAE@2@PEAX@Z 000000018001d010 f   Image.obj
 0001:0001c010       ?_Copy@?$_Func_impl_no_alloc@V<lambda_e30b72adce6e2103a6154189b6a4ebe4>@@IPEAE@std@@EEBAPEAV?$_Func_base@IPEAE@2@PEAX@Z 000000018001d010 f   Image.obj
 0001:0001c020       ?_Do_call@?$_Func_impl_no_alloc@V<lambda_e30b72adce6e2103a6154189b6a4ebe4>@@IPEAE@std@@EEAAI$$QEAPEAE@Z 000000018001d020 f   Image.obj
 0001:0001c080       ?_Do_call@?$_Func_impl_no_alloc@V<lambda_9765b0d2b9eef0d40a4f4ca0aa039d39>@@IPEAE@std@@EEAAI$$QEAPEAE@Z 000000018001d080 f   Image.obj
 0001:0001c0b0       ?_Do_call@?$_Func_impl_no_alloc@V<lambda_943025469893224c00d6d2268cc9a208>@@IPEAE@std@@EEAAI$$QEAPEAE@Z 000000018001d0b0 f   Image.obj
 0001:0001cdf0       _register_canvas           000000018001ddf0 f   init.obj
 0001:0001d24c       $LN43                      000000018001e24c     register_font.obj
 0001:0001d2f0       ?load_exe_hook@@YAP6A_JXZIPEAUDelayLoadInfo@@@Z 000000018001e2f0 f   win_delay_load_hook.obj
 0001:0001dc10       ?initialize_pointers@@YAHXZ 000000018001ec10 f   libcpmt:winapisupp.obj
 0001:0001e110       $$000000                   000000018001f110     LIBCMT:_amdsecgs_.obj
 0001:0001e670       ?dllmain_crt_dispatch@@YAHQEAUHINSTANCE__@@KQEAX@Z 000000018001f670 f   LIBCMT:dll_dllmain.obj
 0001:0001e6c0       ?dllmain_crt_process_attach@@YAHQEAUHINSTANCE__@@QEAX@Z 000000018001f6c0 f   LIBCMT:dll_dllmain.obj
 0001:0001e7dc       ?dllmain_crt_process_detach@@YAH_N@Z 000000018001f7dc f   LIBCMT:dll_dllmain.obj
 0001:0001e86c       ?dllmain_dispatch@@YAHQEAUHINSTANCE__@@KQEAX@Z 000000018001f86c f   LIBCMT:dll_dllmain.obj
 0001:0001eae0       $$000000                   000000018001fae0     LIBCMT:_chkstk_.obj
 0001:0001ecfc       capture_current_context    000000018001fcfc f   LIBCMT:gs_report.obj
 0001:0001ed6c       capture_previous_context   000000018001fd6c f   LIBCMT:gs_report.obj
 0001:0001fe10       $$000000                   0000000180020e10     libvcruntime:memcpy.obj
 0001:0001fec7       MoveSmall                  0000000180020ec7     libvcruntime:memcpy.obj
 0001:00020280       $$000000                   0000000180021280     libvcruntime:memset.obj
 0001:0002037c       MsetTab                    000000018002137c     libvcruntime:memset.obj
 0001:00020440       $$000000                   0000000180021440     libvcruntime:memchr.obj
 0001:000204c0       $$000000                   00000001800214c0     libvcruntime:memcmp.obj
 0001:00020b60       ??$BuildCatchObjectHelperInternal@$$CBU_s_HandlerType@@@@YAHPEAUEHExceptionRecord@@PEAXPEBU_s_HandlerType@@PEBU_s_CatchableType@@@Z 0000000180021b60 f   libvcruntime:frame.obj
 0001:00020d60       ??$BuildCatchObjectInternal@$$CBU_s_HandlerType@@@@YAXPEAUEHExceptionRecord@@PEAXPEBU_s_HandlerType@@PEBU_s_CatchableType@@@Z 0000000180021d60 f   libvcruntime:frame.obj
 0001:00020e20       ??$CatchIt@V__FrameHandler3@@@@YAXPEAUEHExceptionRecord@@PEA_KPEAU_CONTEXT@@PEAU_xDISPATCHER_CONTEXT@@PEBU_s_FuncInfo@@PEBU_s_HandlerType@@PEBU_s_CatchableType@@PEBU_s_TryBlockMapEntry@@H1EE@Z 0000000180021e20 f   libvcruntime:frame.obj
 0001:00020ef0       ??$FindHandler@V__FrameHandler3@@@@YAXPEAUEHExceptionRecord@@PEA_KPEAU_CONTEXT@@PEAU_xDISPATCHER_CONTEXT@@PEBU_s_FuncInfo@@EH1@Z 0000000180021ef0 f   libvcruntime:frame.obj
 0001:00021354       ??$FindHandlerForForeignException@V__FrameHandler3@@@@YAXPEAUEHExceptionRecord@@PEA_KPEAU_CONTEXT@@PEAU_xDISPATCHER_CONTEXT@@PEBU_s_FuncInfo@@HH1@Z 0000000180022354 f   libvcruntime:frame.obj
 0001:00021b5c       ?ExFilterRethrow@@YAHPEAU_EXCEPTION_POINTERS@@PEAUEHExceptionRecord@@PEAH@Z 0000000180022b5c f   libvcruntime:frame.obj
 0001:00021e10       ?IsInExceptionSpec@@YAEPEAUEHExceptionRecord@@PEBU_s_ESTypeList@@@Z 0000000180022e10 f   libvcruntime:frame.obj
 0001:00021ee8       ?Is_bad_exception_allowed@@YAEPEBU_s_ESTypeList@@@Z 0000000180022ee8 f   libvcruntime:frame.obj
 0001:000220a8       ?try_get_function@@YAPEAXW4function_id@?A0xcc2f1bd3@@QEBDQEBW4module_id@2@2@Z 00000001800230a8 f   libvcruntime:winapi_downlevel.obj
 0001:00022480       $$000000                   0000000180023480     libvcruntime:_notify_.obj
 0001:000224d0       $$000000                   00000001800234d0     libvcruntime:handlers.obj
 0001:00022890       ??$common_assert_to_message_box@_W@@YAXQEB_W0IQEAX@Z 0000000180023890 f   libucrt:assert.obj
 0001:00022954       ??$common_assert_to_message_box_build_string@_W@@YAXQEA_W_KQEB_W2IQEAX@Z 0000000180023954 f   libucrt:assert.obj
 0001:00022e58       ??$common_assert_to_stderr@_W@@YAXQEB_W0I@Z 0000000180023e58 f   libucrt:assert.obj
 0001:00022fc8       ?get_assert_format@@YAPEB_W_W@Z 0000000180023fc8 f   libucrt:assert.obj
 0001:000233e8       ?internal_isupper_l@@YA_NHQEAU__crt_locale_pointers@@@Z 00000001800243e8 f   libucrt:tolower_toupper.obj
 0001:000235b4       ??$?RV<lambda_0d412022a4b28cc8a401ea49574e8ae6>@@AEAV<lambda_a775ed57af18ba8e4d5dc780aa9068fe>@@V<lambda_975a71a6baa488a08f4e15f6b0339b9e>@@@?$__crt_seh_guarded_call@H@@QEAAH$$QEAV<lambda_0d412022a4b28cc8a401ea49574e8ae6>@@AEAV<lambda_a775ed57af18ba8e4d5dc780aa9068fe>@@$$QEAV<lambda_975a71a6baa488a08f4e15f6b0339b9e>@@@Z 00000001800245b4 f   libucrt:output.obj
 0001:000235f4       ??$common_vsprintf@Vstandard_base@__crt_stdio_output@@D@@YAH_KQEAD0QEBDQEAU__crt_locale_pointers@@1@Z 00000001800245f4 f   libucrt:output.obj
 0001:000237c0       ??$common_vsprintf@Vstandard_base@__crt_stdio_output@@_W@@YAH_KQEA_W0QEB_WQEAU__crt_locale_pointers@@QEAD@Z 00000001800247c0 f   libucrt:output.obj
 0001:00023f1c       ??R<lambda_a775ed57af18ba8e4d5dc780aa9068fe>@@QEBAHXZ 0000000180024f1c f   libucrt:output.obj
 0001:000268b8       ??$common_ftell@J@@YAJV__crt_stdio_stream@@@Z 00000001800278b8 f   libucrt:ftell.obj
 0001:00026928       ??$common_ftell_nolock@_J@@YA_JV__crt_stdio_stream@@@Z 0000000180027928 f   libucrt:ftell.obj
 0001:00026a58       ?common_ftell_read_mode_nolock@@YA_JV__crt_stdio_stream@@_J1@Z 0000000180027a58 f   libucrt:ftell.obj
 0001:00026ba4       ?common_ftell_translated_utf8_nolock@@YA_JV__crt_stdio_stream@@_J@Z 0000000180027ba4 f   libucrt:ftell.obj
 0001:00026d20       ?count_newline_bytes@@YA_JQEBD0W4__crt_lowio_text_mode@@@Z 0000000180027d20 f   libucrt:ftell.obj
 0001:00026db4       ??$common_fsopen@D@@YAPEAU_iobuf@@QEBD0H@Z 0000000180027db4 f   libucrt:fopen.obj
 0001:00026f64       ?common_fseek@@YAHV__crt_stdio_stream@@_JH@Z 0000000180027f64 f   libucrt:fseek.obj
 0001:00026fd0       ?common_fseek_binary_mode_read_only_fast_track_nolock@@YA_NV__crt_stdio_stream@@_JH@Z 0000000180027fd0 f   libucrt:fseek.obj
 0001:000270b4       ?common_fseek_nolock@@YAHV__crt_stdio_stream@@_JH@Z 00000001800280b4 f   libucrt:fseek.obj
 0001:00027668       ??$?RV<lambda_3a04bfe258a31910a526c90b4d849d20>@@AEAV<lambda_1b3ad63c02abf531fe15530b52bade31>@@V<lambda_1755787d260f86bf828f8bf7552b2658>@@@?$__crt_seh_guarded_call@H@@QEAAH$$QEAV<lambda_3a04bfe258a31910a526c90b4d849d20>@@AEAV<lambda_1b3ad63c02abf531fe15530b52bade31>@@$$QEAV<lambda_1755787d260f86bf828f8bf7552b2658>@@@Z 0000000180028668 f   libucrt:stat.obj
 0001:000278a0       ??$common_stat_handle_file_opened@U_stat64i32@@@@YA_NQEB_WHQEAXAEAU_stat64i32@@@Z 00000001800288a0 f   libucrt:stat.obj
 0001:00027a44       ??$convert_filetime_to_time_t@_J@@YA_JU_FILETIME@@_J@Z 0000000180028a44 f   libucrt:stat.obj
 0001:00027ae0       ?convert_to_stat_mode@@YAGHQEB_W@Z 0000000180028ae0 f   libucrt:stat.obj
 0001:00027c18       ?get_drive_number_from_path@@YA_NQEB_WAEAH@Z 0000000180028c18 f   libucrt:stat.obj
 0001:000284bc       memcpy_s                   00000001800294bc f   libucrt:strtod.obj
 0001:000284bc       memcpy_s                   00000001800294bc f   libucrt:cfout.obj
 0001:00028550       $$000000                   0000000180029550     libucrt:pow.obj
 0001:00029bf0       $$000000                   000000018002abf0     libucrt:powf.obj
 0001:0002b1d8       ??$?RV<lambda_d80eeec6fff315bfe5c115232f3240e3>@@AEAV<lambda_6e4b09c48022b2350581041d5f6b0c4c>@@V<lambda_2358e3775559c9db80273638284d5e45>@@@?$__crt_seh_guarded_call@X@@QEAAX$$QEAV<lambda_d80eeec6fff315bfe5c115232f3240e3>@@AEAV<lambda_6e4b09c48022b2350581041d5f6b0c4c>@@$$QEAV<lambda_2358e3775559c9db80273638284d5e45>@@@Z 000000018002c1d8 f   libucrt:exit.obj
 0001:0002b210       ??R<lambda_6e4b09c48022b2350581041d5f6b0c4c>@@QEBA@XZ 000000018002c210 f   libucrt:exit.obj
 0001:0002b2d4       ?atexit_exception_filter@@YAHK@Z 000000018002c2d4 f   libucrt:exit.obj
 0001:0002b2e0       ?common_exit@@YAXHW4_crt_exit_cleanup_mode@@W4_crt_exit_return_mode@@@Z 000000018002c2e0 f   libucrt:exit.obj
 0001:0002b39c       ?exit_or_terminate_process@@YAXI@Z 000000018002c39c f   libucrt:exit.obj
 0001:0002b3e8       ?try_cor_exit_process@@YAXI@Z 000000018002c3e8 f   libucrt:exit.obj
 0001:0002b470       ??$parse_command_line@D@@YAXPEADPEAPEAD0PEA_K2@Z 000000018002c470 f   libucrt:argv_parsing.obj
 0001:0002b81c       ??$common_initialize_environment_nolock@D@@YAHXZ 000000018002c81c f   libucrt:environment_initialization.obj
 0001:0002b888       ??$create_environment@D@@YAQEAPEADQEAD@Z 000000018002c888 f   libucrt:environment_initialization.obj
 0001:0002b990       ??$free_environment@D@@YAXQEAPEAD@Z 000000018002c990 f   libucrt:environment_initialization.obj
 0001:0002b990       ??$free_environment@_W@@YAXQEAPEA_W@Z 000000018002c990 f   libucrt:environment_initialization.obj
 0001:0002b9d4       ??$initialize_environment_by_cloning_nolock@D@@YAHXZ 000000018002c9d4 f   libucrt:environment_initialization.obj
 0001:0002baa8       ??$uninitialize_environment_internal@D@@YAXAEAPEAPEAD@Z 000000018002caa8 f   libucrt:environment_initialization.obj
 0001:0002bac4       ??$uninitialize_environment_internal@_W@@YAXAEAPEAPEA_W@Z 000000018002cac4 f   libucrt:environment_initialization.obj
 0001:0002bb5c       ??$?RV<lambda_638799b9deba96c50f710eeac98168cd>@@AEAV<lambda_22ebabd17bc4fa466a2aca6d8deb888d>@@V<lambda_a6f7d7db0129f75315ebf26d50c089f1>@@@?$__crt_seh_guarded_call@H@@QEAAH$$QEAV<lambda_638799b9deba96c50f710eeac98168cd>@@AEAV<lambda_22ebabd17bc4fa466a2aca6d8deb888d>@@$$QEAV<lambda_a6f7d7db0129f75315ebf26d50c089f1>@@@Z 000000018002cb5c f   libucrt:onexit.obj
 0001:0002bb98       ??$?RV<lambda_7777bce6b2f8c936911f934f8298dc43>@@AEAV<lambda_f03950bc5685219e0bcd2087efbe011e>@@V<lambda_3883c3dff614d5e0c5f61bb1ac94921c>@@@?$__crt_seh_guarded_call@H@@QEAAH$$QEAV<lambda_7777bce6b2f8c936911f934f8298dc43>@@AEAV<lambda_f03950bc5685219e0bcd2087efbe011e>@@$$QEAV<lambda_3883c3dff614d5e0c5f61bb1ac94921c>@@@Z 000000018002cb98 f   libucrt:onexit.obj
 0001:0002bbd4       ??R<lambda_22ebabd17bc4fa466a2aca6d8deb888d>@@QEBAHXZ 000000018002cbd4 f   libucrt:onexit.obj
 0001:0002bd84       ??R<lambda_f03950bc5685219e0bcd2087efbe011e>@@QEBAHXZ 000000018002cd84 f   libucrt:onexit.obj
 0001:0002bf58       initialize_global_variables 000000018002cf58 f   libucrt:initialization.obj
 0001:0002bf6c       initialize_c               000000018002cf6c f   libucrt:initialization.obj
 0001:0002bf90       uninitialize_global_state_isolation 000000018002cf90 f   libucrt:initialization.obj
 0001:0002bf90       initialize_global_state_isolation 000000018002cf90 f   libucrt:initialization.obj
 0001:0002bf90       initialize_environment     000000018002cf90 f   libucrt:initialization.obj
 0001:0002bf90       report_memory_leaks        000000018002cf90 f   libucrt:initialization.obj
 0001:0002bf90       uninitialize_c             000000018002cf90 f   libucrt:initialization.obj
 0001:0002bf94       uninitialize_environment   000000018002cf94 f   libucrt:initialization.obj
 0001:0002bfa4       initialize_pointers        000000018002cfa4 f   libucrt:initialization.obj
 0001:0002bfe4       uninitialize_vcruntime     000000018002cfe4 f   libucrt:initialization.obj
 0001:0002bfec       uninitialize_allocated_memory 000000018002cfec f   libucrt:initialization.obj
 0001:0002c02c       uninitialize_allocated_io_buffers 000000018002d02c f   libucrt:initialization.obj
 0001:0002cd00       $$000000                   000000018002dd00     libucrt:strncmp.obj
 0001:0002cd90       ??$?RV<lambda_450d765d439847d4c735a33c368b5fc0>@@AEAV<lambda_44731a7d0e6d81c3e6aa82d741081786>@@V<lambda_601a2a7da3b7a96e9554ac7215c4b07c>@@@?$__crt_seh_guarded_call@P6AXH@Z@@QEAAP6AXH@Z$$QEAV<lambda_450d765d439847d4c735a33c368b5fc0>@@AEAV<lambda_44731a7d0e6d81c3e6aa82d741081786>@@$$QEAV<lambda_601a2a7da3b7a96e9554ac7215c4b07c>@@@Z 000000018002dd90 f   libucrt:signal.obj
 0001:0002d094       ??$?RV<lambda_0ae27a3a962d80f24befdcbee591983d>@@AEAV<lambda_8d0ee55de4b1038c4002e0adecdf1839>@@V<lambda_dc504788e8f1664fe9b84e20bfb512f2>@@@?$__crt_seh_guarded_call@X@@QEAAX$$QEAV<lambda_0ae27a3a962d80f24befdcbee591983d>@@AEAV<lambda_8d0ee55de4b1038c4002e0adecdf1839>@@$$QEAV<lambda_dc504788e8f1664fe9b84e20bfb512f2>@@@Z 000000018002e094 f   libucrt:per_thread_data.obj
 0001:0002d0d4       ??$?RV<lambda_2d41944a1d46af3157314b8a01080d33>@@AEAV<lambda_8f455de75cd7d7f24b4096f044d8b9e6>@@V<lambda_aa500f224e6afead328df44964fe2772>@@@?$__crt_seh_guarded_call@X@@QEAAX$$QEAV<lambda_2d41944a1d46af3157314b8a01080d33>@@AEAV<lambda_8f455de75cd7d7f24b4096f044d8b9e6>@@$$QEAV<lambda_aa500f224e6afead328df44964fe2772>@@@Z 000000018002e0d4 f   libucrt:per_thread_data.obj
 0001:0002d114       ??$?RV<lambda_aa87e3671a710a21b5dc78c0bdf72e11>@@AEAV<lambda_92619d2358a28f41a33ba319515a20b9>@@V<lambda_6992ecaafeb10aed2b74cb1fae11a551>@@@?$__crt_seh_guarded_call@X@@QEAAX$$QEAV<lambda_aa87e3671a710a21b5dc78c0bdf72e11>@@AEAV<lambda_92619d2358a28f41a33ba319515a20b9>@@$$QEAV<lambda_6992ecaafeb10aed2b74cb1fae11a551>@@@Z 000000018002e114 f   libucrt:per_thread_data.obj
 0001:0002d15c       ??$?RV<lambda_f2e299630e499de9f9a165e60fcd3db5>@@AEAV<lambda_2ae9d31cdba2644fcbeaf08da7c24588>@@V<lambda_40d01ff24d0e7b3814fdbdcee8eab3c7>@@@?$__crt_seh_guarded_call@X@@QEAAX$$QEAV<lambda_f2e299630e499de9f9a165e60fcd3db5>@@AEAV<lambda_2ae9d31cdba2644fcbeaf08da7c24588>@@$$QEAV<lambda_40d01ff24d0e7b3814fdbdcee8eab3c7>@@@Z 000000018002e15c f   libucrt:per_thread_data.obj
 0001:0002d1bc       ?construct_ptd_array@@YAXQEAU__acrt_ptd@@@Z 000000018002e1bc f   libucrt:per_thread_data.obj
 0001:0002d28c       ?destroy_fls@@YAXPEAX@Z    000000018002e28c f   libucrt:per_thread_data.obj
 0001:0002d2ac       ?destroy_ptd_array@@YAXQEAU__acrt_ptd@@@Z 000000018002e2ac f   libucrt:per_thread_data.obj
 0001:0002d3a4       ?replace_current_thread_locale_nolock@@YAXQEAU__acrt_ptd@@QEAU__crt_locale_data@@@Z 000000018002e3a4 f   libucrt:per_thread_data.obj
 0001:0002d740       ??$common_xtox@K_W@@YAHKQEA_W_KI_N@Z 000000018002e740 f   libucrt:xtoa.obj
 0001:0002d814       ??$common_xtox_s@K_W@@YAHKQEA_W_KI_N@Z 000000018002e814 f   libucrt:xtoa.obj
 0001:0002dc24       ??$?RV<lambda_842d9ff0dc9ef11c61343bbaebe7f885>@@AEAV<lambda_c5860995281e5c4ce005b3de8f5874ee>@@V<lambda_d90129c13df834fdcbf8d2b88dafcf2d>@@@?$__crt_seh_guarded_call@X@@QEAAX$$QEAV<lambda_842d9ff0dc9ef11c61343bbaebe7f885>@@AEAV<lambda_c5860995281e5c4ce005b3de8f5874ee>@@$$QEAV<lambda_d90129c13df834fdcbf8d2b88dafcf2d>@@@Z 000000018002ec24 f   libucrt:fflush.obj
 0001:0002dcc0       ??$?RV<lambda_886d6c58226a84441f68b9f2b8217b83>@@AEAV<lambda_ab61a845afdef5b7c387490eaf3616ee>@@V<lambda_f7f22ab5edc0698d5f6905b0d3f44752>@@@?$__crt_seh_guarded_call@X@@QEAAX$$QEAV<lambda_886d6c58226a84441f68b9f2b8217b83>@@AEAV<lambda_ab61a845afdef5b7c387490eaf3616ee>@@$$QEAV<lambda_f7f22ab5edc0698d5f6905b0d3f44752>@@@Z 000000018002ecc0 f   libucrt:fflush.obj
 0001:0002dda0       ??$?RV<lambda_c376a267cfb53b6959b3b692ec76b120>@@AEAV<lambda_9a32fed5bf61b6b509b2d3f6003082a1>@@V<lambda_572fbb9fa0ab338edf41edfd4b5fcc8d>@@@?$__crt_seh_guarded_call@H@@QEAAH$$QEAV<lambda_c376a267cfb53b6959b3b692ec76b120>@@AEAV<lambda_9a32fed5bf61b6b509b2d3f6003082a1>@@$$QEAV<lambda_572fbb9fa0ab338edf41edfd4b5fcc8d>@@@Z 000000018002eda0 f   libucrt:fflush.obj
 0001:0002dde0       ?common_flush_all@@YAH_N@Z 000000018002ede0 f   libucrt:fflush.obj
 0001:0002df78       ??$?RV<lambda_84ec643ea9557e2f7dc01bb0e9624395>@@AEAV<lambda_ca71763b3c0644891230e4f79ea54fa6>@@V<lambda_439a761618c59b0600e24586724d733b>@@@?$__crt_seh_guarded_call@H@@QEAAH$$QEAV<lambda_84ec643ea9557e2f7dc01bb0e9624395>@@AEAV<lambda_ca71763b3c0644891230e4f79ea54fa6>@@$$QEAV<lambda_439a761618c59b0600e24586724d733b>@@@Z 000000018002ef78 f   libucrt:setvbuf.obj
 0001:0002dfb8       ??R<lambda_ca71763b3c0644891230e4f79ea54fa6>@@QEBAHXZ 000000018002efb8 f   libucrt:setvbuf.obj
 0001:0002e2ac       _call_matherr              000000018002f2ac f   libucrt:libm_error.obj
 0001:0002e314       _exception_enabled         000000018002f314 f   libucrt:libm_error.obj
 0001:0002e6d0       ?try_get_function@@YAPEAXW4function_id@?A0x391cf84c@@QEBDQEBW4module_id@2@2@Z 000000018002f6d0 f   libucrt:winapi_thunks.obj
 0001:0002f0fc       ?initialize_inherited_file_handles_nolock@@YAXXZ 00000001800300fc f   libucrt:ioinit.obj
 0001:0002f1ec       ?initialize_stdio_handles_nolock@@YAXXZ 00000001800301ec f   libucrt:ioinit.obj
 0001:0002f4d0       ?__acrt_LCMapStringA_stat@@YAHPEAU__crt_locale_pointers@@PEB_WKPEBDHPEADHHH@Z 00000001800304d0 f   libucrt:lcmapstringa.obj
 0001:0002f8e8       ??$?RV<lambda_410d79af7f07d98d83a3f525b3859a53>@@AEAV<lambda_3e16ef9562a7dcce91392c22ab16ea36>@@V<lambda_38119f0e861e05405d8a144b9b982f0a>@@@?$__crt_seh_guarded_call@X@@QEAAX$$QEAV<lambda_410d79af7f07d98d83a3f525b3859a53>@@AEAV<lambda_3e16ef9562a7dcce91392c22ab16ea36>@@$$QEAV<lambda_38119f0e861e05405d8a144b9b982f0a>@@@Z 00000001800308e8 f   libucrt:wsetlocale.obj
 0001:0002fd24       ?fp_format_a@@YAHQEBNPEAD_KQEAD2H_NIQEAU__crt_locale_pointers@@@Z 0000000180030d24 f   libucrt:cvt.obj
 0001:00030094       ?fp_format_e@@YAHQEBNQEAD_K12H_NIQEAU__crt_locale_pointers@@@Z 0000000180031094 f   libucrt:cvt.obj
 0001:00030170       ?fp_format_e_internal@@YAHQEAD_KH_NIQEAU_strflt@@2QEAU__crt_locale_pointers@@@Z 0000000180031170 f   libucrt:cvt.obj
 0001:00030344       ?fp_format_f_internal@@YAHQEAD_KHQEAU_strflt@@_NQEAU__crt_locale_pointers@@@Z 0000000180031344 f   libucrt:cvt.obj
 0001:00030488       ?fp_format_g@@YAHQEBNQEAD_K12H_NIQEAU__crt_locale_pointers@@@Z 0000000180031488 f   libucrt:cvt.obj
 0001:000305bc       ?fp_format_nan_or_infinity@@YAHW4__acrt_fp_class@@_NPEAD_K1@Z 00000001800315bc f   libucrt:cvt.obj
 0001:00030c38       ??$common_lseek@J@@YAJHJH@Z 0000000180031c38 f   libucrt:lseek.obj
 0001:00030d24       ??$common_lseek@_J@@YA_JH_JH@Z 0000000180031d24 f   libucrt:lseek.obj
 0001:00030e14       ??$common_lseek_nolock@J@@YAJHJH@Z 0000000180031e14 f   libucrt:lseek.obj
 0001:00030f08       ??$common_lseek_nolock@_J@@YA_JH_JH@Z 0000000180031f08 f   libucrt:lseek.obj
 0001:00030fbc       ??$translate_text_mode_nolock@D@@YAHHQEAD_K@Z 0000000180031fbc f   libucrt:read.obj
 0001:00031188       ??$translate_text_mode_nolock@_W@@YAHHQEA_W_K@Z 0000000180032188 f   libucrt:read.obj
 0001:000313f4       ?translate_ansi_or_utf8_nolock@@YAHHQEAD_KQEA_W1@Z 00000001800323f4 f   libucrt:read.obj
 0001:00031b78       ?find_or_allocate_unused_stream_nolock@@YA?AV__crt_stdio_stream@@XZ 0000000180032b78 f   libucrt:stream.obj
 0001:00031fc4       ??$?RV<lambda_751a882b2c74d4b022dec766aa51a29a>@@AEAV<lambda_628dfdc04ba53c8bfc02c9951375f3f5>@@V<lambda_f6c7be5f7998530c34de24c7437d6b54>@@@?$__crt_seh_guarded_call@H@@QEAAH$$QEAV<lambda_751a882b2c74d4b022dec766aa51a29a>@@AEAV<lambda_628dfdc04ba53c8bfc02c9951375f3f5>@@$$QEAV<lambda_f6c7be5f7998530c34de24c7437d6b54>@@@Z 0000000180032fc4 f   libucrt:close.obj
 0001:00032b1c       ??$common_loctotime_t@_J@@YA_JHHHHHHH@Z 0000000180033b1c f   libucrt:loctotime.obj
 0001:000338dc       ?_isindst_nolock@@YAHQEAUtm@@@Z 00000001800348dc f   libucrt:tzset.obj
 0001:00033bd0       ?cvtdate@@YAXW4transition_type@?A0x7639d0b4@@W4date_type@2@HHHHHHHHH@Z 0000000180034bd0 f   libucrt:tzset.obj
 0001:00033dc8       ?tzset_from_environment_nolock@@YAXPEAD@Z 0000000180034dc8 f   libucrt:tzset.obj
 0001:00033fd0       ?tzset_from_system_nolock@@YAXXZ 0000000180034fd0 f   libucrt:tzset.obj
 0001:00034178       ?tzset_nolock@@YAXXZ       0000000180035178 f   libucrt:tzset.obj
 0001:000343ec       ?<lambda_invoker_cdecl>@<lambda_c2303d2482d7c3675ea2e24c4cfb6115>@@CAHPEBX0@Z 00000001800353ec f   libucrt:argv_wildcards.obj
 0001:0003458c       ??$common_expand_argv_wildcards@D@@YAHQEAPEADQEAPEAPEAD@Z 000000018003558c f   libucrt:argv_wildcards.obj
 0001:00034798       ??$copy_and_add_argument_to_buffer@D@@YAHQEBD0_KAEAV?$argument_list@D@?A0x5f5c8891@@@Z 0000000180035798 f   libucrt:argv_wildcards.obj
 0001:00034920       ??$expand_argument_wildcards@D@@YAHQEAD0AEAV?$argument_list@D@?A0x5f5c8891@@@Z 0000000180035920 f   libucrt:argv_wildcards.obj
 0001:00034c38       ??$?RV<lambda_efdfa57d1f175319df784efa44bb7b81>@@AEAV<lambda_5f0a4c1567f8adc6734073e5d1e1b35c>@@V<lambda_2e8a7d3640ea6ccb4c2413664c2db6fd>@@@?$__crt_seh_guarded_call@X@@QEAAX$$QEAV<lambda_efdfa57d1f175319df784efa44bb7b81>@@AEAV<lambda_5f0a4c1567f8adc6734073e5d1e1b35c>@@$$QEAV<lambda_2e8a7d3640ea6ccb4c2413664c2db6fd>@@@Z 0000000180035c38 f   libucrt:mbctype.obj
 0001:00034df4       ?getSystemCP@@YAHH@Z       0000000180035df4 f   libucrt:mbctype.obj
 0001:00034e74       ?setSBCS@@YAXPEAU__crt_multibyte_data@@@Z 0000000180035e74 f   libucrt:mbctype.obj
 0001:00034f04       ?setSBUpLow@@YAXPEAU__crt_multibyte_data@@@Z 0000000180035f04 f   libucrt:mbctype.obj
 0001:000350e8       ?setmbcp_internal@@YAHH_NQEAU__acrt_ptd@@QEAPEAU__crt_multibyte_data@@@Z 00000001800360e8 f   libucrt:mbctype.obj
 0001:000352ac       ?update_thread_multibyte_data_internal@@YAPEAU__crt_multibyte_data@@QEAU__acrt_ptd@@QEAPEAU1@@Z 00000001800362ac f   libucrt:mbctype.obj
 0001:0003569c       ?x_ismbbtype_l@@YAHPEAU__crt_locale_pointers@@IHH@Z 000000018003669c f   libucrt:ismbbyte.obj
 0001:00035854       ??$common_set_variable_in_environment_nolock@D@@YAHQEADH@Z 0000000180036854 f   libucrt:setenv.obj
 0001:00035b74       ??$copy_environment@D@@YAPEAPEADQEAPEAD@Z 0000000180036b74 f   libucrt:setenv.obj
 0001:00036244       ??$?RV<lambda_a37b2b86f63e897a80ea819b0eb08c01>@@AEAV<lambda_38ce7e780aa69e748d6df282ebc68efe>@@V<lambda_99fb1378e971ab6e7edea83e3a7a83a2>@@@?$__crt_seh_guarded_call@H@@QEAAH$$QEAV<lambda_a37b2b86f63e897a80ea819b0eb08c01>@@AEAV<lambda_38ce7e780aa69e748d6df282ebc68efe>@@$$QEAV<lambda_99fb1378e971ab6e7edea83e3a7a83a2>@@@Z 0000000180037244 f   libucrt:commit.obj
 0001:00036364       ?write_double_translated_ansi_nolock@@YA?AUwrite_result@?A0x17268360@@HQEBDI@Z 0000000180037364 f   libucrt:write.obj
 0001:00036840       ?write_text_ansi_nolock@@YA?AUwrite_result@?A0x17268360@@HQEBDI@Z 0000000180037840 f   libucrt:write.obj
 0001:00036944       ?write_text_utf16le_nolock@@YA?AUwrite_result@?A0x17268360@@HQEBDI@Z 0000000180037944 f   libucrt:write.obj
 0001:00036a60       ?write_text_utf8_nolock@@YA?AUwrite_result@?A0x17268360@@HQEBDI@Z 0000000180037a60 f   libucrt:write.obj
 0001:000372b4       ?GetTableIndexFromLocaleName@@YAHPEB_W@Z 00000001800382b4 f   libucrt:lcidtoname_downlevel.obj
 0001:00037548       ?free_crt_array_internal@@YAXQEAPEBX_K@Z 0000000180038548 f   libucrt:inittime.obj
 0001:00038c2c       ??$write_buffer_nolock@D@@YA_NDV__crt_stdio_stream@@@Z 0000000180039c2c f   libucrt:_flsbuf.obj
 0001:00038d10       ??$write_buffer_nolock@_W@@YA_N_WV__crt_stdio_stream@@@Z 0000000180039d10 f   libucrt:_flsbuf.obj
 0001:00038df8       ?stream_is_at_end_of_file_nolock@@YA_NV__crt_stdio_stream@@@Z 0000000180039df8 f   libucrt:_flsbuf.obj
 0001:00039230       ??$common_sopen_dispatch@D@@YAHQEBDHHHQEAHH@Z 000000018003a230 f   libucrt:open.obj
 0001:000392f4       ?configure_text_mode@@YAHHUfile_options@?A0xa9d50aae@@HAEAW4__crt_lowio_text_mode@@@Z 000000018003a2f4 f   libucrt:open.obj
 0001:00039588       ?decode_options@@YA?AUfile_options@?A0xa9d50aae@@HHH@Z 000000018003a588 f   libucrt:open.obj
 0001:00039794       ?truncate_ctrl_z_if_present@@YAHH@Z 000000018003a794 f   libucrt:open.obj
 0001:00039fa0       $$000000                   000000018003afa0     libucrt:fpsr.obj
 0001:0003a000       ??$common_getenv_nolock@D@@YAPEADQEBD@Z 000000018003b000 f   libucrt:getenv.obj
 0001:0003a08c       ??$common_getenv_s@D@@YAHQEA_KQEAD_KQEBD@Z 000000018003b08c f   libucrt:getenv.obj
 0001:0003a550       fallbackMethod             000000018003b550 f   libucrt:strpbrk.obj
 0001:0003a914       $LN78                      000000018003b914     libucrt:strpbrk.obj
 0001:0003a950       $LN77                      000000018003b950     libucrt:strpbrk.obj
 0001:0003a990       $LN76                      000000018003b990     libucrt:strpbrk.obj
 0001:0003aa6c       ?initialize_multibyte@@YAHXZ 000000018003ba6c f   libucrt:multibyte_initializer.obj
 0001:0003b110       $$000000                   000000018003c110     libucrt:log10.obj
 0001:0003b9c0       ?InternalCompareStringA@@YAHPEAU__crt_locale_pointers@@PEB_WKPEBDH2HH@Z 000000018003c9c0 f   libucrt:comparestringa.obj
 0001:0003bf70       _log_special_common        000000018003cf70 f   libucrt:log_special.obj
 0001:0003d280       $$000000                   000000018003e280     libucrt:strcmp.obj
 0001:0003d300       $$000000                   000000018003e300     libucrt:tan.obj
 0001:0003d8c0       _tan_piby4                 000000018003e8c0 f   libucrt:tan.obj
 0001:0003da98       _sincos_special            000000018003ea98 f   libucrt:sincos_special.obj
 0001:0003db50       $$000000                   000000018003eb50     libucrt:remainder_piby2_forfma3.obj
 0001:0003ddc0       $$000000                   000000018003edc0     libucrt:remainder_piby2_forasm.obj
 0001:0003e110       $$000000                   000000018003f110     LIBCMT:_guard_dispatch_.obj
 0001:0003e130       $$000000                   000000018003f130     libvcruntime:_longjmp_.obj
 0001:0003e230       $$000000                   000000018003f230     libvcruntime:_setjmp_.obj
 0001:0003e2f0       ?dtor$0@?0???0Backend@@IEAA@V?$basic_string@DU?$char_traits@D@std@@V?$allocator@D@2@@std@@HH@Z@4HA 000000018003f2f0 f   Backend.obj
 0001:0003e2fc       ?dtor$1@?0???0Backend@@IEAA@V?$basic_string@DU?$char_traits@D@std@@V?$allocator@D@2@@std@@HH@Z@4HA 000000018003f2fc f   Backend.obj
 0001:0003e310       ?dtor$0@?0??init@Backend@@KAXAEBV?$FunctionCallbackInfo@VValue@v8@@@Nan@@@Z@4HA 000000018003f310 f   Backend.obj
 0001:0003e31e       ?dtor$1@?0??init@Backend@@KAXAEBV?$FunctionCallbackInfo@VValue@v8@@@Nan@@@Z@4HA 000000018003f31e f   Backend.obj
 0001:0003e330       ?dtor$0@?0??New@?$Factory@VFunctionTemplate@v8@@@imp@Nan@@SA?AV?$Local@VFunctionTemplate@v8@@@v8@@P6AXAEBV?$FunctionCallbackInfo@VValue@v8@@@3@@ZV?$Local@VValue@v8@@@5@V?$Local@VSignature@v8@@@5@@Z@4HA 000000018003f330 f   ImageBackend.obj
 0001:0003e33e       ?dtor$1@?0??New@?$Factory@VFunctionTemplate@v8@@@imp@Nan@@SA?AV?$Local@VFunctionTemplate@v8@@@v8@@P6AXAEBV?$FunctionCallbackInfo@VValue@v8@@@3@@ZV?$Local@VValue@v8@@@5@V?$Local@VSignature@v8@@@5@@Z@4HA 000000018003f33e f   ImageBackend.obj
 0001:0003e350       ?dtor$1@?0???0PdfBackend@@QEAA@HH@Z@4HA 000000018003f350 f   PdfBackend.obj
 0001:0003e350       ?dtor$1@?0???0SvgBackend@@QEAA@HH@Z@4HA 000000018003f350 f   SvgBackend.obj
 0001:0003e35c       ?dtor$2@?0???0SvgBackend@@QEAA@HH@Z@4HA 000000018003f35c f   SvgBackend.obj
 0001:0003e35c       ?dtor$2@?0???0PdfBackend@@QEAA@HH@Z@4HA 000000018003f35c f   PdfBackend.obj
 0001:0003e380       ?dtor$0@?0??createSurface@PdfBackend@@EEAAPEAU_cairo_surface@@XZ@4HA 000000018003f380 f   PdfBackend.obj
 0001:0003e380       ?dtor$0@?0??createSurface@SvgBackend@@EEAAPEAU_cairo_surface@@XZ@4HA 000000018003f380 f   SvgBackend.obj
 0001:0003e3a0       ?dtor$0@?0??Initialize@Backends@@SAXV?$Local@VObject@v8@@@v8@@@Z@4HA 000000018003f3a0 f   Backends.obj
 0001:0003e3ac       ?dtor$2@?0??Initialize@Backends@@SAXV?$Local@VObject@v8@@@v8@@@Z@4HA 000000018003f3ac f   Backends.obj
 0001:0003e3b8       ?dtor$5@?0??Initialize@Backends@@SAXV?$Local@VObject@v8@@@v8@@@Z@4HA 000000018003f3b8 f   Backends.obj
 0001:0003e3c4       ?dtor$8@?0??Initialize@Backends@@SAXV?$Local@VObject@v8@@@v8@@@Z@4HA 000000018003f3c4 f   Backends.obj
 0001:0003e3d0       ?dtor$0@?0??SetPrototypeMethod@Nan@@YAXV?$Local@VFunctionTemplate@v8@@@v8@@PEBDP6AXAEBV?$FunctionCallbackInfo@VValue@v8@@@1@@Z@Z@4HA 000000018003f3d0 f   Canvas.obj
 0001:0003e3d0       ?dtor$0@?0??ThrowRangeError@Nan@@YAXPEBD@Z@4HA 000000018003f3d0 f   ImageData.obj
 0001:0003e3d0       ?dtor$0@?0???$SetMethod@VObjectTemplate@v8@@VLocal@2@@Nan@@YAXV?$Local@VObjectTemplate@v8@@@v8@@PEBDP6AXAEBV?$FunctionCallbackInfo@VValue@v8@@@0@@Z@Z@4HA 000000018003f3d0 f   Image.obj
 0001:0003e3d0       ?dtor$0@?0??ThrowError@Nan@@YAXPEBD@Z@4HA 000000018003f3d0 f   Canvas.obj
 0001:0003e3d0       ?dtor$0@?0??ThrowTypeError@Nan@@YAXPEBD@Z@4HA 000000018003f3d0 f   Canvas.obj
 0001:0003e3d0       ?dtor$0@?0???0Utf8String@Nan@@QEAA@V?$Local@VValue@v8@@@v8@@@Z@4HA 000000018003f3d0 f   Canvas.obj
 0001:0003e3e0       ?dtor$0@?0??SetProtoAccessor@@YAXV?$Local@VObjectTemplate@v8@@@v8@@V?$Local@VString@v8@@@2@P6AX1AEBV?$PropertyCallbackInfo@VValue@v8@@@Nan@@@ZP6AX1V?$Local@VValue@v8@@@2@AEBV?$PropertyCallbackInfo@X@5@@ZV?$Local@VFunctionTemplate@v8@@@2@@Z@4HA 000000018003f3e0 f   Canvas.obj
 0001:0003e3ec       ?dtor$2@?0??SetProtoAccessor@@YAXV?$Local@VObjectTemplate@v8@@@v8@@V?$Local@VString@v8@@@2@P6AX1AEBV?$PropertyCallbackInfo@VValue@v8@@@Nan@@@ZP6AX1V?$Local@VValue@v8@@@2@AEBV?$PropertyCallbackInfo@X@5@@ZV?$Local@VFunctionTemplate@v8@@@2@@Z@4HA 000000018003f3ec f   Canvas.obj
 0001:0003e400       ?dtor$0@?0??empty_closure_output_buffer@@YAEPEAUjpeg_compress_struct@@@Z@4HA 000000018003f400 f   Canvas.obj
 0001:0003e40c       ?dtor$1@?0??empty_closure_output_buffer@@YAEPEAUjpeg_compress_struct@@@Z@4HA 000000018003f40c f   Canvas.obj
 0001:0003e420       ?dtor$0@?0??term_closure_destination@@YAXPEAUjpeg_compress_struct@@@Z@4HA 000000018003f420 f   Canvas.obj
 0001:0003e42c       ?dtor$1@?0??term_closure_destination@@YAXPEAUjpeg_compress_struct@@@Z@4HA 000000018003f42c f   Canvas.obj
 0001:0003e440       ?dtor$0@?0??Initialize@Canvas@@SAXV?$Local@VObject@v8@@@v8@@@Z@4HA 000000018003f440 f   Canvas.obj
 0001:0003e44c       ?dtor$2@?0??Initialize@Canvas@@SAXV?$Local@VObject@v8@@@v8@@@Z@4HA 000000018003f44c f   Canvas.obj
 0001:0003e458       ?dtor$5@?0??Initialize@Canvas@@SAXV?$Local@VObject@v8@@@v8@@@Z@4HA 000000018003f458 f   Canvas.obj
 0001:0003e466       ?dtor$7@?0??Initialize@Canvas@@SAXV?$Local@VObject@v8@@@v8@@@Z@4HA 000000018003f466 f   Canvas.obj
 0001:0003e474       ?dtor$9@?0??Initialize@Canvas@@SAXV?$Local@VObject@v8@@@v8@@@Z@4HA 000000018003f474 f   Canvas.obj
 0001:0003e482       ?dtor$11@?0??Initialize@Canvas@@SAXV?$Local@VObject@v8@@@v8@@@Z@4HA 000000018003f482 f   Canvas.obj
 0001:0003e490       ?dtor$13@?0??Initialize@Canvas@@SAXV?$Local@VObject@v8@@@v8@@@Z@4HA 000000018003f490 f   Canvas.obj
 0001:0003e49e       ?dtor$15@?0??Initialize@Canvas@@SAXV?$Local@VObject@v8@@@v8@@@Z@4HA 000000018003f49e f   Canvas.obj
 0001:0003e4ac       ?dtor$17@?0??Initialize@Canvas@@SAXV?$Local@VObject@v8@@@v8@@@Z@4HA 000000018003f4ac f   Canvas.obj
 0001:0003e4ba       ?dtor$19@?0??Initialize@Canvas@@SAXV?$Local@VObject@v8@@@v8@@@Z@4HA 000000018003f4ba f   Canvas.obj
 0001:0003e4c6       ?dtor$22@?0??Initialize@Canvas@@SAXV?$Local@VObject@v8@@@v8@@@Z@4HA 000000018003f4c6 f   Canvas.obj
 0001:0003e4e0       ?dtor$8@?0??New@Canvas@@SAXAEBV?$FunctionCallbackInfo@VValue@v8@@@Nan@@@Z@4HA 000000018003f4e0 f   Canvas.obj
 0001:0003e4ee       ?dtor$9@?0??New@Canvas@@SAXAEBV?$FunctionCallbackInfo@VValue@v8@@@Nan@@@Z@4HA 000000018003f4ee f   Canvas.obj
 0001:0003e4fc       ?dtor$1@?0??New@Canvas@@SAXAEBV?$FunctionCallbackInfo@VValue@v8@@@Nan@@@Z@4HA 000000018003f4fc f   Canvas.obj
 0001:0003e519       ?dtor$3@?0??New@Canvas@@SAXAEBV?$FunctionCallbackInfo@VValue@v8@@@Nan@@@Z@4HA 000000018003f519 f   Canvas.obj
 0001:0003e536       ?dtor$4@?0??New@Canvas@@SAXAEBV?$FunctionCallbackInfo@VValue@v8@@@Nan@@@Z@4HA 000000018003f536 f   Canvas.obj
 0001:0003e553       ?dtor$5@?0??New@Canvas@@SAXAEBV?$FunctionCallbackInfo@VValue@v8@@@Nan@@@Z@4HA 000000018003f553 f   Canvas.obj
 0001:0003e570       ?dtor$10@?0??New@Canvas@@SAXAEBV?$FunctionCallbackInfo@VValue@v8@@@Nan@@@Z@4HA 000000018003f570 f   Canvas.obj
 0001:0003e57e       ?dtor$6@?0??New@Canvas@@SAXAEBV?$FunctionCallbackInfo@VValue@v8@@@Nan@@@Z@4HA 000000018003f57e f   Canvas.obj
 0001:0003e5a0       ?dtor$0@?0??SetImageSmoothingEnabled@Context2d@@SAXV?$Local@VString@v8@@@v8@@V?$Local@VValue@v8@@@3@AEBV?$PropertyCallbackInfo@X@Nan@@@Z@4HA 000000018003f5a0 f   CanvasRenderingContext2d.obj
 0001:0003e5a0       ?dtor$0@?0??SetWidth@Image@@SAXV?$Local@VString@v8@@@v8@@V?$Local@VValue@v8@@@3@AEBV?$PropertyCallbackInfo@X@Nan@@@Z@4HA 000000018003f5a0 f   Image.obj
 0001:0003e5a0       ?dtor$0@?0??SetHeight@Image@@SAXV?$Local@VString@v8@@@v8@@V?$Local@VValue@v8@@@3@AEBV?$PropertyCallbackInfo@X@Nan@@@Z@4HA 000000018003f5a0 f   Image.obj
 0001:0003e5a0       ?dtor$0@?0??SetHeight@Canvas@@SAXV?$Local@VString@v8@@@v8@@V?$Local@VValue@v8@@@3@AEBV?$PropertyCallbackInfo@X@Nan@@@Z@4HA 000000018003f5a0 f   Canvas.obj
 0001:0003e5a0       ?dtor$0@?0??SetWidth@Canvas@@SAXV?$Local@VString@v8@@@v8@@V?$Local@VValue@v8@@@3@AEBV?$PropertyCallbackInfo@X@Nan@@@Z@4HA 000000018003f5a0 f   Canvas.obj
 0001:0003e5a0       ?dtor$0@?0??SetTextAlignment@Context2d@@SAXAEBV?$FunctionCallbackInfo@VValue@v8@@@Nan@@@Z@4HA 000000018003f5a0 f   CanvasRenderingContext2d.obj
 0001:0003e5a0       ?dtor$0@?0??SetDataMode@Image@@SAXV?$Local@VString@v8@@@v8@@V?$Local@VValue@v8@@@3@AEBV?$PropertyCallbackInfo@X@Nan@@@Z@4HA 000000018003f5a0 f   Image.obj
 0001:0003e5a0       ?dtor$0@?0??SetTextBaseline@Context2d@@SAXAEBV?$FunctionCallbackInfo@VValue@v8@@@Nan@@@Z@4HA 000000018003f5a0 f   CanvasRenderingContext2d.obj
 0001:0003e5b0       ?dtor$0@?0??ToBufferAsyncAfter@Canvas@@SAXPEAUuv_work_s@@@Z@4HA 000000018003f5b0 f   Canvas.obj
 0001:0003e5bc       ?dtor$1@?0??ToBufferAsyncAfter@Canvas@@SAXPEAUuv_work_s@@@Z@4HA 000000018003f5bc f   Canvas.obj
 0001:0003e5c8       ?dtor$3@?0??ToBufferAsyncAfter@Canvas@@SAXPEAUuv_work_s@@@Z@4HA 000000018003f5c8 f   Canvas.obj
 0001:0003e5d4       ?dtor$9@?0??ToBufferAsyncAfter@Canvas@@SAXPEAUuv_work_s@@@Z@4HA 000000018003f5d4 f   Canvas.obj
 0001:0003e5e0       ?dtor$0@?0??parsePNGArgs@@YAXV?$Local@VValue@v8@@@v8@@AEAUPngClosure@@@Z@4HA 000000018003f5e0 f   Canvas.obj
 0001:0003e5ee       ?dtor$2@?0??parsePNGArgs@@YAXV?$Local@VValue@v8@@@v8@@AEAUPngClosure@@@Z@4HA 000000018003f5ee f   Canvas.obj
 0001:0003e5fc       ?dtor$3@?0??parsePNGArgs@@YAXV?$Local@VValue@v8@@@v8@@AEAUPngClosure@@@Z@4HA 000000018003f5fc f   Canvas.obj
 0001:0003e60a       ?dtor$4@?0??parsePNGArgs@@YAXV?$Local@VValue@v8@@@v8@@AEAUPngClosure@@@Z@4HA 000000018003f60a f   Canvas.obj
 0001:0003e620       ?dtor$0@?0??parseJPEGArgs@@YAXV?$Local@VValue@v8@@@v8@@AEAUJpegClosure@@@Z@4HA 000000018003f620 f   Canvas.obj
 0001:0003e62e       ?dtor$2@?0??parseJPEGArgs@@YAXV?$Local@VValue@v8@@@v8@@AEAUJpegClosure@@@Z@4HA 000000018003f62e f   Canvas.obj
 0001:0003e63c       ?dtor$3@?0??parseJPEGArgs@@YAXV?$Local@VValue@v8@@@v8@@AEAUJpegClosure@@@Z@4HA 000000018003f63c f   Canvas.obj
 0001:0003e64a       ?dtor$4@?0??parseJPEGArgs@@YAXV?$Local@VValue@v8@@@v8@@AEAUJpegClosure@@@Z@4HA 000000018003f64a f   Canvas.obj
 0001:0003e658       ?dtor$5@?0??parseJPEGArgs@@YAXV?$Local@VValue@v8@@@v8@@AEAUJpegClosure@@@Z@4HA 000000018003f658 f   Canvas.obj
 0001:0003e670       ?dtor$0@?0??ToBuffer@Canvas@@SAXAEBV?$FunctionCallbackInfo@VValue@v8@@@Nan@@@Z@4HA 000000018003f670 f   Canvas.obj
 0001:0003e67c       ?dtor$1@?0??ToBuffer@Canvas@@SAXAEBV?$FunctionCallbackInfo@VValue@v8@@@Nan@@@Z@4HA 000000018003f67c f   Canvas.obj
 0001:0003e688       ?dtor$2@?0??ToBuffer@Canvas@@SAXAEBV?$FunctionCallbackInfo@VValue@v8@@@Nan@@@Z@4HA 000000018003f688 f   Canvas.obj
 0001:0003e694       ?catch$68@?0??ToBuffer@Canvas@@SAXAEBV?$FunctionCallbackInfo@VValue@v8@@@Nan@@@Z@4HA 000000018003f694 f   Canvas.obj
 0001:0003e6a2       __catch$?ToBuffer@Canvas@@SAXAEBV?$FunctionCallbackInfo@VValue@v8@@@Nan@@@Z$0 000000018003f6a2 f   Canvas.obj
 0001:0003e719       ?catch$69@?0??ToBuffer@Canvas@@SAXAEBV?$FunctionCallbackInfo@VValue@v8@@@Nan@@@Z@4HA 000000018003f719 f   Canvas.obj
 0001:0003e726       __catch$?ToBuffer@Canvas@@SAXAEBV?$FunctionCallbackInfo@VValue@v8@@@Nan@@@Z$1 000000018003f726 f   Canvas.obj
 0001:0003e741       ?dtor$3@?0??ToBuffer@Canvas@@SAXAEBV?$FunctionCallbackInfo@VValue@v8@@@Nan@@@Z@4HA 000000018003f741 f   Canvas.obj
 0001:0003e75e       ?catch$64@?0??ToBuffer@Canvas@@SAXAEBV?$FunctionCallbackInfo@VValue@v8@@@Nan@@@Z@4HA 000000018003f75e f   Canvas.obj
 0001:0003e76c       __catch$?ToBuffer@Canvas@@SAXAEBV?$FunctionCallbackInfo@VValue@v8@@@Nan@@@Z$3 000000018003f76c f   Canvas.obj
 0001:0003e7e3       ?catch$65@?0??ToBuffer@Canvas@@SAXAEBV?$FunctionCallbackInfo@VValue@v8@@@Nan@@@Z@4HA 000000018003f7e3 f   Canvas.obj
 0001:0003e7f0       __catch$?ToBuffer@Canvas@@SAXAEBV?$FunctionCallbackInfo@VValue@v8@@@Nan@@@Z$4 000000018003f7f0 f   Canvas.obj
 0001:0003e80b       ?dtor$4@?0??ToBuffer@Canvas@@SAXAEBV?$FunctionCallbackInfo@VValue@v8@@@Nan@@@Z@4HA 000000018003f80b f   Canvas.obj
 0001:0003e828       ?dtor$5@?0??ToBuffer@Canvas@@SAXAEBV?$FunctionCallbackInfo@VValue@v8@@@Nan@@@Z@4HA 000000018003f828 f   Canvas.obj
 0001:0003e834       ?dtor$6@?0??ToBuffer@Canvas@@SAXAEBV?$FunctionCallbackInfo@VValue@v8@@@Nan@@@Z@4HA 000000018003f834 f   Canvas.obj
 0001:0003e840       ?catch$66@?0??ToBuffer@Canvas@@SAXAEBV?$FunctionCallbackInfo@VValue@v8@@@Nan@@@Z@4HA 000000018003f840 f   Canvas.obj
 0001:0003e84e       __catch$?ToBuffer@Canvas@@SAXAEBV?$FunctionCallbackInfo@VValue@v8@@@Nan@@@Z$6 000000018003f84e f   Canvas.obj
 0001:0003e8c5       ?catch$67@?0??ToBuffer@Canvas@@SAXAEBV?$FunctionCallbackInfo@VValue@v8@@@Nan@@@Z@4HA 000000018003f8c5 f   Canvas.obj
 0001:0003e8d3       __catch$?ToBuffer@Canvas@@SAXAEBV?$FunctionCallbackInfo@VValue@v8@@@Nan@@@Z$8 000000018003f8d3 f   Canvas.obj
 0001:0003e94a       ?dtor$8@?0??ToBuffer@Canvas@@SAXAEBV?$FunctionCallbackInfo@VValue@v8@@@Nan@@@Z@4HA 000000018003f94a f   Canvas.obj
 0001:0003e970       ?dtor$0@?0??streamPNG@@YA?AW4_cairo_status@@PEAXPEBEI@Z@4HA 000000018003f970 f   Canvas.obj
 0001:0003e970       ?dtor$0@?0??streamPDF@@YA?AW4_cairo_status@@PEAXPEBEI@Z@4HA 000000018003f970 f   Canvas.obj
 0001:0003e97c       ?dtor$1@?0??streamPDF@@YA?AW4_cairo_status@@PEAXPEBEI@Z@4HA 000000018003f97c f   Canvas.obj
 0001:0003e97c       ?dtor$1@?0??streamPNG@@YA?AW4_cairo_status@@PEAXPEBEI@Z@4HA 000000018003f97c f   Canvas.obj
 0001:0003e990       ?dtor$0@?0??StreamPNGSync@Canvas@@SAXAEBV?$FunctionCallbackInfo@VValue@v8@@@Nan@@@Z@4HA 000000018003f990 f   Canvas.obj
 0001:0003e99c       ?dtor$1@?0??StreamPNGSync@Canvas@@SAXAEBV?$FunctionCallbackInfo@VValue@v8@@@Nan@@@Z@4HA 000000018003f99c f   Canvas.obj
 0001:0003e9a8       ?dtor$5@?0??StreamPNGSync@Canvas@@SAXAEBV?$FunctionCallbackInfo@VValue@v8@@@Nan@@@Z@4HA 000000018003f9a8 f   Canvas.obj
 0001:0003e9b6       ?dtor$7@?0??StreamPNGSync@Canvas@@SAXAEBV?$FunctionCallbackInfo@VValue@v8@@@Nan@@@Z@4HA 000000018003f9b6 f   Canvas.obj
 0001:0003e9c4       ?dtor$9@?0??StreamPNGSync@Canvas@@SAXAEBV?$FunctionCallbackInfo@VValue@v8@@@Nan@@@Z@4HA 000000018003f9c4 f   Canvas.obj
 0001:0003e9e0       ?dtor$1@?0??StreamPDFSync@Canvas@@SAXAEBV?$FunctionCallbackInfo@VValue@v8@@@Nan@@@Z@4HA 000000018003f9e0 f   Canvas.obj
 0001:0003e9ec       ?dtor$10@?0??StreamPDFSync@Canvas@@SAXAEBV?$FunctionCallbackInfo@VValue@v8@@@Nan@@@Z@4HA 000000018003f9ec f   Canvas.obj
 0001:0003e9fa       ?dtor$12@?0??StreamPDFSync@Canvas@@SAXAEBV?$FunctionCallbackInfo@VValue@v8@@@Nan@@@Z@4HA 000000018003f9fa f   Canvas.obj
 0001:0003ea10       ?dtor$0@?0??StreamJPEGSync@Canvas@@SAXAEBV?$FunctionCallbackInfo@VValue@v8@@@Nan@@@Z@4HA 000000018003fa10 f   Canvas.obj
 0001:0003ea1c       ?dtor$1@?0??StreamJPEGSync@Canvas@@SAXAEBV?$FunctionCallbackInfo@VValue@v8@@@Nan@@@Z@4HA 000000018003fa1c f   Canvas.obj
 0001:0003ea30       ?dtor$0@?0??RegisterFont@Canvas@@SAXAEBV?$FunctionCallbackInfo@VValue@v8@@@Nan@@@Z@4HA 000000018003fa30 f   Canvas.obj
 0001:0003ea3c       ?dtor$1@?0??RegisterFont@Canvas@@SAXAEBV?$FunctionCallbackInfo@VValue@v8@@@Nan@@@Z@4HA 000000018003fa3c f   Canvas.obj
 0001:0003ea50       ?dtor$0@?0??resurface@Canvas@@QEAAXV?$Local@VObject@v8@@@v8@@@Z@4HA 000000018003fa50 f   Canvas.obj
 0001:0003ea5c       ?dtor$2@?0??resurface@Canvas@@QEAAXV?$Local@VObject@v8@@@v8@@@Z@4HA 000000018003fa5c f   Canvas.obj
 0001:0003ea70       ?dtor$0@?0???0?$TypedArrayContents@E@Nan@@QEAA@V?$Local@VValue@v8@@@v8@@@Z@4HA 000000018003fa70 f   Canvas.obj
 0001:0003ea80       ?dtor$0@?0???$New@VString@v8@@V?$basic_string@DU?$char_traits@D@std@@V?$allocator@D@2@@std@@@Nan@@YA?AV?$MaybeLocal@VString@v8@@@v8@@V?$basic_string@DU?$char_traits@D@std@@V?$allocator@D@2@@std@@@Z@4HA 000000018003fa80 f   Canvas.obj
 0001:0003ea90       ?dtor$0@?0??Initialize@Gradient@@SAXV?$Local@VObject@v8@@@v8@@@Z@4HA 000000018003fa90 f   CanvasGradient.obj
 0001:0003ea9c       ?dtor$2@?0??Initialize@Gradient@@SAXV?$Local@VObject@v8@@@v8@@@Z@4HA 000000018003fa9c f   CanvasGradient.obj
 0001:0003eaa8       ?dtor$5@?0??Initialize@Gradient@@SAXV?$Local@VObject@v8@@@v8@@@Z@4HA 000000018003faa8 f   CanvasGradient.obj
 0001:0003eac0       ?dtor$0@?0??New@Gradient@@SAXAEBV?$FunctionCallbackInfo@VValue@v8@@@Nan@@@Z@4HA 000000018003fac0 f   CanvasGradient.obj
 0001:0003eae0       ?dtor$2@?0??New@Gradient@@SAXAEBV?$FunctionCallbackInfo@VValue@v8@@@Nan@@@Z@4HA 000000018003fae0 f   CanvasGradient.obj
 0001:0003eaee       ?dtor$3@?0??New@Gradient@@SAXAEBV?$FunctionCallbackInfo@VValue@v8@@@Nan@@@Z@4HA 000000018003faee f   CanvasGradient.obj
 0001:0003eafc       ?dtor$4@?0??New@Gradient@@SAXAEBV?$FunctionCallbackInfo@VValue@v8@@@Nan@@@Z@4HA 000000018003fafc f   CanvasGradient.obj
 0001:0003eb0a       ?dtor$5@?0??New@Gradient@@SAXAEBV?$FunctionCallbackInfo@VValue@v8@@@Nan@@@Z@4HA 000000018003fb0a f   CanvasGradient.obj
 0001:0003eb18       ?dtor$1@?0??New@Gradient@@SAXAEBV?$FunctionCallbackInfo@VValue@v8@@@Nan@@@Z@4HA 000000018003fb18 f   CanvasGradient.obj
 0001:0003eb38       ?dtor$6@?0??New@Gradient@@SAXAEBV?$FunctionCallbackInfo@VValue@v8@@@Nan@@@Z@4HA 000000018003fb38 f   CanvasGradient.obj
 0001:0003eb46       ?dtor$7@?0??New@Gradient@@SAXAEBV?$FunctionCallbackInfo@VValue@v8@@@Nan@@@Z@4HA 000000018003fb46 f   CanvasGradient.obj
 0001:0003eb54       ?dtor$8@?0??New@Gradient@@SAXAEBV?$FunctionCallbackInfo@VValue@v8@@@Nan@@@Z@4HA 000000018003fb54 f   CanvasGradient.obj
 0001:0003eb62       ?dtor$9@?0??New@Gradient@@SAXAEBV?$FunctionCallbackInfo@VValue@v8@@@Nan@@@Z@4HA 000000018003fb62 f   CanvasGradient.obj
 0001:0003eb70       ?dtor$10@?0??New@Gradient@@SAXAEBV?$FunctionCallbackInfo@VValue@v8@@@Nan@@@Z@4HA 000000018003fb70 f   CanvasGradient.obj
 0001:0003eb7e       ?dtor$11@?0??New@Gradient@@SAXAEBV?$FunctionCallbackInfo@VValue@v8@@@Nan@@@Z@4HA 000000018003fb7e f   CanvasGradient.obj
 0001:0003eb90       ?dtor$0@?0??AddColorStop@Gradient@@SAXAEBV?$FunctionCallbackInfo@VValue@v8@@@Nan@@@Z@4HA 000000018003fb90 f   CanvasGradient.obj
 0001:0003eb9c       ?dtor$1@?0??AddColorStop@Gradient@@SAXAEBV?$FunctionCallbackInfo@VValue@v8@@@Nan@@@Z@4HA 000000018003fb9c f   CanvasGradient.obj
 0001:0003ebb0       ?dtor$0@?0??Initialize@Pattern@@SAXV?$Local@VObject@v8@@@v8@@@Z@4HA 000000018003fbb0 f   CanvasPattern.obj
 0001:0003ebbc       ?dtor$2@?0??Initialize@Pattern@@SAXV?$Local@VObject@v8@@@v8@@@Z@4HA 000000018003fbbc f   CanvasPattern.obj
 0001:0003ebd0       ?dtor$1@?0??SetLineJoin@Context2d@@SAXV?$Local@VString@v8@@@v8@@V?$Local@VValue@v8@@@3@AEBV?$PropertyCallbackInfo@X@Nan@@@Z@4HA 000000018003fbd0 f   CanvasRenderingContext2d.obj
 0001:0003ebd0       ?dtor$1@?0??SetPatternQuality@Context2d@@SAXV?$Local@VString@v8@@@v8@@V?$Local@VValue@v8@@@3@AEBV?$PropertyCallbackInfo@X@Nan@@@Z@4HA 000000018003fbd0 f   CanvasRenderingContext2d.obj
 0001:0003ebd0       ?dtor$4@?0??New@Pattern@@SAXAEBV?$FunctionCallbackInfo@VValue@v8@@@Nan@@@Z@4HA 000000018003fbd0 f   CanvasPattern.obj
 0001:0003ebd0       ?dtor$1@?0??SetLineCap@Context2d@@SAXV?$Local@VString@v8@@@v8@@V?$Local@VValue@v8@@@3@AEBV?$PropertyCallbackInfo@X@Nan@@@Z@4HA 000000018003fbd0 f   CanvasRenderingContext2d.obj
 0001:0003ebe0       ?dtor$0@?0??Ellipse@Context2d@@SAXAEBV?$FunctionCallbackInfo@VValue@v8@@@Nan@@@Z@4HA 000000018003fbe0 f   CanvasRenderingContext2d.obj
 0001:0003ebe0       ?dtor$0@?0??checkArgs@@YA_NAEBV?$FunctionCallbackInfo@VValue@v8@@@Nan@@PEANHH@Z@4HA 000000018003fbe0 f   CanvasRenderingContext2d.obj
